
RUthless_ECU.elf:     file format elf32-littlearm

Sections:
Idx Name          Size      VMA       LMA       File off  Algn
  0 .text         000021bc  00080000  00080000  00010000  2**2
                  CONTENTS, ALLOC, LOAD, READONLY, CODE
  1 .relocate     0000092c  20070000  000821bc  00020000  2**3
                  CONTENTS, ALLOC, LOAD, CODE
  2 .bss          00001ad0  2007092c  00082ae8  0002092c  2**2
                  ALLOC
  3 .stack        00002004  200723fc  000845b8  0002092c  2**0
                  ALLOC
  4 .ARM.attributes 00000029  00000000  00000000  0002092c  2**0
                  CONTENTS, READONLY
  5 .comment      00000059  00000000  00000000  00020955  2**0
                  CONTENTS, READONLY
  6 .debug_frame  000002b0  00000000  00000000  000209b0  2**2
                  CONTENTS, READONLY, DEBUGGING

Disassembly of section .text:

00080000 <_sfixed>:
   80000:	20074400 	.word	0x20074400
   80004:	000807e1 	.word	0x000807e1
   80008:	000807dd 	.word	0x000807dd
   8000c:	000807dd 	.word	0x000807dd
   80010:	000807dd 	.word	0x000807dd
   80014:	000807dd 	.word	0x000807dd
   80018:	000807dd 	.word	0x000807dd
	...
   8002c:	000807dd 	.word	0x000807dd
   80030:	000807dd 	.word	0x000807dd
   80034:	00000000 	.word	0x00000000
   80038:	000807dd 	.word	0x000807dd
   8003c:	000807dd 	.word	0x000807dd
   80040:	000807dd 	.word	0x000807dd
   80044:	000807dd 	.word	0x000807dd
   80048:	000807dd 	.word	0x000807dd
   8004c:	000807dd 	.word	0x000807dd
   80050:	000807dd 	.word	0x000807dd
   80054:	000807dd 	.word	0x000807dd
   80058:	000807dd 	.word	0x000807dd
   8005c:	000807dd 	.word	0x000807dd
   80060:	00081571 	.word	0x00081571
   80064:	000807dd 	.word	0x000807dd
   80068:	00000000 	.word	0x00000000
   8006c:	00080fa1 	.word	0x00080fa1
   80070:	000807dd 	.word	0x000807dd
   80074:	000807dd 	.word	0x000807dd
   80078:	000807dd 	.word	0x000807dd
	...
   80084:	000807dd 	.word	0x000807dd
   80088:	000807dd 	.word	0x000807dd
   8008c:	000807dd 	.word	0x000807dd
   80090:	000807dd 	.word	0x000807dd
   80094:	000807dd 	.word	0x000807dd
   80098:	000807dd 	.word	0x000807dd
   8009c:	000807dd 	.word	0x000807dd
   800a0:	000807dd 	.word	0x000807dd
   800a4:	00000000 	.word	0x00000000
   800a8:	000807dd 	.word	0x000807dd
   800ac:	00081301 	.word	0x00081301
   800b0:	0008130d 	.word	0x0008130d
   800b4:	00081319 	.word	0x00081319
   800b8:	00081325 	.word	0x00081325
   800bc:	00081331 	.word	0x00081331
   800c0:	0008133d 	.word	0x0008133d
   800c4:	00081349 	.word	0x00081349
   800c8:	00081355 	.word	0x00081355
   800cc:	00081361 	.word	0x00081361
   800d0:	000807dd 	.word	0x000807dd
   800d4:	00080a4d 	.word	0x00080a4d
   800d8:	000807dd 	.word	0x000807dd
   800dc:	000807dd 	.word	0x000807dd
   800e0:	000807dd 	.word	0x000807dd
   800e4:	000807dd 	.word	0x000807dd
   800e8:	000807dd 	.word	0x000807dd
   800ec:	000807dd 	.word	0x000807dd
   800f0:	000807dd 	.word	0x000807dd

000800f4 <__do_global_dtors_aux>:
   800f4:	b510      	push	{r4, lr}
   800f6:	4c05      	ldr	r4, [pc, #20]	; (8010c <__do_global_dtors_aux+0x18>)
   800f8:	7823      	ldrb	r3, [r4, #0]
   800fa:	b933      	cbnz	r3, 8010a <__do_global_dtors_aux+0x16>
   800fc:	4b04      	ldr	r3, [pc, #16]	; (80110 <__do_global_dtors_aux+0x1c>)
   800fe:	b113      	cbz	r3, 80106 <__do_global_dtors_aux+0x12>
   80100:	4804      	ldr	r0, [pc, #16]	; (80114 <__do_global_dtors_aux+0x20>)
   80102:	f3af 8000 	nop.w
   80106:	2301      	movs	r3, #1
   80108:	7023      	strb	r3, [r4, #0]
   8010a:	bd10      	pop	{r4, pc}
   8010c:	2007092c 	.word	0x2007092c
   80110:	00000000 	.word	0x00000000
   80114:	000821bc 	.word	0x000821bc

00080118 <frame_dummy>:
   80118:	4b08      	ldr	r3, [pc, #32]	; (8013c <frame_dummy+0x24>)
   8011a:	b510      	push	{r4, lr}
   8011c:	b11b      	cbz	r3, 80126 <frame_dummy+0xe>
   8011e:	4908      	ldr	r1, [pc, #32]	; (80140 <frame_dummy+0x28>)
   80120:	4808      	ldr	r0, [pc, #32]	; (80144 <frame_dummy+0x2c>)
   80122:	f3af 8000 	nop.w
   80126:	4808      	ldr	r0, [pc, #32]	; (80148 <frame_dummy+0x30>)
   80128:	6803      	ldr	r3, [r0, #0]
   8012a:	b903      	cbnz	r3, 8012e <frame_dummy+0x16>
   8012c:	bd10      	pop	{r4, pc}
   8012e:	4b07      	ldr	r3, [pc, #28]	; (8014c <frame_dummy+0x34>)
   80130:	2b00      	cmp	r3, #0
   80132:	d0fb      	beq.n	8012c <frame_dummy+0x14>
   80134:	e8bd 4010 	ldmia.w	sp!, {r4, lr}
   80138:	4718      	bx	r3
   8013a:	bf00      	nop
   8013c:	00000000 	.word	0x00000000
   80140:	20070930 	.word	0x20070930
   80144:	000821bc 	.word	0x000821bc
   80148:	000821bc 	.word	0x000821bc
   8014c:	00000000 	.word	0x00000000

00080150 <at24cxx_read_byte>:
   80150:	b57f      	push	{r0, r1, r2, r3, r4, r5, r6, lr}
   80152:	2350      	movs	r3, #80	; 0x50
   80154:	f88d 3014 	strb.w	r3, [sp, #20]
   80158:	0a03      	lsrs	r3, r0, #8
   8015a:	f88d 3004 	strb.w	r3, [sp, #4]
   8015e:	2302      	movs	r3, #2
   80160:	9302      	str	r3, [sp, #8]
   80162:	2301      	movs	r3, #1
   80164:	f88d 0005 	strb.w	r0, [sp, #5]
   80168:	9103      	str	r1, [sp, #12]
   8016a:	9304      	str	r3, [sp, #16]
   8016c:	a901      	add	r1, sp, #4
   8016e:	4b04      	ldr	r3, [pc, #16]	; (80180 <at24cxx_read_byte+0x30>)
   80170:	4804      	ldr	r0, [pc, #16]	; (80184 <at24cxx_read_byte+0x34>)
   80172:	4798      	blx	r3
   80174:	3000      	adds	r0, #0
   80176:	bf18      	it	ne
   80178:	2001      	movne	r0, #1
   8017a:	b007      	add	sp, #28
   8017c:	f85d fb04 	ldr.w	pc, [sp], #4
   80180:	00080741 	.word	0x00080741
   80184:	40090000 	.word	0x40090000

00080188 <at24cxx_read_continuous>:
   80188:	b57f      	push	{r0, r1, r2, r3, r4, r5, r6, lr}
   8018a:	2350      	movs	r3, #80	; 0x50
   8018c:	f88d 3014 	strb.w	r3, [sp, #20]
   80190:	0a03      	lsrs	r3, r0, #8
   80192:	f88d 3004 	strb.w	r3, [sp, #4]
   80196:	2302      	movs	r3, #2
   80198:	f88d 0005 	strb.w	r0, [sp, #5]
   8019c:	9302      	str	r3, [sp, #8]
   8019e:	9104      	str	r1, [sp, #16]
   801a0:	4b05      	ldr	r3, [pc, #20]	; (801b8 <at24cxx_read_continuous+0x30>)
   801a2:	a901      	add	r1, sp, #4
   801a4:	4805      	ldr	r0, [pc, #20]	; (801bc <at24cxx_read_continuous+0x34>)
   801a6:	9203      	str	r2, [sp, #12]
   801a8:	4798      	blx	r3
   801aa:	3000      	adds	r0, #0
   801ac:	bf18      	it	ne
   801ae:	2001      	movne	r0, #1
   801b0:	b007      	add	sp, #28
   801b2:	f85d fb04 	ldr.w	pc, [sp], #4
   801b6:	bf00      	nop
   801b8:	00080741 	.word	0x00080741
   801bc:	40090000 	.word	0x40090000

000801c0 <adc_init>:
   801c0:	b530      	push	{r4, r5, lr}
   801c2:	2401      	movs	r4, #1
   801c4:	6004      	str	r4, [r0, #0]
   801c6:	0052      	lsls	r2, r2, #1
   801c8:	f240 2402 	movw	r4, #514	; 0x202
   801cc:	fbb1 f1f2 	udiv	r1, r1, r2
   801d0:	2500      	movs	r5, #0
   801d2:	6045      	str	r5, [r0, #4]
   801d4:	f8c0 4120 	str.w	r4, [r0, #288]	; 0x120
   801d8:	f8c0 5104 	str.w	r5, [r0, #260]	; 0x104
   801dc:	f8c0 5114 	str.w	r5, [r0, #276]	; 0x114
   801e0:	6844      	ldr	r4, [r0, #4]
   801e2:	1e4a      	subs	r2, r1, #1
   801e4:	0212      	lsls	r2, r2, #8
   801e6:	4323      	orrs	r3, r4
   801e8:	b292      	uxth	r2, r2
   801ea:	431a      	orrs	r2, r3
   801ec:	6042      	str	r2, [r0, #4]
   801ee:	4628      	mov	r0, r5
   801f0:	bd30      	pop	{r4, r5, pc}

000801f2 <adc_set_resolution>:
   801f2:	6843      	ldr	r3, [r0, #4]
   801f4:	f023 0310 	bic.w	r3, r3, #16
   801f8:	6043      	str	r3, [r0, #4]
   801fa:	6843      	ldr	r3, [r0, #4]
   801fc:	4319      	orrs	r1, r3
   801fe:	6041      	str	r1, [r0, #4]
   80200:	4770      	bx	lr

00080202 <adc_configure_trigger>:
   80202:	6843      	ldr	r3, [r0, #4]
   80204:	01d2      	lsls	r2, r2, #7
   80206:	b2d2      	uxtb	r2, r2
   80208:	4319      	orrs	r1, r3
   8020a:	4311      	orrs	r1, r2
   8020c:	6041      	str	r1, [r0, #4]
   8020e:	4770      	bx	lr

00080210 <adc_configure_timing>:
   80210:	b510      	push	{r4, lr}
   80212:	6844      	ldr	r4, [r0, #4]
   80214:	0609      	lsls	r1, r1, #24
   80216:	f001 6170 	and.w	r1, r1, #251658240	; 0xf000000
   8021a:	4322      	orrs	r2, r4
   8021c:	071b      	lsls	r3, r3, #28
   8021e:	430a      	orrs	r2, r1
   80220:	f003 5340 	and.w	r3, r3, #805306368	; 0x30000000
   80224:	4313      	orrs	r3, r2
   80226:	6043      	str	r3, [r0, #4]
   80228:	bd10      	pop	{r4, pc}

0008022a <adc_start>:
   8022a:	2302      	movs	r3, #2
   8022c:	6003      	str	r3, [r0, #0]
   8022e:	4770      	bx	lr

00080230 <adc_enable_channel>:
   80230:	2301      	movs	r3, #1
   80232:	fa03 f101 	lsl.w	r1, r3, r1
   80236:	6101      	str	r1, [r0, #16]
   80238:	4770      	bx	lr

0008023a <adc_enable_tag>:
   8023a:	6c03      	ldr	r3, [r0, #64]	; 0x40
   8023c:	f043 7380 	orr.w	r3, r3, #16777216	; 0x1000000
   80240:	6403      	str	r3, [r0, #64]	; 0x40
   80242:	4770      	bx	lr

00080244 <adc_enable_interrupt>:
   80244:	6241      	str	r1, [r0, #36]	; 0x24
   80246:	4770      	bx	lr

00080248 <sysclk_init>:
   80248:	b570      	push	{r4, r5, r6, lr}
   8024a:	480f      	ldr	r0, [pc, #60]	; (80288 <sysclk_init+0x40>)
   8024c:	4c0f      	ldr	r4, [pc, #60]	; (8028c <sysclk_init+0x44>)
   8024e:	47a0      	blx	r4
   80250:	213e      	movs	r1, #62	; 0x3e
   80252:	2000      	movs	r0, #0
   80254:	4b0e      	ldr	r3, [pc, #56]	; (80290 <sysclk_init+0x48>)
   80256:	4798      	blx	r3
   80258:	4d0e      	ldr	r5, [pc, #56]	; (80294 <sysclk_init+0x4c>)
   8025a:	47a8      	blx	r5
   8025c:	2800      	cmp	r0, #0
   8025e:	d0fc      	beq.n	8025a <sysclk_init+0x12>
   80260:	4b0d      	ldr	r3, [pc, #52]	; (80298 <sysclk_init+0x50>)
   80262:	4798      	blx	r3
   80264:	4a0d      	ldr	r2, [pc, #52]	; (8029c <sysclk_init+0x54>)
   80266:	4b0e      	ldr	r3, [pc, #56]	; (802a0 <sysclk_init+0x58>)
   80268:	4d0e      	ldr	r5, [pc, #56]	; (802a4 <sysclk_init+0x5c>)
   8026a:	629a      	str	r2, [r3, #40]	; 0x28
   8026c:	47a8      	blx	r5
   8026e:	2800      	cmp	r0, #0
   80270:	d0fc      	beq.n	8026c <sysclk_init+0x24>
   80272:	4b0d      	ldr	r3, [pc, #52]	; (802a8 <sysclk_init+0x60>)
   80274:	2010      	movs	r0, #16
   80276:	4798      	blx	r3
   80278:	4b0c      	ldr	r3, [pc, #48]	; (802ac <sysclk_init+0x64>)
   8027a:	4798      	blx	r3
   8027c:	4623      	mov	r3, r4
   8027e:	e8bd 4070 	ldmia.w	sp!, {r4, r5, r6, lr}
   80282:	4801      	ldr	r0, [pc, #4]	; (80288 <sysclk_init+0x40>)
   80284:	4718      	bx	r3
   80286:	bf00      	nop
   80288:	0501bd00 	.word	0x0501bd00
   8028c:	20070089 	.word	0x20070089
   80290:	00080555 	.word	0x00080555
   80294:	000805a5 	.word	0x000805a5
   80298:	000805b5 	.word	0x000805b5
   8029c:	200d3f01 	.word	0x200d3f01
   802a0:	400e0600 	.word	0x400e0600
   802a4:	000805c5 	.word	0x000805c5
   802a8:	00080511 	.word	0x00080511
   802ac:	00080861 	.word	0x00080861

000802b0 <board_init>:
   802b0:	4b18      	ldr	r3, [pc, #96]	; (80314 <board_init+0x64>)
   802b2:	f44f 4200 	mov.w	r2, #32768	; 0x8000
   802b6:	b510      	push	{r4, lr}
   802b8:	200b      	movs	r0, #11
   802ba:	605a      	str	r2, [r3, #4]
   802bc:	4c16      	ldr	r4, [pc, #88]	; (80318 <board_init+0x68>)
   802be:	47a0      	blx	r4
   802c0:	200c      	movs	r0, #12
   802c2:	47a0      	blx	r4
   802c4:	200d      	movs	r0, #13
   802c6:	47a0      	blx	r4
   802c8:	200e      	movs	r0, #14
   802ca:	47a0      	blx	r4
   802cc:	4c13      	ldr	r4, [pc, #76]	; (8031c <board_init+0x6c>)
   802ce:	f04f 5160 	mov.w	r1, #939524096	; 0x38000000
   802d2:	203b      	movs	r0, #59	; 0x3b
   802d4:	47a0      	blx	r4
   802d6:	f04f 5160 	mov.w	r1, #939524096	; 0x38000000
   802da:	2055      	movs	r0, #85	; 0x55
   802dc:	47a0      	blx	r4
   802de:	f04f 5160 	mov.w	r1, #939524096	; 0x38000000
   802e2:	2056      	movs	r0, #86	; 0x56
   802e4:	47a0      	blx	r4
   802e6:	490e      	ldr	r1, [pc, #56]	; (80320 <board_init+0x70>)
   802e8:	2068      	movs	r0, #104	; 0x68
   802ea:	47a0      	blx	r4
   802ec:	490d      	ldr	r1, [pc, #52]	; (80324 <board_init+0x74>)
   802ee:	205c      	movs	r0, #92	; 0x5c
   802f0:	47a0      	blx	r4
   802f2:	4b0d      	ldr	r3, [pc, #52]	; (80328 <board_init+0x78>)
   802f4:	4a0d      	ldr	r2, [pc, #52]	; (8032c <board_init+0x7c>)
   802f6:	f44f 7140 	mov.w	r1, #768	; 0x300
   802fa:	480d      	ldr	r0, [pc, #52]	; (80330 <board_init+0x80>)
   802fc:	4798      	blx	r3
   802fe:	f04f 6100 	mov.w	r1, #134217728	; 0x8000000
   80302:	202b      	movs	r0, #43	; 0x2b
   80304:	47a0      	blx	r4
   80306:	4623      	mov	r3, r4
   80308:	e8bd 4010 	ldmia.w	sp!, {r4, lr}
   8030c:	f04f 6100 	mov.w	r1, #134217728	; 0x8000000
   80310:	202a      	movs	r0, #42	; 0x2a
   80312:	4718      	bx	r3
   80314:	400e1a50 	.word	0x400e1a50
   80318:	000805d5 	.word	0x000805d5
   8031c:	000803c1 	.word	0x000803c1
   80320:	28000079 	.word	0x28000079
   80324:	28000001 	.word	0x28000001
   80328:	00080489 	.word	0x00080489
   8032c:	08000001 	.word	0x08000001
   80330:	400e0e00 	.word	0x400e0e00

00080334 <pio_set_peripheral>:
   80334:	f1b1 5f80 	cmp.w	r1, #268435456	; 0x10000000
   80338:	6442      	str	r2, [r0, #68]	; 0x44
   8033a:	d014      	beq.n	80366 <pio_set_peripheral+0x32>
   8033c:	d809      	bhi.n	80352 <pio_set_peripheral+0x1e>
   8033e:	b1b1      	cbz	r1, 8036e <pio_set_peripheral+0x3a>
   80340:	f1b1 6f00 	cmp.w	r1, #134217728	; 0x8000000
   80344:	d112      	bne.n	8036c <pio_set_peripheral+0x38>
   80346:	6f01      	ldr	r1, [r0, #112]	; 0x70
   80348:	6f03      	ldr	r3, [r0, #112]	; 0x70
   8034a:	400b      	ands	r3, r1
   8034c:	ea23 0302 	bic.w	r3, r3, r2
   80350:	e00b      	b.n	8036a <pio_set_peripheral+0x36>
   80352:	f1b1 5f40 	cmp.w	r1, #805306368	; 0x30000000
   80356:	d00a      	beq.n	8036e <pio_set_peripheral+0x3a>
   80358:	f1b1 5f60 	cmp.w	r1, #939524096	; 0x38000000
   8035c:	d007      	beq.n	8036e <pio_set_peripheral+0x3a>
   8035e:	f1b1 5f20 	cmp.w	r1, #671088640	; 0x28000000
   80362:	d103      	bne.n	8036c <pio_set_peripheral+0x38>
   80364:	4770      	bx	lr
   80366:	6f03      	ldr	r3, [r0, #112]	; 0x70
   80368:	4313      	orrs	r3, r2
   8036a:	6703      	str	r3, [r0, #112]	; 0x70
   8036c:	6042      	str	r2, [r0, #4]
   8036e:	4770      	bx	lr

00080370 <pio_set_input>:
   80370:	07d3      	lsls	r3, r2, #31
   80372:	6441      	str	r1, [r0, #68]	; 0x44
   80374:	bf4c      	ite	mi
   80376:	6641      	strmi	r1, [r0, #100]	; 0x64
   80378:	6601      	strpl	r1, [r0, #96]	; 0x60
   8037a:	f012 0f0a 	tst.w	r2, #10
   8037e:	bf14      	ite	ne
   80380:	6201      	strne	r1, [r0, #32]
   80382:	6241      	streq	r1, [r0, #36]	; 0x24
   80384:	0793      	lsls	r3, r2, #30
   80386:	d502      	bpl.n	8038e <pio_set_input+0x1e>
   80388:	f8c0 1080 	str.w	r1, [r0, #128]	; 0x80
   8038c:	e003      	b.n	80396 <pio_set_input+0x26>
   8038e:	0713      	lsls	r3, r2, #28
   80390:	bf48      	it	mi
   80392:	f8c0 1084 	strmi.w	r1, [r0, #132]	; 0x84
   80396:	6141      	str	r1, [r0, #20]
   80398:	6001      	str	r1, [r0, #0]
   8039a:	4770      	bx	lr

0008039c <pio_set_output>:
   8039c:	b510      	push	{r4, lr}
   8039e:	9c02      	ldr	r4, [sp, #8]
   803a0:	6441      	str	r1, [r0, #68]	; 0x44
   803a2:	b10c      	cbz	r4, 803a8 <pio_set_output+0xc>
   803a4:	6641      	str	r1, [r0, #100]	; 0x64
   803a6:	e000      	b.n	803aa <pio_set_output+0xe>
   803a8:	6601      	str	r1, [r0, #96]	; 0x60
   803aa:	b10b      	cbz	r3, 803b0 <pio_set_output+0x14>
   803ac:	6501      	str	r1, [r0, #80]	; 0x50
   803ae:	e000      	b.n	803b2 <pio_set_output+0x16>
   803b0:	6541      	str	r1, [r0, #84]	; 0x54
   803b2:	b10a      	cbz	r2, 803b8 <pio_set_output+0x1c>
   803b4:	6301      	str	r1, [r0, #48]	; 0x30
   803b6:	e000      	b.n	803ba <pio_set_output+0x1e>
   803b8:	6341      	str	r1, [r0, #52]	; 0x34
   803ba:	6101      	str	r1, [r0, #16]
   803bc:	6001      	str	r1, [r0, #0]
   803be:	bd10      	pop	{r4, pc}

000803c0 <pio_configure_pin>:
   803c0:	b5f7      	push	{r0, r1, r2, r4, r5, r6, r7, lr}
   803c2:	0945      	lsrs	r5, r0, #5
   803c4:	460e      	mov	r6, r1
   803c6:	f505 1500 	add.w	r5, r5, #2097152	; 0x200000
   803ca:	f001 41f0 	and.w	r1, r1, #2013265920	; 0x78000000
   803ce:	f205 7507 	addw	r5, r5, #1799	; 0x707
   803d2:	f1b1 5f20 	cmp.w	r1, #671088640	; 0x28000000
   803d6:	ea4f 2545 	mov.w	r5, r5, lsl #9
   803da:	d02c      	beq.n	80436 <pio_configure_pin+0x76>
   803dc:	d815      	bhi.n	8040a <pio_configure_pin+0x4a>
   803de:	f1b1 6f00 	cmp.w	r1, #134217728	; 0x8000000
   803e2:	d019      	beq.n	80418 <pio_configure_pin+0x58>
   803e4:	f1b1 5f80 	cmp.w	r1, #268435456	; 0x10000000
   803e8:	d144      	bne.n	80474 <pio_configure_pin+0xb4>
   803ea:	f000 011f 	and.w	r1, r0, #31
   803ee:	2001      	movs	r0, #1
   803f0:	fa00 f101 	lsl.w	r1, r0, r1
   803f4:	6469      	str	r1, [r5, #68]	; 0x44
   803f6:	6f2b      	ldr	r3, [r5, #112]	; 0x70
   803f8:	07f4      	lsls	r4, r6, #31
   803fa:	ea43 0301 	orr.w	r3, r3, r1
   803fe:	672b      	str	r3, [r5, #112]	; 0x70
   80400:	6069      	str	r1, [r5, #4]
   80402:	bf4c      	ite	mi
   80404:	6669      	strmi	r1, [r5, #100]	; 0x64
   80406:	6629      	strpl	r1, [r5, #96]	; 0x60
   80408:	e035      	b.n	80476 <pio_configure_pin+0xb6>
   8040a:	f1b1 5f40 	cmp.w	r1, #805306368	; 0x30000000
   8040e:	d01c      	beq.n	8044a <pio_configure_pin+0x8a>
   80410:	f1b1 5f60 	cmp.w	r1, #939524096	; 0x38000000
   80414:	d019      	beq.n	8044a <pio_configure_pin+0x8a>
   80416:	e02d      	b.n	80474 <pio_configure_pin+0xb4>
   80418:	f000 041f 	and.w	r4, r0, #31
   8041c:	2701      	movs	r7, #1
   8041e:	fa07 f404 	lsl.w	r4, r7, r4
   80422:	4628      	mov	r0, r5
   80424:	4622      	mov	r2, r4
   80426:	4b15      	ldr	r3, [pc, #84]	; (8047c <pio_configure_pin+0xbc>)
   80428:	4798      	blx	r3
   8042a:	07f6      	lsls	r6, r6, #31
   8042c:	bf4c      	ite	mi
   8042e:	666c      	strmi	r4, [r5, #100]	; 0x64
   80430:	662c      	strpl	r4, [r5, #96]	; 0x60
   80432:	4638      	mov	r0, r7
   80434:	e01f      	b.n	80476 <pio_configure_pin+0xb6>
   80436:	f000 011f 	and.w	r1, r0, #31
   8043a:	2401      	movs	r4, #1
   8043c:	4632      	mov	r2, r6
   8043e:	fa04 f101 	lsl.w	r1, r4, r1
   80442:	4628      	mov	r0, r5
   80444:	4b0e      	ldr	r3, [pc, #56]	; (80480 <pio_configure_pin+0xc0>)
   80446:	4798      	blx	r3
   80448:	e012      	b.n	80470 <pio_configure_pin+0xb0>
   8044a:	f006 5260 	and.w	r2, r6, #939524096	; 0x38000000
   8044e:	f000 011f 	and.w	r1, r0, #31
   80452:	2401      	movs	r4, #1
   80454:	f102 4048 	add.w	r0, r2, #3355443200	; 0xc8000000
   80458:	ea06 0304 	and.w	r3, r6, r4
   8045c:	4242      	negs	r2, r0
   8045e:	9300      	str	r3, [sp, #0]
   80460:	4142      	adcs	r2, r0
   80462:	f3c6 0380 	ubfx	r3, r6, #2, #1
   80466:	4628      	mov	r0, r5
   80468:	fa04 f101 	lsl.w	r1, r4, r1
   8046c:	4d05      	ldr	r5, [pc, #20]	; (80484 <pio_configure_pin+0xc4>)
   8046e:	47a8      	blx	r5
   80470:	4620      	mov	r0, r4
   80472:	e000      	b.n	80476 <pio_configure_pin+0xb6>
   80474:	2000      	movs	r0, #0
   80476:	b003      	add	sp, #12
   80478:	bdf0      	pop	{r4, r5, r6, r7, pc}
   8047a:	bf00      	nop
   8047c:	00080335 	.word	0x00080335
   80480:	00080371 	.word	0x00080371
   80484:	0008039d 	.word	0x0008039d

00080488 <pio_configure_pin_group>:
   80488:	f002 43f0 	and.w	r3, r2, #2013265920	; 0x78000000
   8048c:	f1b3 5f20 	cmp.w	r3, #671088640	; 0x28000000
   80490:	b573      	push	{r0, r1, r4, r5, r6, lr}
   80492:	4604      	mov	r4, r0
   80494:	460d      	mov	r5, r1
   80496:	4616      	mov	r6, r2
   80498:	d01c      	beq.n	804d4 <pio_configure_pin_group+0x4c>
   8049a:	d80b      	bhi.n	804b4 <pio_configure_pin_group+0x2c>
   8049c:	f1b3 6f00 	cmp.w	r3, #134217728	; 0x8000000
   804a0:	d00f      	beq.n	804c2 <pio_configure_pin_group+0x3a>
   804a2:	f1b3 5f80 	cmp.w	r3, #268435456	; 0x10000000
   804a6:	d129      	bne.n	804fc <pio_configure_pin_group+0x74>
   804a8:	6461      	str	r1, [r4, #68]	; 0x44
   804aa:	6f03      	ldr	r3, [r0, #112]	; 0x70
   804ac:	430b      	orrs	r3, r1
   804ae:	6703      	str	r3, [r0, #112]	; 0x70
   804b0:	6061      	str	r1, [r4, #4]
   804b2:	e00a      	b.n	804ca <pio_configure_pin_group+0x42>
   804b4:	f1b3 5f40 	cmp.w	r3, #805306368	; 0x30000000
   804b8:	d010      	beq.n	804dc <pio_configure_pin_group+0x54>
   804ba:	f1b3 5f60 	cmp.w	r3, #939524096	; 0x38000000
   804be:	d00d      	beq.n	804dc <pio_configure_pin_group+0x54>
   804c0:	e01c      	b.n	804fc <pio_configure_pin_group+0x74>
   804c2:	460a      	mov	r2, r1
   804c4:	4619      	mov	r1, r3
   804c6:	4b0f      	ldr	r3, [pc, #60]	; (80504 <pio_configure_pin_group+0x7c>)
   804c8:	4798      	blx	r3
   804ca:	07f0      	lsls	r0, r6, #31
   804cc:	bf4c      	ite	mi
   804ce:	6665      	strmi	r5, [r4, #100]	; 0x64
   804d0:	6625      	strpl	r5, [r4, #96]	; 0x60
   804d2:	e001      	b.n	804d8 <pio_configure_pin_group+0x50>
   804d4:	4b0c      	ldr	r3, [pc, #48]	; (80508 <pio_configure_pin_group+0x80>)
   804d6:	4798      	blx	r3
   804d8:	2001      	movs	r0, #1
   804da:	e010      	b.n	804fe <pio_configure_pin_group+0x76>
   804dc:	f006 5260 	and.w	r2, r6, #939524096	; 0x38000000
   804e0:	f102 4148 	add.w	r1, r2, #3355443200	; 0xc8000000
   804e4:	f006 0301 	and.w	r3, r6, #1
   804e8:	424a      	negs	r2, r1
   804ea:	9300      	str	r3, [sp, #0]
   804ec:	414a      	adcs	r2, r1
   804ee:	4620      	mov	r0, r4
   804f0:	f3c6 0380 	ubfx	r3, r6, #2, #1
   804f4:	4629      	mov	r1, r5
   804f6:	4c05      	ldr	r4, [pc, #20]	; (8050c <pio_configure_pin_group+0x84>)
   804f8:	47a0      	blx	r4
   804fa:	e7ed      	b.n	804d8 <pio_configure_pin_group+0x50>
   804fc:	2000      	movs	r0, #0
   804fe:	b002      	add	sp, #8
   80500:	bd70      	pop	{r4, r5, r6, pc}
   80502:	bf00      	nop
   80504:	00080335 	.word	0x00080335
   80508:	00080371 	.word	0x00080371
   8050c:	0008039d 	.word	0x0008039d

00080510 <pmc_switch_mck_to_pllack>:
   80510:	4b0f      	ldr	r3, [pc, #60]	; (80550 <pmc_switch_mck_to_pllack+0x40>)
   80512:	6b1a      	ldr	r2, [r3, #48]	; 0x30
   80514:	f022 0270 	bic.w	r2, r2, #112	; 0x70
   80518:	4310      	orrs	r0, r2
   8051a:	f640 0201 	movw	r2, #2049	; 0x801
   8051e:	6318      	str	r0, [r3, #48]	; 0x30
   80520:	6e98      	ldr	r0, [r3, #104]	; 0x68
   80522:	490b      	ldr	r1, [pc, #44]	; (80550 <pmc_switch_mck_to_pllack+0x40>)
   80524:	0700      	lsls	r0, r0, #28
   80526:	d403      	bmi.n	80530 <pmc_switch_mck_to_pllack+0x20>
   80528:	3a01      	subs	r2, #1
   8052a:	d1f9      	bne.n	80520 <pmc_switch_mck_to_pllack+0x10>
   8052c:	2001      	movs	r0, #1
   8052e:	4770      	bx	lr
   80530:	6b0a      	ldr	r2, [r1, #48]	; 0x30
   80532:	f022 0203 	bic.w	r2, r2, #3
   80536:	f042 0202 	orr.w	r2, r2, #2
   8053a:	630a      	str	r2, [r1, #48]	; 0x30
   8053c:	f640 0201 	movw	r2, #2049	; 0x801
   80540:	6e99      	ldr	r1, [r3, #104]	; 0x68
   80542:	0709      	lsls	r1, r1, #28
   80544:	d402      	bmi.n	8054c <pmc_switch_mck_to_pllack+0x3c>
   80546:	3a01      	subs	r2, #1
   80548:	d1fa      	bne.n	80540 <pmc_switch_mck_to_pllack+0x30>
   8054a:	e7ef      	b.n	8052c <pmc_switch_mck_to_pllack+0x1c>
   8054c:	2000      	movs	r0, #0
   8054e:	4770      	bx	lr
   80550:	400e0600 	.word	0x400e0600

00080554 <pmc_switch_mainck_to_xtal>:
   80554:	b510      	push	{r4, lr}
   80556:	4c10      	ldr	r4, [pc, #64]	; (80598 <pmc_switch_mainck_to_xtal+0x44>)
   80558:	b130      	cbz	r0, 80568 <pmc_switch_mainck_to_xtal+0x14>
   8055a:	6a23      	ldr	r3, [r4, #32]
   8055c:	4a0f      	ldr	r2, [pc, #60]	; (8059c <pmc_switch_mainck_to_xtal+0x48>)
   8055e:	401a      	ands	r2, r3
   80560:	4b0f      	ldr	r3, [pc, #60]	; (805a0 <pmc_switch_mainck_to_xtal+0x4c>)
   80562:	4313      	orrs	r3, r2
   80564:	6223      	str	r3, [r4, #32]
   80566:	bd10      	pop	{r4, pc}
   80568:	6a22      	ldr	r2, [r4, #32]
   8056a:	0209      	lsls	r1, r1, #8
   8056c:	f422 135c 	bic.w	r3, r2, #3604480	; 0x370000
   80570:	f023 0303 	bic.w	r3, r3, #3
   80574:	f443 135c 	orr.w	r3, r3, #3604480	; 0x370000
   80578:	b289      	uxth	r1, r1
   8057a:	f043 0301 	orr.w	r3, r3, #1
   8057e:	430b      	orrs	r3, r1
   80580:	6223      	str	r3, [r4, #32]
   80582:	6ea3      	ldr	r3, [r4, #104]	; 0x68
   80584:	4a04      	ldr	r2, [pc, #16]	; (80598 <pmc_switch_mainck_to_xtal+0x44>)
   80586:	07db      	lsls	r3, r3, #31
   80588:	d5fb      	bpl.n	80582 <pmc_switch_mainck_to_xtal+0x2e>
   8058a:	6a13      	ldr	r3, [r2, #32]
   8058c:	f043 739b 	orr.w	r3, r3, #20316160	; 0x1360000
   80590:	f443 3380 	orr.w	r3, r3, #65536	; 0x10000
   80594:	6213      	str	r3, [r2, #32]
   80596:	bd10      	pop	{r4, pc}
   80598:	400e0600 	.word	0x400e0600
   8059c:	fec8fffc 	.word	0xfec8fffc
   805a0:	01370002 	.word	0x01370002

000805a4 <pmc_osc_is_ready_mainck>:
   805a4:	4b02      	ldr	r3, [pc, #8]	; (805b0 <pmc_osc_is_ready_mainck+0xc>)
   805a6:	6e98      	ldr	r0, [r3, #104]	; 0x68
   805a8:	f400 3080 	and.w	r0, r0, #65536	; 0x10000
   805ac:	4770      	bx	lr
   805ae:	bf00      	nop
   805b0:	400e0600 	.word	0x400e0600

000805b4 <pmc_disable_pllack>:
   805b4:	4b02      	ldr	r3, [pc, #8]	; (805c0 <pmc_disable_pllack+0xc>)
   805b6:	f04f 5200 	mov.w	r2, #536870912	; 0x20000000
   805ba:	629a      	str	r2, [r3, #40]	; 0x28
   805bc:	4770      	bx	lr
   805be:	bf00      	nop
   805c0:	400e0600 	.word	0x400e0600

000805c4 <pmc_is_locked_pllack>:
   805c4:	4b02      	ldr	r3, [pc, #8]	; (805d0 <pmc_is_locked_pllack+0xc>)
   805c6:	6e98      	ldr	r0, [r3, #104]	; 0x68
   805c8:	f000 0002 	and.w	r0, r0, #2
   805cc:	4770      	bx	lr
   805ce:	bf00      	nop
   805d0:	400e0600 	.word	0x400e0600

000805d4 <pmc_enable_periph_clk>:
   805d4:	282c      	cmp	r0, #44	; 0x2c
   805d6:	d817      	bhi.n	80608 <pmc_enable_periph_clk+0x34>
   805d8:	281f      	cmp	r0, #31
   805da:	4a0d      	ldr	r2, [pc, #52]	; (80610 <pmc_enable_periph_clk+0x3c>)
   805dc:	f04f 0301 	mov.w	r3, #1
   805e0:	d807      	bhi.n	805f2 <pmc_enable_periph_clk+0x1e>
   805e2:	6991      	ldr	r1, [r2, #24]
   805e4:	fa03 f000 	lsl.w	r0, r3, r0
   805e8:	ea30 0301 	bics.w	r3, r0, r1
   805ec:	d00e      	beq.n	8060c <pmc_enable_periph_clk+0x38>
   805ee:	6110      	str	r0, [r2, #16]
   805f0:	e00c      	b.n	8060c <pmc_enable_periph_clk+0x38>
   805f2:	3820      	subs	r0, #32
   805f4:	f8d2 1108 	ldr.w	r1, [r2, #264]	; 0x108
   805f8:	fa03 f000 	lsl.w	r0, r3, r0
   805fc:	ea30 0301 	bics.w	r3, r0, r1
   80600:	d004      	beq.n	8060c <pmc_enable_periph_clk+0x38>
   80602:	f8c2 0100 	str.w	r0, [r2, #256]	; 0x100
   80606:	e001      	b.n	8060c <pmc_enable_periph_clk+0x38>
   80608:	2001      	movs	r0, #1
   8060a:	4770      	bx	lr
   8060c:	2000      	movs	r0, #0
   8060e:	4770      	bx	lr
   80610:	400e0600 	.word	0x400e0600

00080614 <tc_init>:
   80614:	b510      	push	{r4, lr}
   80616:	0189      	lsls	r1, r1, #6
   80618:	2402      	movs	r4, #2
   8061a:	1843      	adds	r3, r0, r1
   8061c:	5044      	str	r4, [r0, r1]
   8061e:	f04f 31ff 	mov.w	r1, #4294967295
   80622:	6299      	str	r1, [r3, #40]	; 0x28
   80624:	6a19      	ldr	r1, [r3, #32]
   80626:	605a      	str	r2, [r3, #4]
   80628:	bd10      	pop	{r4, pc}

0008062a <tc_start>:
   8062a:	0189      	lsls	r1, r1, #6
   8062c:	2305      	movs	r3, #5
   8062e:	5043      	str	r3, [r0, r1]
   80630:	4770      	bx	lr

00080632 <tc_write_ra>:
   80632:	eb00 1181 	add.w	r1, r0, r1, lsl #6
   80636:	614a      	str	r2, [r1, #20]
   80638:	4770      	bx	lr

0008063a <tc_write_rc>:
   8063a:	eb00 1181 	add.w	r1, r0, r1, lsl #6
   8063e:	61ca      	str	r2, [r1, #28]
   80640:	4770      	bx	lr

00080642 <tc_enable_interrupt>:
   80642:	eb00 1181 	add.w	r1, r0, r1, lsl #6
   80646:	624a      	str	r2, [r1, #36]	; 0x24
   80648:	4770      	bx	lr
	...

0008064c <twi_set_speed>:
   8064c:	4b20      	ldr	r3, [pc, #128]	; (806d0 <twi_set_speed+0x84>)
   8064e:	b510      	push	{r4, lr}
   80650:	4299      	cmp	r1, r3
   80652:	d83b      	bhi.n	806cc <twi_set_speed+0x80>
   80654:	f5a3 537a 	sub.w	r3, r3, #16000	; 0x3e80
   80658:	4299      	cmp	r1, r3
   8065a:	d920      	bls.n	8069e <twi_set_speed+0x52>
   8065c:	4b1d      	ldr	r3, [pc, #116]	; (806d4 <twi_set_speed+0x88>)
   8065e:	4c1e      	ldr	r4, [pc, #120]	; (806d8 <twi_set_speed+0x8c>)
   80660:	440b      	add	r3, r1
   80662:	009b      	lsls	r3, r3, #2
   80664:	fbb2 f4f4 	udiv	r4, r2, r4
   80668:	fbb2 f2f3 	udiv	r2, r2, r3
   8066c:	3c04      	subs	r4, #4
   8066e:	3a04      	subs	r2, #4
   80670:	2300      	movs	r3, #0
   80672:	2cff      	cmp	r4, #255	; 0xff
   80674:	d908      	bls.n	80688 <twi_set_speed+0x3c>
   80676:	2b07      	cmp	r3, #7
   80678:	d006      	beq.n	80688 <twi_set_speed+0x3c>
   8067a:	3301      	adds	r3, #1
   8067c:	0864      	lsrs	r4, r4, #1
   8067e:	e7f8      	b.n	80672 <twi_set_speed+0x26>
   80680:	2b07      	cmp	r3, #7
   80682:	d003      	beq.n	8068c <twi_set_speed+0x40>
   80684:	3301      	adds	r3, #1
   80686:	0852      	lsrs	r2, r2, #1
   80688:	2aff      	cmp	r2, #255	; 0xff
   8068a:	d8f9      	bhi.n	80680 <twi_set_speed+0x34>
   8068c:	0212      	lsls	r2, r2, #8
   8068e:	041b      	lsls	r3, r3, #16
   80690:	b292      	uxth	r2, r2
   80692:	f403 23e0 	and.w	r3, r3, #458752	; 0x70000
   80696:	431a      	orrs	r2, r3
   80698:	b2e4      	uxtb	r4, r4
   8069a:	4322      	orrs	r2, r4
   8069c:	e013      	b.n	806c6 <twi_set_speed+0x7a>
   8069e:	0049      	lsls	r1, r1, #1
   806a0:	fbb2 f2f1 	udiv	r2, r2, r1
   806a4:	2300      	movs	r3, #0
   806a6:	3a04      	subs	r2, #4
   806a8:	2aff      	cmp	r2, #255	; 0xff
   806aa:	d904      	bls.n	806b6 <twi_set_speed+0x6a>
   806ac:	2b07      	cmp	r3, #7
   806ae:	d002      	beq.n	806b6 <twi_set_speed+0x6a>
   806b0:	3301      	adds	r3, #1
   806b2:	0852      	lsrs	r2, r2, #1
   806b4:	e7f8      	b.n	806a8 <twi_set_speed+0x5c>
   806b6:	0211      	lsls	r1, r2, #8
   806b8:	041b      	lsls	r3, r3, #16
   806ba:	b289      	uxth	r1, r1
   806bc:	f403 23e0 	and.w	r3, r3, #458752	; 0x70000
   806c0:	430b      	orrs	r3, r1
   806c2:	b2d2      	uxtb	r2, r2
   806c4:	431a      	orrs	r2, r3
   806c6:	6102      	str	r2, [r0, #16]
   806c8:	2000      	movs	r0, #0
   806ca:	bd10      	pop	{r4, pc}
   806cc:	2001      	movs	r0, #1
   806ce:	bd10      	pop	{r4, pc}
   806d0:	00061a80 	.word	0x00061a80
   806d4:	3ffd1200 	.word	0x3ffd1200
   806d8:	000bb800 	.word	0x000bb800

000806dc <twi_master_init>:
   806dc:	b538      	push	{r3, r4, r5, lr}
   806de:	f04f 33ff 	mov.w	r3, #4294967295
   806e2:	6283      	str	r3, [r0, #40]	; 0x28
   806e4:	6a03      	ldr	r3, [r0, #32]
   806e6:	2380      	movs	r3, #128	; 0x80
   806e8:	6003      	str	r3, [r0, #0]
   806ea:	6b03      	ldr	r3, [r0, #48]	; 0x30
   806ec:	2308      	movs	r3, #8
   806ee:	6003      	str	r3, [r0, #0]
   806f0:	2320      	movs	r3, #32
   806f2:	6003      	str	r3, [r0, #0]
   806f4:	2304      	movs	r3, #4
   806f6:	6003      	str	r3, [r0, #0]
   806f8:	460d      	mov	r5, r1
   806fa:	680a      	ldr	r2, [r1, #0]
   806fc:	4b06      	ldr	r3, [pc, #24]	; (80718 <twi_master_init+0x3c>)
   806fe:	6849      	ldr	r1, [r1, #4]
   80700:	4604      	mov	r4, r0
   80702:	4798      	blx	r3
   80704:	1e43      	subs	r3, r0, #1
   80706:	4258      	negs	r0, r3
   80708:	4158      	adcs	r0, r3
   8070a:	7a6b      	ldrb	r3, [r5, #9]
   8070c:	2b01      	cmp	r3, #1
   8070e:	bf04      	itt	eq
   80710:	2340      	moveq	r3, #64	; 0x40
   80712:	6023      	streq	r3, [r4, #0]
   80714:	bd38      	pop	{r3, r4, r5, pc}
   80716:	bf00      	nop
   80718:	0008064d 	.word	0x0008064d

0008071c <twi_mk_addr>:
   8071c:	b159      	cbz	r1, 80736 <twi_mk_addr+0x1a>
   8071e:	2901      	cmp	r1, #1
   80720:	7803      	ldrb	r3, [r0, #0]
   80722:	dd0a      	ble.n	8073a <twi_mk_addr+0x1e>
   80724:	7842      	ldrb	r2, [r0, #1]
   80726:	2902      	cmp	r1, #2
   80728:	ea42 2303 	orr.w	r3, r2, r3, lsl #8
   8072c:	d005      	beq.n	8073a <twi_mk_addr+0x1e>
   8072e:	7880      	ldrb	r0, [r0, #2]
   80730:	ea40 2003 	orr.w	r0, r0, r3, lsl #8
   80734:	4770      	bx	lr
   80736:	4608      	mov	r0, r1
   80738:	4770      	bx	lr
   8073a:	4618      	mov	r0, r3
   8073c:	4770      	bx	lr
	...

00080740 <twi_master_read>:
   80740:	b5f8      	push	{r3, r4, r5, r6, r7, lr}
   80742:	68cd      	ldr	r5, [r1, #12]
   80744:	4604      	mov	r4, r0
   80746:	4608      	mov	r0, r1
   80748:	2d00      	cmp	r5, #0
   8074a:	d03e      	beq.n	807ca <twi_master_read+0x8a>
   8074c:	2600      	movs	r6, #0
   8074e:	688f      	ldr	r7, [r1, #8]
   80750:	6066      	str	r6, [r4, #4]
   80752:	684b      	ldr	r3, [r1, #4]
   80754:	021b      	lsls	r3, r3, #8
   80756:	f403 7340 	and.w	r3, r3, #768	; 0x300
   8075a:	f443 5280 	orr.w	r2, r3, #4096	; 0x1000
   8075e:	7c0b      	ldrb	r3, [r1, #16]
   80760:	041b      	lsls	r3, r3, #16
   80762:	f403 03fe 	and.w	r3, r3, #8323072	; 0x7f0000
   80766:	4313      	orrs	r3, r2
   80768:	6063      	str	r3, [r4, #4]
   8076a:	60e6      	str	r6, [r4, #12]
   8076c:	6849      	ldr	r1, [r1, #4]
   8076e:	4b1a      	ldr	r3, [pc, #104]	; (807d8 <twi_master_read+0x98>)
   80770:	4798      	blx	r3
   80772:	2d01      	cmp	r5, #1
   80774:	60e0      	str	r0, [r4, #12]
   80776:	d106      	bne.n	80786 <twi_master_read+0x46>
   80778:	2303      	movs	r3, #3
   8077a:	6023      	str	r3, [r4, #0]
   8077c:	462b      	mov	r3, r5
   8077e:	f643 2298 	movw	r2, #15000	; 0x3a98
   80782:	2602      	movs	r6, #2
   80784:	e013      	b.n	807ae <twi_master_read+0x6e>
   80786:	2301      	movs	r3, #1
   80788:	6023      	str	r3, [r4, #0]
   8078a:	4633      	mov	r3, r6
   8078c:	e7f7      	b.n	8077e <twi_master_read+0x3e>
   8078e:	b302      	cbz	r2, 807d2 <twi_master_read+0x92>
   80790:	2d01      	cmp	r5, #1
   80792:	d011      	beq.n	807b8 <twi_master_read+0x78>
   80794:	0789      	lsls	r1, r1, #30
   80796:	bf43      	ittte	mi
   80798:	6b22      	ldrmi	r2, [r4, #48]	; 0x30
   8079a:	f105 35ff 	addmi.w	r5, r5, #4294967295
   8079e:	703a      	strbmi	r2, [r7, #0]
   807a0:	f102 32ff 	addpl.w	r2, r2, #4294967295
   807a4:	bf44      	itt	mi
   807a6:	3701      	addmi	r7, #1
   807a8:	f643 2298 	movwmi	r2, #15000	; 0x3a98
   807ac:	b145      	cbz	r5, 807c0 <twi_master_read+0x80>
   807ae:	6a21      	ldr	r1, [r4, #32]
   807b0:	f411 7080 	ands.w	r0, r1, #256	; 0x100
   807b4:	d0eb      	beq.n	8078e <twi_master_read+0x4e>
   807b6:	e00a      	b.n	807ce <twi_master_read+0x8e>
   807b8:	b903      	cbnz	r3, 807bc <twi_master_read+0x7c>
   807ba:	6026      	str	r6, [r4, #0]
   807bc:	462b      	mov	r3, r5
   807be:	e7e9      	b.n	80794 <twi_master_read+0x54>
   807c0:	6a23      	ldr	r3, [r4, #32]
   807c2:	07db      	lsls	r3, r3, #31
   807c4:	d5fc      	bpl.n	807c0 <twi_master_read+0x80>
   807c6:	6a23      	ldr	r3, [r4, #32]
   807c8:	bdf8      	pop	{r3, r4, r5, r6, r7, pc}
   807ca:	2001      	movs	r0, #1
   807cc:	bdf8      	pop	{r3, r4, r5, r6, r7, pc}
   807ce:	2005      	movs	r0, #5
   807d0:	bdf8      	pop	{r3, r4, r5, r6, r7, pc}
   807d2:	2009      	movs	r0, #9
   807d4:	bdf8      	pop	{r3, r4, r5, r6, r7, pc}
   807d6:	bf00      	nop
   807d8:	0008071d 	.word	0x0008071d

000807dc <Dummy_Handler>:
   807dc:	e7fe      	b.n	807dc <Dummy_Handler>
	...

000807e0 <Reset_Handler>:
   807e0:	b508      	push	{r3, lr}
   807e2:	4a16      	ldr	r2, [pc, #88]	; (8083c <Reset_Handler+0x5c>)
   807e4:	4b16      	ldr	r3, [pc, #88]	; (80840 <Reset_Handler+0x60>)
   807e6:	429a      	cmp	r2, r3
   807e8:	d002      	beq.n	807f0 <Reset_Handler+0x10>
   807ea:	3a04      	subs	r2, #4
   807ec:	4915      	ldr	r1, [pc, #84]	; (80844 <Reset_Handler+0x64>)
   807ee:	e003      	b.n	807f8 <Reset_Handler+0x18>
   807f0:	4b15      	ldr	r3, [pc, #84]	; (80848 <Reset_Handler+0x68>)
   807f2:	4a16      	ldr	r2, [pc, #88]	; (8084c <Reset_Handler+0x6c>)
   807f4:	2100      	movs	r1, #0
   807f6:	e006      	b.n	80806 <Reset_Handler+0x26>
   807f8:	428b      	cmp	r3, r1
   807fa:	d2f9      	bcs.n	807f0 <Reset_Handler+0x10>
   807fc:	f852 0f04 	ldr.w	r0, [r2, #4]!
   80800:	f843 0b04 	str.w	r0, [r3], #4
   80804:	e7f8      	b.n	807f8 <Reset_Handler+0x18>
   80806:	4293      	cmp	r3, r2
   80808:	d202      	bcs.n	80810 <Reset_Handler+0x30>
   8080a:	f843 1b04 	str.w	r1, [r3], #4
   8080e:	e7fa      	b.n	80806 <Reset_Handler+0x26>
   80810:	4b0f      	ldr	r3, [pc, #60]	; (80850 <Reset_Handler+0x70>)
   80812:	4a10      	ldr	r2, [pc, #64]	; (80854 <Reset_Handler+0x74>)
   80814:	f023 4160 	bic.w	r1, r3, #3758096384	; 0xe0000000
   80818:	f021 017f 	bic.w	r1, r1, #127	; 0x7f
   8081c:	f103 4360 	add.w	r3, r3, #3758096384	; 0xe0000000
   80820:	f5b3 1f80 	cmp.w	r3, #1048576	; 0x100000
   80824:	6091      	str	r1, [r2, #8]
   80826:	bf3e      	ittt	cc
   80828:	6893      	ldrcc	r3, [r2, #8]
   8082a:	f043 5300 	orrcc.w	r3, r3, #536870912	; 0x20000000
   8082e:	6093      	strcc	r3, [r2, #8]
   80830:	4b09      	ldr	r3, [pc, #36]	; (80858 <Reset_Handler+0x78>)
   80832:	4798      	blx	r3
   80834:	4b09      	ldr	r3, [pc, #36]	; (8085c <Reset_Handler+0x7c>)
   80836:	4798      	blx	r3
   80838:	e7fe      	b.n	80838 <Reset_Handler+0x58>
   8083a:	bf00      	nop
   8083c:	000821bc 	.word	0x000821bc
   80840:	20070000 	.word	0x20070000
   80844:	2007092c 	.word	0x2007092c
   80848:	2007092c 	.word	0x2007092c
   8084c:	200723fc 	.word	0x200723fc
   80850:	00080000 	.word	0x00080000
   80854:	e000ed00 	.word	0xe000ed00
   80858:	0008182d 	.word	0x0008182d
   8085c:	00081609 	.word	0x00081609

00080860 <SystemCoreClockUpdate>:
   80860:	b510      	push	{r4, lr}
   80862:	4a2c      	ldr	r2, [pc, #176]	; (80914 <SystemCoreClockUpdate+0xb4>)
   80864:	6b13      	ldr	r3, [r2, #48]	; 0x30
   80866:	f003 0303 	and.w	r3, r3, #3
   8086a:	2b01      	cmp	r3, #1
   8086c:	4b2a      	ldr	r3, [pc, #168]	; (80918 <SystemCoreClockUpdate+0xb8>)
   8086e:	d00d      	beq.n	8088c <SystemCoreClockUpdate+0x2c>
   80870:	d303      	bcc.n	8087a <SystemCoreClockUpdate+0x1a>
   80872:	6a11      	ldr	r1, [r2, #32]
   80874:	01cc      	lsls	r4, r1, #7
   80876:	d51a      	bpl.n	808ae <SystemCoreClockUpdate+0x4e>
   80878:	e025      	b.n	808c6 <SystemCoreClockUpdate+0x66>
   8087a:	4928      	ldr	r1, [pc, #160]	; (8091c <SystemCoreClockUpdate+0xbc>)
   8087c:	6949      	ldr	r1, [r1, #20]
   8087e:	0608      	lsls	r0, r1, #24
   80880:	bf4c      	ite	mi
   80882:	f44f 4100 	movmi.w	r1, #32768	; 0x8000
   80886:	f44f 41fa 	movpl.w	r1, #32000	; 0x7d00
   8088a:	e030      	b.n	808ee <SystemCoreClockUpdate+0x8e>
   8088c:	6a11      	ldr	r1, [r2, #32]
   8088e:	01c9      	lsls	r1, r1, #7
   80890:	d40b      	bmi.n	808aa <SystemCoreClockUpdate+0x4a>
   80892:	4923      	ldr	r1, [pc, #140]	; (80920 <SystemCoreClockUpdate+0xc0>)
   80894:	6019      	str	r1, [r3, #0]
   80896:	6a11      	ldr	r1, [r2, #32]
   80898:	f001 0170 	and.w	r1, r1, #112	; 0x70
   8089c:	2910      	cmp	r1, #16
   8089e:	d002      	beq.n	808a6 <SystemCoreClockUpdate+0x46>
   808a0:	2920      	cmp	r1, #32
   808a2:	d002      	beq.n	808aa <SystemCoreClockUpdate+0x4a>
   808a4:	e024      	b.n	808f0 <SystemCoreClockUpdate+0x90>
   808a6:	491f      	ldr	r1, [pc, #124]	; (80924 <SystemCoreClockUpdate+0xc4>)
   808a8:	e021      	b.n	808ee <SystemCoreClockUpdate+0x8e>
   808aa:	491f      	ldr	r1, [pc, #124]	; (80928 <SystemCoreClockUpdate+0xc8>)
   808ac:	e01f      	b.n	808ee <SystemCoreClockUpdate+0x8e>
   808ae:	491c      	ldr	r1, [pc, #112]	; (80920 <SystemCoreClockUpdate+0xc0>)
   808b0:	6019      	str	r1, [r3, #0]
   808b2:	6a11      	ldr	r1, [r2, #32]
   808b4:	f001 0170 	and.w	r1, r1, #112	; 0x70
   808b8:	2910      	cmp	r1, #16
   808ba:	d002      	beq.n	808c2 <SystemCoreClockUpdate+0x62>
   808bc:	2920      	cmp	r1, #32
   808be:	d002      	beq.n	808c6 <SystemCoreClockUpdate+0x66>
   808c0:	e003      	b.n	808ca <SystemCoreClockUpdate+0x6a>
   808c2:	4918      	ldr	r1, [pc, #96]	; (80924 <SystemCoreClockUpdate+0xc4>)
   808c4:	e000      	b.n	808c8 <SystemCoreClockUpdate+0x68>
   808c6:	4918      	ldr	r1, [pc, #96]	; (80928 <SystemCoreClockUpdate+0xc8>)
   808c8:	6019      	str	r1, [r3, #0]
   808ca:	6b11      	ldr	r1, [r2, #48]	; 0x30
   808cc:	4811      	ldr	r0, [pc, #68]	; (80914 <SystemCoreClockUpdate+0xb4>)
   808ce:	f001 0103 	and.w	r1, r1, #3
   808d2:	2902      	cmp	r1, #2
   808d4:	bf01      	itttt	eq
   808d6:	6a81      	ldreq	r1, [r0, #40]	; 0x28
   808d8:	6a80      	ldreq	r0, [r0, #40]	; 0x28
   808da:	f3c1 440a 	ubfxeq	r4, r1, #16, #11
   808de:	6819      	ldreq	r1, [r3, #0]
   808e0:	bf03      	ittte	eq
   808e2:	b2c0      	uxtbeq	r0, r0
   808e4:	fb04 1101 	mlaeq	r1, r4, r1, r1
   808e8:	fbb1 f1f0 	udiveq	r1, r1, r0
   808ec:	490f      	ldrne	r1, [pc, #60]	; (8092c <SystemCoreClockUpdate+0xcc>)
   808ee:	6019      	str	r1, [r3, #0]
   808f0:	6b12      	ldr	r2, [r2, #48]	; 0x30
   808f2:	f002 0270 	and.w	r2, r2, #112	; 0x70
   808f6:	2a70      	cmp	r2, #112	; 0x70
   808f8:	bf03      	ittte	eq
   808fa:	681a      	ldreq	r2, [r3, #0]
   808fc:	2103      	moveq	r1, #3
   808fe:	fbb2 f2f1 	udiveq	r2, r2, r1
   80902:	4a04      	ldrne	r2, [pc, #16]	; (80914 <SystemCoreClockUpdate+0xb4>)
   80904:	bf1f      	itttt	ne
   80906:	6b12      	ldrne	r2, [r2, #48]	; 0x30
   80908:	f3c2 1102 	ubfxne	r1, r2, #4, #3
   8090c:	681a      	ldrne	r2, [r3, #0]
   8090e:	40ca      	lsrne	r2, r1
   80910:	601a      	str	r2, [r3, #0]
   80912:	bd10      	pop	{r4, pc}
   80914:	400e0600 	.word	0x400e0600
   80918:	200700ec 	.word	0x200700ec
   8091c:	400e1a10 	.word	0x400e1a10
   80920:	003d0900 	.word	0x003d0900
   80924:	007a1200 	.word	0x007a1200
   80928:	00b71b00 	.word	0x00b71b00
   8092c:	0e4e1c00 	.word	0x0e4e1c00

00080930 <_sbrk>:
   80930:	4b07      	ldr	r3, [pc, #28]	; (80950 <_sbrk+0x20>)
   80932:	681a      	ldr	r2, [r3, #0]
   80934:	b90a      	cbnz	r2, 8093a <_sbrk+0xa>
   80936:	4a07      	ldr	r2, [pc, #28]	; (80954 <_sbrk+0x24>)
   80938:	601a      	str	r2, [r3, #0]
   8093a:	681b      	ldr	r3, [r3, #0]
   8093c:	4a06      	ldr	r2, [pc, #24]	; (80958 <_sbrk+0x28>)
   8093e:	4418      	add	r0, r3
   80940:	4282      	cmp	r2, r0
   80942:	bfa3      	ittte	ge
   80944:	4a02      	ldrge	r2, [pc, #8]	; (80950 <_sbrk+0x20>)
   80946:	6010      	strge	r0, [r2, #0]
   80948:	4618      	movge	r0, r3
   8094a:	f04f 30ff 	movlt.w	r0, #4294967295
   8094e:	4770      	bx	lr
   80950:	20070948 	.word	0x20070948
   80954:	20074400 	.word	0x20074400
   80958:	20087ffc 	.word	0x20087ffc

0008095c <adc_initialize>:
   8095c:	b5f8      	push	{r3, r4, r5, r6, r7, lr}
   8095e:	2025      	movs	r0, #37	; 0x25
   80960:	4b18      	ldr	r3, [pc, #96]	; (809c4 <adc_initialize+0x68>)
   80962:	4798      	blx	r3
   80964:	4c18      	ldr	r4, [pc, #96]	; (809c8 <adc_initialize+0x6c>)
   80966:	f44f 2380 	mov.w	r3, #262144	; 0x40000
   8096a:	4a18      	ldr	r2, [pc, #96]	; (809cc <adc_initialize+0x70>)
   8096c:	4918      	ldr	r1, [pc, #96]	; (809d0 <adc_initialize+0x74>)
   8096e:	4819      	ldr	r0, [pc, #100]	; (809d4 <adc_initialize+0x78>)
   80970:	47a0      	blx	r4
   80972:	2301      	movs	r3, #1
   80974:	f44f 1240 	mov.w	r2, #3145728	; 0x300000
   80978:	4619      	mov	r1, r3
   8097a:	4816      	ldr	r0, [pc, #88]	; (809d4 <adc_initialize+0x78>)
   8097c:	4c16      	ldr	r4, [pc, #88]	; (809d8 <adc_initialize+0x7c>)
   8097e:	47a0      	blx	r4
   80980:	2110      	movs	r1, #16
   80982:	4814      	ldr	r0, [pc, #80]	; (809d4 <adc_initialize+0x78>)
   80984:	4b15      	ldr	r3, [pc, #84]	; (809dc <adc_initialize+0x80>)
   80986:	4798      	blx	r3
   80988:	2200      	movs	r2, #0
   8098a:	4611      	mov	r1, r2
   8098c:	4811      	ldr	r0, [pc, #68]	; (809d4 <adc_initialize+0x78>)
   8098e:	4b14      	ldr	r3, [pc, #80]	; (809e0 <adc_initialize+0x84>)
   80990:	4798      	blx	r3
   80992:	4b14      	ldr	r3, [pc, #80]	; (809e4 <adc_initialize+0x88>)
   80994:	480f      	ldr	r0, [pc, #60]	; (809d4 <adc_initialize+0x78>)
   80996:	4798      	blx	r3
   80998:	2300      	movs	r3, #0
   8099a:	461a      	mov	r2, r3
   8099c:	4f12      	ldr	r7, [pc, #72]	; (809e8 <adc_initialize+0x8c>)
   8099e:	4c13      	ldr	r4, [pc, #76]	; (809ec <adc_initialize+0x90>)
   809a0:	4d13      	ldr	r5, [pc, #76]	; (809f0 <adc_initialize+0x94>)
   809a2:	2606      	movs	r6, #6
   809a4:	fb06 f003 	mul.w	r0, r6, r3
   809a8:	2b06      	cmp	r3, #6
   809aa:	eb04 0100 	add.w	r1, r4, r0
   809ae:	bf98      	it	ls
   809b0:	54fa      	strbls	r2, [r7, r3]
   809b2:	5222      	strh	r2, [r4, r0]
   809b4:	804a      	strh	r2, [r1, #2]
   809b6:	808a      	strh	r2, [r1, #4]
   809b8:	54ea      	strb	r2, [r5, r3]
   809ba:	3301      	adds	r3, #1
   809bc:	2b0f      	cmp	r3, #15
   809be:	d1f1      	bne.n	809a4 <adc_initialize+0x48>
   809c0:	bdf8      	pop	{r3, r4, r5, r6, r7, pc}
   809c2:	bf00      	nop
   809c4:	000805d5 	.word	0x000805d5
   809c8:	000801c1 	.word	0x000801c1
   809cc:	000f4240 	.word	0x000f4240
   809d0:	0a037a00 	.word	0x0a037a00
   809d4:	400c0000 	.word	0x400c0000
   809d8:	00080211 	.word	0x00080211
   809dc:	000801f3 	.word	0x000801f3
   809e0:	00080203 	.word	0x00080203
   809e4:	0008023b 	.word	0x0008023b
   809e8:	20071f31 	.word	0x20071f31
   809ec:	20071a24 	.word	0x20071a24
   809f0:	20071a95 	.word	0x20071a95

000809f4 <adc_turn_on_multiple_channels>:
   809f4:	e92d 47f0 	stmdb	sp!, {r4, r5, r6, r7, r8, r9, sl, lr}
   809f8:	460f      	mov	r7, r1
   809fa:	4616      	mov	r6, r2
   809fc:	f8df 9044 	ldr.w	r9, [pc, #68]	; 80a44 <adc_turn_on_multiple_channels+0x50>
   80a00:	f8df 8044 	ldr.w	r8, [pc, #68]	; 80a48 <adc_turn_on_multiple_channels+0x54>
   80a04:	1e45      	subs	r5, r0, #1
   80a06:	2400      	movs	r4, #0
   80a08:	f815 1f01 	ldrb.w	r1, [r5, #1]!
   80a0c:	480a      	ldr	r0, [pc, #40]	; (80a38 <adc_turn_on_multiple_channels+0x44>)
   80a0e:	47c8      	blx	r9
   80a10:	782b      	ldrb	r3, [r5, #0]
   80a12:	f808 3004 	strb.w	r3, [r8, r4]
   80a16:	3401      	adds	r4, #1
   80a18:	2c07      	cmp	r4, #7
   80a1a:	d1f5      	bne.n	80a08 <adc_turn_on_multiple_channels+0x14>
   80a1c:	b157      	cbz	r7, 80a34 <adc_turn_on_multiple_channels+0x40>
   80a1e:	f04f 7180 	mov.w	r1, #16777216	; 0x1000000
   80a22:	4805      	ldr	r0, [pc, #20]	; (80a38 <adc_turn_on_multiple_channels+0x44>)
   80a24:	4b05      	ldr	r3, [pc, #20]	; (80a3c <adc_turn_on_multiple_channels+0x48>)
   80a26:	4798      	blx	r3
   80a28:	4631      	mov	r1, r6
   80a2a:	e8bd 47f0 	ldmia.w	sp!, {r4, r5, r6, r7, r8, r9, sl, lr}
   80a2e:	2025      	movs	r0, #37	; 0x25
   80a30:	4b03      	ldr	r3, [pc, #12]	; (80a40 <adc_turn_on_multiple_channels+0x4c>)
   80a32:	4718      	bx	r3
   80a34:	e8bd 87f0 	ldmia.w	sp!, {r4, r5, r6, r7, r8, r9, sl, pc}
   80a38:	400c0000 	.word	0x400c0000
   80a3c:	00080245 	.word	0x00080245
   80a40:	00080e81 	.word	0x00080e81
   80a44:	00080231 	.word	0x00080231
   80a48:	20071f31 	.word	0x20071f31

00080a4c <ADC_Handler>:
   80a4c:	b510      	push	{r4, lr}
   80a4e:	4b0e      	ldr	r3, [pc, #56]	; (80a88 <ADC_Handler+0x3c>)
   80a50:	480e      	ldr	r0, [pc, #56]	; (80a8c <ADC_Handler+0x40>)
   80a52:	6a1b      	ldr	r3, [r3, #32]
   80a54:	b29b      	uxth	r3, r3
   80a56:	0b19      	lsrs	r1, r3, #12
   80a58:	5c42      	ldrb	r2, [r0, r1]
   80a5a:	eb01 0441 	add.w	r4, r1, r1, lsl #1
   80a5e:	4422      	add	r2, r4
   80a60:	4c0b      	ldr	r4, [pc, #44]	; (80a90 <ADC_Handler+0x44>)
   80a62:	f3c3 030b 	ubfx	r3, r3, #0, #12
   80a66:	f824 3012 	strh.w	r3, [r4, r2, lsl #1]
   80a6a:	5c43      	ldrb	r3, [r0, r1]
   80a6c:	2203      	movs	r2, #3
   80a6e:	3301      	adds	r3, #1
   80a70:	fb93 f2f2 	sdiv	r2, r3, r2
   80a74:	eb02 0242 	add.w	r2, r2, r2, lsl #1
   80a78:	1a9b      	subs	r3, r3, r2
   80a7a:	b2db      	uxtb	r3, r3
   80a7c:	5443      	strb	r3, [r0, r1]
   80a7e:	4b05      	ldr	r3, [pc, #20]	; (80a94 <ADC_Handler+0x48>)
   80a80:	2201      	movs	r2, #1
   80a82:	701a      	strb	r2, [r3, #0]
   80a84:	bd10      	pop	{r4, pc}
   80a86:	bf00      	nop
   80a88:	400c0000 	.word	0x400c0000
   80a8c:	20071a95 	.word	0x20071a95
   80a90:	20071a24 	.word	0x20071a24
   80a94:	20071f30 	.word	0x20071f30

00080a98 <eeprom_init>:
   80a98:	b51f      	push	{r0, r1, r2, r3, r4, lr}
   80a9a:	4b10      	ldr	r3, [pc, #64]	; (80adc <eeprom_init+0x44>)
   80a9c:	2017      	movs	r0, #23
   80a9e:	4798      	blx	r3
   80aa0:	4b0f      	ldr	r3, [pc, #60]	; (80ae0 <eeprom_init+0x48>)
   80aa2:	f44f 5200 	mov.w	r2, #8192	; 0x2000
   80aa6:	f44f 5180 	mov.w	r1, #4096	; 0x1000
   80aaa:	6459      	str	r1, [r3, #68]	; 0x44
   80aac:	645a      	str	r2, [r3, #68]	; 0x44
   80aae:	6059      	str	r1, [r3, #4]
   80ab0:	605a      	str	r2, [r3, #4]
   80ab2:	6f18      	ldr	r0, [r3, #112]	; 0x70
   80ab4:	f420 5080 	bic.w	r0, r0, #4096	; 0x1000
   80ab8:	6718      	str	r0, [r3, #112]	; 0x70
   80aba:	6f18      	ldr	r0, [r3, #112]	; 0x70
   80abc:	f420 5000 	bic.w	r0, r0, #8192	; 0x2000
   80ac0:	6718      	str	r0, [r3, #112]	; 0x70
   80ac2:	6659      	str	r1, [r3, #100]	; 0x64
   80ac4:	665a      	str	r2, [r3, #100]	; 0x64
   80ac6:	4b07      	ldr	r3, [pc, #28]	; (80ae4 <eeprom_init+0x4c>)
   80ac8:	a901      	add	r1, sp, #4
   80aca:	9301      	str	r3, [sp, #4]
   80acc:	4b06      	ldr	r3, [pc, #24]	; (80ae8 <eeprom_init+0x50>)
   80ace:	4807      	ldr	r0, [pc, #28]	; (80aec <eeprom_init+0x54>)
   80ad0:	9302      	str	r3, [sp, #8]
   80ad2:	4b07      	ldr	r3, [pc, #28]	; (80af0 <eeprom_init+0x58>)
   80ad4:	4798      	blx	r3
   80ad6:	b005      	add	sp, #20
   80ad8:	f85d fb04 	ldr.w	pc, [sp], #4
   80adc:	000805d5 	.word	0x000805d5
   80ae0:	400e1000 	.word	0x400e1000
   80ae4:	0501bd00 	.word	0x0501bd00
   80ae8:	00061a80 	.word	0x00061a80
   80aec:	40090000 	.word	0x40090000
   80af0:	000806dd 	.word	0x000806dd

00080af4 <eeprom_read_byte>:
   80af4:	b5f7      	push	{r0, r1, r2, r4, r5, r6, r7, lr}
   80af6:	4606      	mov	r6, r0
   80af8:	ad02      	add	r5, sp, #8
   80afa:	2300      	movs	r3, #0
   80afc:	4f0e      	ldr	r7, [pc, #56]	; (80b38 <eeprom_read_byte+0x44>)
   80afe:	f805 3d01 	strb.w	r3, [r5, #-1]!
   80b02:	240a      	movs	r4, #10
   80b04:	4629      	mov	r1, r5
   80b06:	4630      	mov	r0, r6
   80b08:	47b8      	blx	r7
   80b0a:	07c3      	lsls	r3, r0, #31
   80b0c:	d402      	bmi.n	80b14 <eeprom_read_byte+0x20>
   80b0e:	f89d 0007 	ldrb.w	r0, [sp, #7]
   80b12:	e00f      	b.n	80b34 <eeprom_read_byte+0x40>
   80b14:	3c01      	subs	r4, #1
   80b16:	f014 04ff 	ands.w	r4, r4, #255	; 0xff
   80b1a:	d1f3      	bne.n	80b04 <eeprom_read_byte+0x10>
   80b1c:	4d07      	ldr	r5, [pc, #28]	; (80b3c <eeprom_read_byte+0x48>)
   80b1e:	2401      	movs	r4, #1
   80b20:	4807      	ldr	r0, [pc, #28]	; (80b40 <eeprom_read_byte+0x4c>)
   80b22:	4b08      	ldr	r3, [pc, #32]	; (80b44 <eeprom_read_byte+0x50>)
   80b24:	77ec      	strb	r4, [r5, #31]
   80b26:	4798      	blx	r3
   80b28:	7fe8      	ldrb	r0, [r5, #31]
   80b2a:	4b07      	ldr	r3, [pc, #28]	; (80b48 <eeprom_read_byte+0x54>)
   80b2c:	4798      	blx	r3
   80b2e:	4b07      	ldr	r3, [pc, #28]	; (80b4c <eeprom_read_byte+0x58>)
   80b30:	4798      	blx	r3
   80b32:	4620      	mov	r0, r4
   80b34:	b003      	add	sp, #12
   80b36:	bdf0      	pop	{r4, r5, r6, r7, pc}
   80b38:	00080151 	.word	0x00080151
   80b3c:	2007156c 	.word	0x2007156c
   80b40:	00082168 	.word	0x00082168
   80b44:	00081549 	.word	0x00081549
   80b48:	000814f9 	.word	0x000814f9
   80b4c:	0008153d 	.word	0x0008153d

00080b50 <cylinder_init>:
   80b50:	e92d 47f3 	stmdb	sp!, {r0, r1, r4, r5, r6, r7, r8, r9, sl, lr}
   80b54:	f8df 8168 	ldr.w	r8, [pc, #360]	; 80cc0 <cylinder_init+0x170>
   80b58:	4f51      	ldr	r7, [pc, #324]	; (80ca0 <cylinder_init+0x150>)
   80b5a:	2500      	movs	r5, #0
   80b5c:	f898 3036 	ldrb.w	r3, [r8, #54]	; 0x36
   80b60:	462e      	mov	r6, r5
   80b62:	ebb5 1f13 	cmp.w	r5, r3, lsr #4
   80b66:	4c4f      	ldr	r4, [pc, #316]	; (80ca4 <cylinder_init+0x154>)
   80b68:	f8df 9154 	ldr.w	r9, [pc, #340]	; 80cc0 <cylinder_init+0x170>
   80b6c:	da3e      	bge.n	80bec <cylinder_init+0x9c>
   80b6e:	2144      	movs	r1, #68	; 0x44
   80b70:	4369      	muls	r1, r5
   80b72:	2200      	movs	r2, #0
   80b74:	1863      	adds	r3, r4, r1
   80b76:	2d02      	cmp	r5, #2
   80b78:	5062      	str	r2, [r4, r1]
   80b7a:	605a      	str	r2, [r3, #4]
   80b7c:	609a      	str	r2, [r3, #8]
   80b7e:	60da      	str	r2, [r3, #12]
   80b80:	741a      	strb	r2, [r3, #16]
   80b82:	745a      	strb	r2, [r3, #17]
   80b84:	621a      	str	r2, [r3, #32]
   80b86:	625a      	str	r2, [r3, #36]	; 0x24
   80b88:	629a      	str	r2, [r3, #40]	; 0x28
   80b8a:	62da      	str	r2, [r3, #44]	; 0x2c
   80b8c:	f883 2030 	strb.w	r2, [r3, #48]	; 0x30
   80b90:	f883 2031 	strb.w	r2, [r3, #49]	; 0x31
   80b94:	619f      	str	r7, [r3, #24]
   80b96:	639f      	str	r7, [r3, #56]	; 0x38
   80b98:	d905      	bls.n	80ba6 <cylinder_init+0x56>
   80b9a:	4a43      	ldr	r2, [pc, #268]	; (80ca8 <cylinder_init+0x158>)
   80b9c:	4b43      	ldr	r3, [pc, #268]	; (80cac <cylinder_init+0x15c>)
   80b9e:	2d05      	cmp	r5, #5
   80ba0:	bf98      	it	ls
   80ba2:	461a      	movls	r2, r3
   80ba4:	e000      	b.n	80ba8 <cylinder_init+0x58>
   80ba6:	4a42      	ldr	r2, [pc, #264]	; (80cb0 <cylinder_init+0x160>)
   80ba8:	2303      	movs	r3, #3
   80baa:	fbb5 f3f3 	udiv	r3, r5, r3
   80bae:	eb03 0343 	add.w	r3, r3, r3, lsl #1
   80bb2:	1aeb      	subs	r3, r5, r3
   80bb4:	b2db      	uxtb	r3, r3
   80bb6:	eb02 1383 	add.w	r3, r2, r3, lsl #6
   80bba:	2244      	movs	r2, #68	; 0x44
   80bbc:	fb02 4405 	mla	r4, r2, r5, r4
   80bc0:	6423      	str	r3, [r4, #64]	; 0x40
   80bc2:	6c23      	ldr	r3, [r4, #64]	; 0x40
   80bc4:	4628      	mov	r0, r5
   80bc6:	3314      	adds	r3, #20
   80bc8:	61e3      	str	r3, [r4, #28]
   80bca:	6c23      	ldr	r3, [r4, #64]	; 0x40
   80bcc:	3501      	adds	r5, #1
   80bce:	3318      	adds	r3, #24
   80bd0:	b2ed      	uxtb	r5, r5
   80bd2:	63e3      	str	r3, [r4, #60]	; 0x3c
   80bd4:	221d      	movs	r2, #29
   80bd6:	462b      	mov	r3, r5
   80bd8:	f248 4102 	movw	r1, #33794	; 0x8402
   80bdc:	4c35      	ldr	r4, [pc, #212]	; (80cb4 <cylinder_init+0x164>)
   80bde:	47a0      	blx	r4
   80be0:	4b35      	ldr	r3, [pc, #212]	; (80cb8 <cylinder_init+0x168>)
   80be2:	1c72      	adds	r2, r6, #1
   80be4:	eb03 1646 	add.w	r6, r3, r6, lsl #5
   80be8:	60b2      	str	r2, [r6, #8]
   80bea:	e7b7      	b.n	80b5c <cylinder_init+0xc>
   80bec:	2600      	movs	r6, #0
   80bee:	4637      	mov	r7, r6
   80bf0:	4b32      	ldr	r3, [pc, #200]	; (80cbc <cylinder_init+0x16c>)
   80bf2:	f8df 80d0 	ldr.w	r8, [pc, #208]	; 80cc4 <cylinder_init+0x174>
   80bf6:	67e3      	str	r3, [r4, #124]	; 0x7c
   80bf8:	f44f 2300 	mov.w	r3, #524288	; 0x80000
   80bfc:	6163      	str	r3, [r4, #20]
   80bfe:	f44f 0300 	mov.w	r3, #8388608	; 0x800000
   80c02:	65a3      	str	r3, [r4, #88]	; 0x58
   80c04:	f44f 3300 	mov.w	r3, #131072	; 0x20000
   80c08:	f8c4 309c 	str.w	r3, [r4, #156]	; 0x9c
   80c0c:	f04f 7300 	mov.w	r3, #33554432	; 0x2000000
   80c10:	f8c4 30e0 	str.w	r3, [r4, #224]	; 0xe0
   80c14:	f04f 4380 	mov.w	r3, #1073741824	; 0x40000000
   80c18:	f8c4 3124 	str.w	r3, [r4, #292]	; 0x124
   80c1c:	f04f 5300 	mov.w	r3, #536870912	; 0x20000000
   80c20:	f8c4 3168 	str.w	r3, [r4, #360]	; 0x168
   80c24:	f04f 5380 	mov.w	r3, #268435456	; 0x10000000
   80c28:	f8c4 31ac 	str.w	r3, [r4, #428]	; 0x1ac
   80c2c:	f04f 6300 	mov.w	r3, #134217728	; 0x8000000
   80c30:	f8c4 31f0 	str.w	r3, [r4, #496]	; 0x1f0
   80c34:	2302      	movs	r3, #2
   80c36:	6363      	str	r3, [r4, #52]	; 0x34
   80c38:	2301      	movs	r3, #1
   80c3a:	67a3      	str	r3, [r4, #120]	; 0x78
   80c3c:	2308      	movs	r3, #8
   80c3e:	f8c4 30bc 	str.w	r3, [r4, #188]	; 0xbc
   80c42:	2320      	movs	r3, #32
   80c44:	f8c4 3100 	str.w	r3, [r4, #256]	; 0x100
   80c48:	f44f 5300 	mov.w	r3, #8192	; 0x2000
   80c4c:	f8c4 3144 	str.w	r3, [r4, #324]	; 0x144
   80c50:	2380      	movs	r3, #128	; 0x80
   80c52:	f8c4 3188 	str.w	r3, [r4, #392]	; 0x188
   80c56:	f44f 4300 	mov.w	r3, #32768	; 0x8000
   80c5a:	f8c4 31cc 	str.w	r3, [r4, #460]	; 0x1cc
   80c5e:	f44f 7300 	mov.w	r3, #512	; 0x200
   80c62:	f8c4 3210 	str.w	r3, [r4, #528]	; 0x210
   80c66:	f04f 0a44 	mov.w	sl, #68	; 0x44
   80c6a:	f899 3036 	ldrb.w	r3, [r9, #54]	; 0x36
   80c6e:	b2f5      	uxtb	r5, r6
   80c70:	ebb5 1f13 	cmp.w	r5, r3, lsr #4
   80c74:	f106 0601 	add.w	r6, r6, #1
   80c78:	da0e      	bge.n	80c98 <cylinder_init+0x148>
   80c7a:	fb0a 4505 	mla	r5, sl, r5, r4
   80c7e:	2300      	movs	r3, #0
   80c80:	69a8      	ldr	r0, [r5, #24]
   80c82:	461a      	mov	r2, r3
   80c84:	6969      	ldr	r1, [r5, #20]
   80c86:	9700      	str	r7, [sp, #0]
   80c88:	47c0      	blx	r8
   80c8a:	2300      	movs	r3, #0
   80c8c:	6ba8      	ldr	r0, [r5, #56]	; 0x38
   80c8e:	461a      	mov	r2, r3
   80c90:	6b69      	ldr	r1, [r5, #52]	; 0x34
   80c92:	9700      	str	r7, [sp, #0]
   80c94:	47c0      	blx	r8
   80c96:	e7e8      	b.n	80c6a <cylinder_init+0x11a>
   80c98:	b002      	add	sp, #8
   80c9a:	e8bd 87f0 	ldmia.w	sp!, {r4, r5, r6, r7, r8, r9, sl, pc}
   80c9e:	bf00      	nop
   80ca0:	400e1200 	.word	0x400e1200
   80ca4:	20070df0 	.word	0x20070df0
   80ca8:	40088000 	.word	0x40088000
   80cac:	40084000 	.word	0x40084000
   80cb0:	40080000 	.word	0x40080000
   80cb4:	000811f9 	.word	0x000811f9
   80cb8:	2007159c 	.word	0x2007159c
   80cbc:	400e1400 	.word	0x400e1400
   80cc0:	200710e0 	.word	0x200710e0
   80cc4:	0008039d 	.word	0x0008039d

00080cc8 <global_init>:
   80cc8:	4b4a      	ldr	r3, [pc, #296]	; (80df4 <global_init+0x12c>)
   80cca:	e92d 41f0 	stmdb	sp!, {r4, r5, r6, r7, r8, lr}
   80cce:	2400      	movs	r4, #0
   80cd0:	601c      	str	r4, [r3, #0]
   80cd2:	4b49      	ldr	r3, [pc, #292]	; (80df8 <global_init+0x130>)
   80cd4:	2232      	movs	r2, #50	; 0x32
   80cd6:	601c      	str	r4, [r3, #0]
   80cd8:	4b48      	ldr	r3, [pc, #288]	; (80dfc <global_init+0x134>)
   80cda:	2701      	movs	r7, #1
   80cdc:	801a      	strh	r2, [r3, #0]
   80cde:	4b48      	ldr	r3, [pc, #288]	; (80e00 <global_init+0x138>)
   80ce0:	4d48      	ldr	r5, [pc, #288]	; (80e04 <global_init+0x13c>)
   80ce2:	801f      	strh	r7, [r3, #0]
   80ce4:	4b48      	ldr	r3, [pc, #288]	; (80e08 <global_init+0x140>)
   80ce6:	4e49      	ldr	r6, [pc, #292]	; (80e0c <global_init+0x144>)
   80ce8:	801f      	strh	r7, [r3, #0]
   80cea:	4b49      	ldr	r3, [pc, #292]	; (80e10 <global_init+0x148>)
   80cec:	f8df 818c 	ldr.w	r8, [pc, #396]	; 80e7c <global_init+0x1b4>
   80cf0:	601c      	str	r4, [r3, #0]
   80cf2:	4b48      	ldr	r3, [pc, #288]	; (80e14 <global_init+0x14c>)
   80cf4:	f241 3288 	movw	r2, #5000	; 0x1388
   80cf8:	601c      	str	r4, [r3, #0]
   80cfa:	4b47      	ldr	r3, [pc, #284]	; (80e18 <global_init+0x150>)
   80cfc:	214a      	movs	r1, #74	; 0x4a
   80cfe:	601c      	str	r4, [r3, #0]
   80d00:	4b46      	ldr	r3, [pc, #280]	; (80e1c <global_init+0x154>)
   80d02:	4628      	mov	r0, r5
   80d04:	601c      	str	r4, [r3, #0]
   80d06:	4b46      	ldr	r3, [pc, #280]	; (80e20 <global_init+0x158>)
   80d08:	601c      	str	r4, [r3, #0]
   80d0a:	4b46      	ldr	r3, [pc, #280]	; (80e24 <global_init+0x15c>)
   80d0c:	701c      	strb	r4, [r3, #0]
   80d0e:	4b46      	ldr	r3, [pc, #280]	; (80e28 <global_init+0x160>)
   80d10:	601c      	str	r4, [r3, #0]
   80d12:	4b46      	ldr	r3, [pc, #280]	; (80e2c <global_init+0x164>)
   80d14:	701c      	strb	r4, [r3, #0]
   80d16:	4b46      	ldr	r3, [pc, #280]	; (80e30 <global_init+0x168>)
   80d18:	701c      	strb	r4, [r3, #0]
   80d1a:	4b46      	ldr	r3, [pc, #280]	; (80e34 <global_init+0x16c>)
   80d1c:	601c      	str	r4, [r3, #0]
   80d1e:	4b46      	ldr	r3, [pc, #280]	; (80e38 <global_init+0x170>)
   80d20:	601c      	str	r4, [r3, #0]
   80d22:	47c0      	blx	r8
   80d24:	f241 4250 	movw	r2, #5200	; 0x1450
   80d28:	2140      	movs	r1, #64	; 0x40
   80d2a:	4630      	mov	r0, r6
   80d2c:	47c0      	blx	r8
   80d2e:	f241 5218 	movw	r2, #5400	; 0x1518
   80d32:	2140      	movs	r1, #64	; 0x40
   80d34:	4841      	ldr	r0, [pc, #260]	; (80e3c <global_init+0x174>)
   80d36:	47c0      	blx	r8
   80d38:	f44f 52af 	mov.w	r2, #5600	; 0x15e0
   80d3c:	2140      	movs	r1, #64	; 0x40
   80d3e:	4840      	ldr	r0, [pc, #256]	; (80e40 <global_init+0x178>)
   80d40:	47c0      	blx	r8
   80d42:	f241 62a8 	movw	r2, #5800	; 0x16a8
   80d46:	21a0      	movs	r1, #160	; 0xa0
   80d48:	483e      	ldr	r0, [pc, #248]	; (80e44 <global_init+0x17c>)
   80d4a:	47c0      	blx	r8
   80d4c:	f241 7270 	movw	r2, #6000	; 0x1770
   80d50:	21c0      	movs	r1, #192	; 0xc0
   80d52:	483d      	ldr	r0, [pc, #244]	; (80e48 <global_init+0x180>)
   80d54:	47c0      	blx	r8
   80d56:	f895 3036 	ldrb.w	r3, [r5, #54]	; 0x36
   80d5a:	493c      	ldr	r1, [pc, #240]	; (80e4c <global_init+0x184>)
   80d5c:	095b      	lsrs	r3, r3, #5
   80d5e:	800b      	strh	r3, [r1, #0]
   80d60:	7bf2      	ldrb	r2, [r6, #15]
   80d62:	880b      	ldrh	r3, [r1, #0]
   80d64:	483a      	ldr	r0, [pc, #232]	; (80e50 <global_init+0x188>)
   80d66:	b29b      	uxth	r3, r3
   80d68:	fb92 f3f3 	sdiv	r3, r2, r3
   80d6c:	4a39      	ldr	r2, [pc, #228]	; (80e54 <global_init+0x18c>)
   80d6e:	7013      	strb	r3, [r2, #0]
   80d70:	7bf2      	ldrb	r2, [r6, #15]
   80d72:	8833      	ldrh	r3, [r6, #0]
   80d74:	b21b      	sxth	r3, r3
   80d76:	4353      	muls	r3, r2
   80d78:	f44f 72b4 	mov.w	r2, #360	; 0x168
   80d7c:	fb93 f3f2 	sdiv	r3, r3, r2
   80d80:	b2db      	uxtb	r3, r3
   80d82:	7003      	strb	r3, [r0, #0]
   80d84:	880b      	ldrh	r3, [r1, #0]
   80d86:	4834      	ldr	r0, [pc, #208]	; (80e58 <global_init+0x190>)
   80d88:	b29b      	uxth	r3, r3
   80d8a:	fb92 f2f3 	sdiv	r2, r2, r3
   80d8e:	4b33      	ldr	r3, [pc, #204]	; (80e5c <global_init+0x194>)
   80d90:	2122      	movs	r1, #34	; 0x22
   80d92:	801a      	strh	r2, [r3, #0]
   80d94:	7bf2      	ldrb	r2, [r6, #15]
   80d96:	f44f 6361 	mov.w	r3, #3600	; 0xe10
   80d9a:	fb93 f3f2 	sdiv	r3, r3, r2
   80d9e:	4a30      	ldr	r2, [pc, #192]	; (80e60 <global_init+0x198>)
   80da0:	6013      	str	r3, [r2, #0]
   80da2:	f895 3025 	ldrb.w	r3, [r5, #37]	; 0x25
   80da6:	ebc3 1243 	rsb	r2, r3, r3, lsl #5
   80daa:	eb03 0382 	add.w	r3, r3, r2, lsl #2
   80dae:	00db      	lsls	r3, r3, #3
   80db0:	4a2c      	ldr	r2, [pc, #176]	; (80e64 <global_init+0x19c>)
   80db2:	b29b      	uxth	r3, r3
   80db4:	8013      	strh	r3, [r2, #0]
   80db6:	f242 7310 	movw	r3, #10000	; 0x2710
   80dba:	7ff2      	ldrb	r2, [r6, #31]
   80dbc:	4353      	muls	r3, r2
   80dbe:	4a2a      	ldr	r2, [pc, #168]	; (80e68 <global_init+0x1a0>)
   80dc0:	6013      	str	r3, [r2, #0]
   80dc2:	2303      	movs	r3, #3
   80dc4:	f885 4042 	strb.w	r4, [r5, #66]	; 0x42
   80dc8:	f885 7043 	strb.w	r7, [r5, #67]	; 0x43
   80dcc:	f885 3044 	strb.w	r3, [r5, #68]	; 0x44
   80dd0:	2302      	movs	r3, #2
   80dd2:	f885 3045 	strb.w	r3, [r5, #69]	; 0x45
   80dd6:	4b25      	ldr	r3, [pc, #148]	; (80e6c <global_init+0x1a4>)
   80dd8:	4798      	blx	r3
   80dda:	4b25      	ldr	r3, [pc, #148]	; (80e70 <global_init+0x1a8>)
   80ddc:	4798      	blx	r3
   80dde:	4622      	mov	r2, r4
   80de0:	4b24      	ldr	r3, [pc, #144]	; (80e74 <global_init+0x1ac>)
   80de2:	f843 2024 	str.w	r2, [r3, r4, lsl #2]
   80de6:	3401      	adds	r4, #1
   80de8:	2c80      	cmp	r4, #128	; 0x80
   80dea:	d1fa      	bne.n	80de2 <global_init+0x11a>
   80dec:	4b22      	ldr	r3, [pc, #136]	; (80e78 <global_init+0x1b0>)
   80dee:	e8bd 41f0 	ldmia.w	sp!, {r4, r5, r6, r7, r8, lr}
   80df2:	4718      	bx	r3
   80df4:	200709e4 	.word	0x200709e4
   80df8:	20071ec8 	.word	0x20071ec8
   80dfc:	20071aa4 	.word	0x20071aa4
   80e00:	20071a80 	.word	0x20071a80
   80e04:	200710e0 	.word	0x200710e0
   80e08:	20071ec4 	.word	0x20071ec4
   80e0c:	2007112a 	.word	0x2007112a
   80e10:	200709e8 	.word	0x200709e8
   80e14:	200723dc 	.word	0x200723dc
   80e18:	2007098c 	.word	0x2007098c
   80e1c:	20070984 	.word	0x20070984
   80e20:	20071590 	.word	0x20071590
   80e24:	20072339 	.word	0x20072339
   80e28:	20071f2c 	.word	0x20071f2c
   80e2c:	200723e8 	.word	0x200723e8
   80e30:	20071f28 	.word	0x20071f28
   80e34:	2007099c 	.word	0x2007099c
   80e38:	20070994 	.word	0x20070994
   80e3c:	200709a0 	.word	0x200709a0
   80e40:	20071ecc 	.word	0x20071ecc
   80e44:	2007233a 	.word	0x2007233a
   80e48:	20071020 	.word	0x20071020
   80e4c:	2007116a 	.word	0x2007116a
   80e50:	20071a22 	.word	0x20071a22
   80e54:	200723ea 	.word	0x200723ea
   80e58:	2007156c 	.word	0x2007156c
   80e5c:	20071a7e 	.word	0x20071a7e
   80e60:	20071f24 	.word	0x20071f24
   80e64:	20070982 	.word	0x20070982
   80e68:	20071a84 	.word	0x20071a84
   80e6c:	000810ed 	.word	0x000810ed
   80e70:	000811bd 	.word	0x000811bd
   80e74:	2007159c 	.word	0x2007159c
   80e78:	00080b51 	.word	0x00080b51
   80e7c:	000810dd 	.word	0x000810dd

00080e80 <interrupts_enable_interrupt_vector>:
   80e80:	b242      	sxtb	r2, r0
   80e82:	b2c0      	uxtb	r0, r0
   80e84:	b510      	push	{r4, lr}
   80e86:	2301      	movs	r3, #1
   80e88:	f000 041f 	and.w	r4, r0, #31
   80e8c:	fa03 f404 	lsl.w	r4, r3, r4
   80e90:	0953      	lsrs	r3, r2, #5
   80e92:	2a00      	cmp	r2, #0
   80e94:	ea4f 0383 	mov.w	r3, r3, lsl #2
   80e98:	ea4f 1101 	mov.w	r1, r1, lsl #4
   80e9c:	bfa8      	it	ge
   80e9e:	f102 4260 	addge.w	r2, r2, #3758096384	; 0xe0000000
   80ea2:	f103 4360 	add.w	r3, r3, #3758096384	; 0xe0000000
   80ea6:	bfb8      	it	lt
   80ea8:	4a09      	ldrlt	r2, [pc, #36]	; (80ed0 <interrupts_enable_interrupt_vector+0x50>)
   80eaa:	f503 4361 	add.w	r3, r3, #57600	; 0xe100
   80eae:	bfb9      	ittee	lt
   80eb0:	f000 000f 	andlt.w	r0, r0, #15
   80eb4:	b2c9      	uxtblt	r1, r1
   80eb6:	b2c9      	uxtbge	r1, r1
   80eb8:	f502 4261 	addge.w	r2, r2, #57600	; 0xe100
   80ebc:	f8c3 4080 	str.w	r4, [r3, #128]	; 0x80
   80ec0:	f8c3 4180 	str.w	r4, [r3, #384]	; 0x180
   80ec4:	bfb4      	ite	lt
   80ec6:	5411      	strblt	r1, [r2, r0]
   80ec8:	f882 1300 	strbge.w	r1, [r2, #768]	; 0x300
   80ecc:	601c      	str	r4, [r3, #0]
   80ece:	bd10      	pop	{r4, pc}
   80ed0:	e000ed14 	.word	0xe000ed14

00080ed4 <interrupts_enable_pio>:
   80ed4:	b570      	push	{r4, r5, r6, lr}
   80ed6:	461e      	mov	r6, r3
   80ed8:	f1a0 030b 	sub.w	r3, r0, #11
   80edc:	2b03      	cmp	r3, #3
   80ede:	460d      	mov	r5, r1
   80ee0:	d827      	bhi.n	80f32 <interrupts_enable_pio+0x5e>
   80ee2:	2401      	movs	r4, #1
   80ee4:	4b13      	ldr	r3, [pc, #76]	; (80f34 <interrupts_enable_pio+0x60>)
   80ee6:	4084      	lsls	r4, r0
   80ee8:	280d      	cmp	r0, #13
   80eea:	611c      	str	r4, [r3, #16]
   80eec:	d008      	beq.n	80f00 <interrupts_enable_pio+0x2c>
   80eee:	280e      	cmp	r0, #14
   80ef0:	d008      	beq.n	80f04 <interrupts_enable_pio+0x30>
   80ef2:	4c11      	ldr	r4, [pc, #68]	; (80f38 <interrupts_enable_pio+0x64>)
   80ef4:	f503 6300 	add.w	r3, r3, #2048	; 0x800
   80ef8:	280c      	cmp	r0, #12
   80efa:	bf18      	it	ne
   80efc:	461c      	movne	r4, r3
   80efe:	e002      	b.n	80f06 <interrupts_enable_pio+0x32>
   80f00:	4c0e      	ldr	r4, [pc, #56]	; (80f3c <interrupts_enable_pio+0x68>)
   80f02:	e000      	b.n	80f06 <interrupts_enable_pio+0x32>
   80f04:	4c0e      	ldr	r4, [pc, #56]	; (80f40 <interrupts_enable_pio+0x6c>)
   80f06:	6425      	str	r5, [r4, #64]	; 0x40
   80f08:	4611      	mov	r1, r2
   80f0a:	4b0e      	ldr	r3, [pc, #56]	; (80f44 <interrupts_enable_pio+0x70>)
   80f0c:	4798      	blx	r3
   80f0e:	2e01      	cmp	r6, #1
   80f10:	d002      	beq.n	80f18 <interrupts_enable_pio+0x44>
   80f12:	2e02      	cmp	r6, #2
   80f14:	d007      	beq.n	80f26 <interrupts_enable_pio+0x52>
   80f16:	bd70      	pop	{r4, r5, r6, pc}
   80f18:	f8c4 50b0 	str.w	r5, [r4, #176]	; 0xb0
   80f1c:	f8c4 50c0 	str.w	r5, [r4, #192]	; 0xc0
   80f20:	f8c4 50d4 	str.w	r5, [r4, #212]	; 0xd4
   80f24:	bd70      	pop	{r4, r5, r6, pc}
   80f26:	f8c4 50b0 	str.w	r5, [r4, #176]	; 0xb0
   80f2a:	f8c4 50c0 	str.w	r5, [r4, #192]	; 0xc0
   80f2e:	f8c4 50d0 	str.w	r5, [r4, #208]	; 0xd0
   80f32:	bd70      	pop	{r4, r5, r6, pc}
   80f34:	400e0600 	.word	0x400e0600
   80f38:	400e1000 	.word	0x400e1000
   80f3c:	400e1200 	.word	0x400e1200
   80f40:	400e1400 	.word	0x400e1400
   80f44:	00080e81 	.word	0x00080e81

00080f48 <interrupts_check_timer_for_inj_or_ign>:
   80f48:	b510      	push	{r4, lr}
   80f4a:	4b13      	ldr	r3, [pc, #76]	; (80f98 <interrupts_check_timer_for_inj_or_ign+0x50>)
   80f4c:	460a      	mov	r2, r1
   80f4e:	6884      	ldr	r4, [r0, #8]
   80f50:	6819      	ldr	r1, [r3, #0]
   80f52:	428c      	cmp	r4, r1
   80f54:	d10c      	bne.n	80f70 <interrupts_check_timer_for_inj_or_ign+0x28>
   80f56:	6801      	ldr	r1, [r0, #0]
   80f58:	291d      	cmp	r1, #29
   80f5a:	d803      	bhi.n	80f64 <interrupts_check_timer_for_inj_or_ign+0x1c>
   80f5c:	6983      	ldr	r3, [r0, #24]
   80f5e:	6942      	ldr	r2, [r0, #20]
   80f60:	631a      	str	r2, [r3, #48]	; 0x30
   80f62:	bd10      	pop	{r4, pc}
   80f64:	2301      	movs	r3, #1
   80f66:	7403      	strb	r3, [r0, #16]
   80f68:	6c13      	ldr	r3, [r2, #64]	; 0x40
   80f6a:	69c4      	ldr	r4, [r0, #28]
   80f6c:	6918      	ldr	r0, [r3, #16]
   80f6e:	e00f      	b.n	80f90 <interrupts_check_timer_for_inj_or_ign+0x48>
   80f70:	7c41      	ldrb	r1, [r0, #17]
   80f72:	b981      	cbnz	r1, 80f96 <interrupts_check_timer_for_inj_or_ign+0x4e>
   80f74:	681b      	ldr	r3, [r3, #0]
   80f76:	68c1      	ldr	r1, [r0, #12]
   80f78:	4299      	cmp	r1, r3
   80f7a:	d10c      	bne.n	80f96 <interrupts_check_timer_for_inj_or_ign+0x4e>
   80f7c:	6841      	ldr	r1, [r0, #4]
   80f7e:	291d      	cmp	r1, #29
   80f80:	d803      	bhi.n	80f8a <interrupts_check_timer_for_inj_or_ign+0x42>
   80f82:	6983      	ldr	r3, [r0, #24]
   80f84:	6942      	ldr	r2, [r0, #20]
   80f86:	635a      	str	r2, [r3, #52]	; 0x34
   80f88:	bd10      	pop	{r4, pc}
   80f8a:	6c12      	ldr	r2, [r2, #64]	; 0x40
   80f8c:	69c4      	ldr	r4, [r0, #28]
   80f8e:	6910      	ldr	r0, [r2, #16]
   80f90:	4b02      	ldr	r3, [pc, #8]	; (80f9c <interrupts_check_timer_for_inj_or_ign+0x54>)
   80f92:	4798      	blx	r3
   80f94:	6020      	str	r0, [r4, #0]
   80f96:	bd10      	pop	{r4, pc}
   80f98:	20071f2c 	.word	0x20071f2c
   80f9c:	00081085 	.word	0x00081085

00080fa0 <PIOA_Handler>:
   80fa0:	e92d 47f0 	stmdb	sp!, {r4, r5, r6, r7, r8, r9, sl, lr}
   80fa4:	4b28      	ldr	r3, [pc, #160]	; (81048 <PIOA_Handler+0xa8>)
   80fa6:	f8d3 4090 	ldr.w	r4, [r3, #144]	; 0x90
   80faa:	f503 23b1 	add.w	r3, r3, #362496	; 0x58800
   80fae:	f503 63c0 	add.w	r3, r3, #1536	; 0x600
   80fb2:	6cde      	ldr	r6, [r3, #76]	; 0x4c
   80fb4:	0632      	lsls	r2, r6, #24
   80fb6:	d40b      	bmi.n	80fd0 <PIOA_Handler+0x30>
   80fb8:	0433      	lsls	r3, r6, #16
   80fba:	d53d      	bpl.n	81038 <PIOA_Handler+0x98>
   80fbc:	4a23      	ldr	r2, [pc, #140]	; (8104c <PIOA_Handler+0xac>)
   80fbe:	4924      	ldr	r1, [pc, #144]	; (81050 <PIOA_Handler+0xb0>)
   80fc0:	6813      	ldr	r3, [r2, #0]
   80fc2:	1ae3      	subs	r3, r4, r3
   80fc4:	600b      	str	r3, [r1, #0]
   80fc6:	4b23      	ldr	r3, [pc, #140]	; (81054 <PIOA_Handler+0xb4>)
   80fc8:	6014      	str	r4, [r2, #0]
   80fca:	2201      	movs	r2, #1
   80fcc:	701a      	strb	r2, [r3, #0]
   80fce:	e033      	b.n	81038 <PIOA_Handler+0x98>
   80fd0:	4b21      	ldr	r3, [pc, #132]	; (81058 <PIOA_Handler+0xb8>)
   80fd2:	4a22      	ldr	r2, [pc, #136]	; (8105c <PIOA_Handler+0xbc>)
   80fd4:	6819      	ldr	r1, [r3, #0]
   80fd6:	f8df 90a4 	ldr.w	r9, [pc, #164]	; 8107c <PIOA_Handler+0xdc>
   80fda:	6011      	str	r1, [r2, #0]
   80fdc:	4920      	ldr	r1, [pc, #128]	; (81060 <PIOA_Handler+0xc0>)
   80fde:	f8df 80a0 	ldr.w	r8, [pc, #160]	; 81080 <PIOA_Handler+0xe0>
   80fe2:	680a      	ldr	r2, [r1, #0]
   80fe4:	4f1f      	ldr	r7, [pc, #124]	; (81064 <PIOA_Handler+0xc4>)
   80fe6:	1aa2      	subs	r2, r4, r2
   80fe8:	601a      	str	r2, [r3, #0]
   80fea:	4a1f      	ldr	r2, [pc, #124]	; (81068 <PIOA_Handler+0xc8>)
   80fec:	600c      	str	r4, [r1, #0]
   80fee:	6819      	ldr	r1, [r3, #0]
   80ff0:	6813      	ldr	r3, [r2, #0]
   80ff2:	2500      	movs	r5, #0
   80ff4:	440b      	add	r3, r1
   80ff6:	6013      	str	r3, [r2, #0]
   80ff8:	4a1c      	ldr	r2, [pc, #112]	; (8106c <PIOA_Handler+0xcc>)
   80ffa:	7813      	ldrb	r3, [r2, #0]
   80ffc:	3301      	adds	r3, #1
   80ffe:	b2db      	uxtb	r3, r3
   81000:	7013      	strb	r3, [r2, #0]
   81002:	4a1b      	ldr	r2, [pc, #108]	; (81070 <PIOA_Handler+0xd0>)
   81004:	6813      	ldr	r3, [r2, #0]
   81006:	3301      	adds	r3, #1
   81008:	6013      	str	r3, [r2, #0]
   8100a:	4b1a      	ldr	r3, [pc, #104]	; (81074 <PIOA_Handler+0xd4>)
   8100c:	2201      	movs	r2, #1
   8100e:	701a      	strb	r2, [r3, #0]
   81010:	f899 3036 	ldrb.w	r3, [r9, #54]	; 0x36
   81014:	b2e8      	uxtb	r0, r5
   81016:	ebb0 1f13 	cmp.w	r0, r3, lsr #4
   8101a:	f105 0501 	add.w	r5, r5, #1
   8101e:	dacb      	bge.n	80fb8 <PIOA_Handler+0x18>
   81020:	2344      	movs	r3, #68	; 0x44
   81022:	4358      	muls	r0, r3
   81024:	eb00 0a08 	add.w	sl, r0, r8
   81028:	3020      	adds	r0, #32
   8102a:	4651      	mov	r1, sl
   8102c:	4440      	add	r0, r8
   8102e:	47b8      	blx	r7
   81030:	4651      	mov	r1, sl
   81032:	4650      	mov	r0, sl
   81034:	47b8      	blx	r7
   81036:	e7eb      	b.n	81010 <PIOA_Handler+0x70>
   81038:	4b03      	ldr	r3, [pc, #12]	; (81048 <PIOA_Handler+0xa8>)
   8103a:	f8d3 3090 	ldr.w	r3, [r3, #144]	; 0x90
   8103e:	1b1c      	subs	r4, r3, r4
   81040:	4b0d      	ldr	r3, [pc, #52]	; (81078 <PIOA_Handler+0xd8>)
   81042:	601c      	str	r4, [r3, #0]
   81044:	e8bd 87f0 	ldmia.w	sp!, {r4, r5, r6, r7, r8, r9, sl, pc}
   81048:	40088000 	.word	0x40088000
   8104c:	20071590 	.word	0x20071590
   81050:	2007098c 	.word	0x2007098c
   81054:	20071f28 	.word	0x20071f28
   81058:	200709e8 	.word	0x200709e8
   8105c:	200723dc 	.word	0x200723dc
   81060:	20070984 	.word	0x20070984
   81064:	00080f49 	.word	0x00080f49
   81068:	2007099c 	.word	0x2007099c
   8106c:	20072339 	.word	0x20072339
   81070:	20071f2c 	.word	0x20071f2c
   81074:	200723e8 	.word	0x200723e8
   81078:	20071f0c 	.word	0x20071f0c
   8107c:	200710e0 	.word	0x200710e0
   81080:	20070df0 	.word	0x20070df0

00081084 <math_sum_with_overflow_protection>:
   81084:	1840      	adds	r0, r0, r1
   81086:	bf28      	it	cs
   81088:	3001      	addcs	r0, #1
   8108a:	4770      	bx	lr

0008108c <sensors_init>:
   8108c:	e92d 41f0 	stmdb	sp!, {r4, r5, r6, r7, r8, lr}
   81090:	4e0e      	ldr	r6, [pc, #56]	; (810cc <sensors_init+0x40>)
   81092:	f8df 8044 	ldr.w	r8, [pc, #68]	; 810d8 <sensors_init+0x4c>
   81096:	4f0e      	ldr	r7, [pc, #56]	; (810d0 <sensors_init+0x44>)
   81098:	2400      	movs	r4, #0
   8109a:	b2a5      	uxth	r5, r4
   8109c:	f505 7058 	add.w	r0, r5, #864	; 0x360
   810a0:	b280      	uxth	r0, r0
   810a2:	47b0      	blx	r6
   810a4:	f808 0004 	strb.w	r0, [r8, r4]
   810a8:	f505 60ec 	add.w	r0, r5, #1888	; 0x760
   810ac:	b280      	uxth	r0, r0
   810ae:	47b0      	blx	r6
   810b0:	5538      	strb	r0, [r7, r4]
   810b2:	f505 6036 	add.w	r0, r5, #2912	; 0xb60
   810b6:	b280      	uxth	r0, r0
   810b8:	47b0      	blx	r6
   810ba:	4b06      	ldr	r3, [pc, #24]	; (810d4 <sensors_init+0x48>)
   810bc:	5518      	strb	r0, [r3, r4]
   810be:	3401      	adds	r4, #1
   810c0:	f5b4 6f80 	cmp.w	r4, #1024	; 0x400
   810c4:	d1e9      	bne.n	8109a <sensors_init+0xe>
   810c6:	e8bd 81f0 	ldmia.w	sp!, {r4, r5, r6, r7, r8, pc}
   810ca:	bf00      	nop
   810cc:	00080af5 	.word	0x00080af5
   810d0:	20071aa6 	.word	0x20071aa6
   810d4:	20071f38 	.word	0x20071f38
   810d8:	20071620 	.word	0x20071620

000810dc <storage_struct_read_eeprom_init>:
   810dc:	4613      	mov	r3, r2
   810de:	4602      	mov	r2, r0
   810e0:	4618      	mov	r0, r3
   810e2:	4b01      	ldr	r3, [pc, #4]	; (810e8 <storage_struct_read_eeprom_init+0xc>)
   810e4:	4718      	bx	r3
   810e6:	bf00      	nop
   810e8:	00080189 	.word	0x00080189

000810ec <storage_init_struct_to_zero>:
   810ec:	4602      	mov	r2, r0
   810ee:	b510      	push	{r4, lr}
   810f0:	2400      	movs	r4, #0
   810f2:	1a13      	subs	r3, r2, r0
   810f4:	b29b      	uxth	r3, r3
   810f6:	4299      	cmp	r1, r3
   810f8:	d902      	bls.n	81100 <storage_init_struct_to_zero+0x14>
   810fa:	f802 4b01 	strb.w	r4, [r2], #1
   810fe:	e7f8      	b.n	810f2 <storage_init_struct_to_zero+0x6>
   81100:	bd10      	pop	{r4, pc}
	...

00081104 <tables_Table3D_alloc_mem>:
   81104:	e92d 43f8 	stmdb	sp!, {r3, r4, r5, r6, r7, r8, r9, lr}
   81108:	4605      	mov	r5, r0
   8110a:	4f10      	ldr	r7, [pc, #64]	; (8114c <tables_Table3D_alloc_mem+0x48>)
   8110c:	0090      	lsls	r0, r2, #2
   8110e:	460e      	mov	r6, r1
   81110:	4614      	mov	r4, r2
   81112:	47b8      	blx	r7
   81114:	f04f 0800 	mov.w	r8, #0
   81118:	6028      	str	r0, [r5, #0]
   8111a:	4544      	cmp	r4, r8
   8111c:	d008      	beq.n	81130 <tables_Table3D_alloc_mem+0x2c>
   8111e:	4630      	mov	r0, r6
   81120:	f8d5 9000 	ldr.w	r9, [r5]
   81124:	47b8      	blx	r7
   81126:	f849 0028 	str.w	r0, [r9, r8, lsl #2]
   8112a:	f108 0801 	add.w	r8, r8, #1
   8112e:	e7f4      	b.n	8111a <tables_Table3D_alloc_mem+0x16>
   81130:	4630      	mov	r0, r6
   81132:	47b8      	blx	r7
   81134:	6068      	str	r0, [r5, #4]
   81136:	4620      	mov	r0, r4
   81138:	47b8      	blx	r7
   8113a:	732e      	strb	r6, [r5, #12]
   8113c:	fb04 6606 	mla	r6, r4, r6, r6
   81140:	736c      	strb	r4, [r5, #13]
   81142:	4434      	add	r4, r6
   81144:	60a8      	str	r0, [r5, #8]
   81146:	81ec      	strh	r4, [r5, #14]
   81148:	e8bd 83f8 	ldmia.w	sp!, {r3, r4, r5, r6, r7, r8, r9, pc}
   8114c:	0008187d 	.word	0x0008187d

00081150 <tables_Table3D_read_eeprom>:
   81150:	e92d 41f0 	stmdb	sp!, {r4, r5, r6, r7, r8, lr}
   81154:	4604      	mov	r4, r0
   81156:	460d      	mov	r5, r1
   81158:	f8df 803c 	ldr.w	r8, [pc, #60]	; 81198 <tables_Table3D_read_eeprom+0x48>
   8115c:	2300      	movs	r3, #0
   8115e:	7b62      	ldrb	r2, [r4, #13]
   81160:	1c5f      	adds	r7, r3, #1
   81162:	b2db      	uxtb	r3, r3
   81164:	429a      	cmp	r2, r3
   81166:	7b21      	ldrb	r1, [r4, #12]
   81168:	4e0b      	ldr	r6, [pc, #44]	; (81198 <tables_Table3D_read_eeprom+0x48>)
   8116a:	d909      	bls.n	81180 <tables_Table3D_read_eeprom+0x30>
   8116c:	6820      	ldr	r0, [r4, #0]
   8116e:	462a      	mov	r2, r5
   81170:	f850 0023 	ldr.w	r0, [r0, r3, lsl #2]
   81174:	47c0      	blx	r8
   81176:	7b22      	ldrb	r2, [r4, #12]
   81178:	463b      	mov	r3, r7
   8117a:	4415      	add	r5, r2
   8117c:	b2ad      	uxth	r5, r5
   8117e:	e7ee      	b.n	8115e <tables_Table3D_read_eeprom+0xe>
   81180:	462a      	mov	r2, r5
   81182:	6860      	ldr	r0, [r4, #4]
   81184:	47b0      	blx	r6
   81186:	7b22      	ldrb	r2, [r4, #12]
   81188:	7b61      	ldrb	r1, [r4, #13]
   8118a:	442a      	add	r2, r5
   8118c:	68a0      	ldr	r0, [r4, #8]
   8118e:	4633      	mov	r3, r6
   81190:	e8bd 41f0 	ldmia.w	sp!, {r4, r5, r6, r7, r8, lr}
   81194:	b292      	uxth	r2, r2
   81196:	4718      	bx	r3
   81198:	000810dd 	.word	0x000810dd

0008119c <tables_Table3D_init>:
   8119c:	b570      	push	{r4, r5, r6, lr}
   8119e:	4604      	mov	r4, r0
   811a0:	461d      	mov	r5, r3
   811a2:	4b04      	ldr	r3, [pc, #16]	; (811b4 <tables_Table3D_init+0x18>)
   811a4:	4798      	blx	r3
   811a6:	4629      	mov	r1, r5
   811a8:	4620      	mov	r0, r4
   811aa:	e8bd 4070 	ldmia.w	sp!, {r4, r5, r6, lr}
   811ae:	4b02      	ldr	r3, [pc, #8]	; (811b8 <tables_Table3D_init+0x1c>)
   811b0:	4718      	bx	r3
   811b2:	bf00      	nop
   811b4:	00081105 	.word	0x00081105
   811b8:	00081151 	.word	0x00081151

000811bc <table_init>:
   811bc:	b510      	push	{r4, lr}
   811be:	2210      	movs	r2, #16
   811c0:	4c09      	ldr	r4, [pc, #36]	; (811e8 <table_init+0x2c>)
   811c2:	4611      	mov	r1, r2
   811c4:	2300      	movs	r3, #0
   811c6:	4809      	ldr	r0, [pc, #36]	; (811ec <table_init+0x30>)
   811c8:	47a0      	blx	r4
   811ca:	2210      	movs	r2, #16
   811cc:	4611      	mov	r1, r2
   811ce:	f44f 7390 	mov.w	r3, #288	; 0x120
   811d2:	4807      	ldr	r0, [pc, #28]	; (811f0 <table_init+0x34>)
   811d4:	47a0      	blx	r4
   811d6:	2210      	movs	r2, #16
   811d8:	46a4      	mov	ip, r4
   811da:	e8bd 4010 	ldmia.w	sp!, {r4, lr}
   811de:	f44f 7310 	mov.w	r3, #576	; 0x240
   811e2:	4611      	mov	r1, r2
   811e4:	4803      	ldr	r0, [pc, #12]	; (811f4 <table_init+0x38>)
   811e6:	4760      	bx	ip
   811e8:	0008119d 	.word	0x0008119d
   811ec:	20071010 	.word	0x20071010
   811f0:	20071eac 	.word	0x20071eac
   811f4:	20071f14 	.word	0x20071f14

000811f8 <timer_init>:
   811f8:	2808      	cmp	r0, #8
   811fa:	e92d 43f8 	stmdb	sp!, {r3, r4, r5, r6, r7, r8, r9, lr}
   811fe:	4604      	mov	r4, r0
   81200:	4689      	mov	r9, r1
   81202:	4617      	mov	r7, r2
   81204:	4698      	mov	r8, r3
   81206:	d82a      	bhi.n	8125e <timer_init+0x66>
   81208:	f100 061b 	add.w	r6, r0, #27
   8120c:	4630      	mov	r0, r6
   8120e:	4b15      	ldr	r3, [pc, #84]	; (81264 <timer_init+0x6c>)
   81210:	4798      	blx	r3
   81212:	2c02      	cmp	r4, #2
   81214:	d905      	bls.n	81222 <timer_init+0x2a>
   81216:	4b14      	ldr	r3, [pc, #80]	; (81268 <timer_init+0x70>)
   81218:	4d14      	ldr	r5, [pc, #80]	; (8126c <timer_init+0x74>)
   8121a:	2c05      	cmp	r4, #5
   8121c:	bf88      	it	hi
   8121e:	461d      	movhi	r5, r3
   81220:	e000      	b.n	81224 <timer_init+0x2c>
   81222:	4d13      	ldr	r5, [pc, #76]	; (81270 <timer_init+0x78>)
   81224:	2303      	movs	r3, #3
   81226:	fbb4 f3f3 	udiv	r3, r4, r3
   8122a:	eb03 0343 	add.w	r3, r3, r3, lsl #1
   8122e:	1ae4      	subs	r4, r4, r3
   81230:	464a      	mov	r2, r9
   81232:	4621      	mov	r1, r4
   81234:	4628      	mov	r0, r5
   81236:	4b0f      	ldr	r3, [pc, #60]	; (81274 <timer_init+0x7c>)
   81238:	4798      	blx	r3
   8123a:	4641      	mov	r1, r8
   8123c:	4630      	mov	r0, r6
   8123e:	4b0e      	ldr	r3, [pc, #56]	; (81278 <timer_init+0x80>)
   81240:	4798      	blx	r3
   81242:	463a      	mov	r2, r7
   81244:	4621      	mov	r1, r4
   81246:	4628      	mov	r0, r5
   81248:	4b0c      	ldr	r3, [pc, #48]	; (8127c <timer_init+0x84>)
   8124a:	4798      	blx	r3
   8124c:	4b0c      	ldr	r3, [pc, #48]	; (81280 <timer_init+0x88>)
   8124e:	4621      	mov	r1, r4
   81250:	4628      	mov	r0, r5
   81252:	4798      	blx	r3
   81254:	4a0b      	ldr	r2, [pc, #44]	; (81284 <timer_init+0x8c>)
   81256:	2300      	movs	r3, #0
   81258:	7013      	strb	r3, [r2, #0]
   8125a:	4a0b      	ldr	r2, [pc, #44]	; (81288 <timer_init+0x90>)
   8125c:	6013      	str	r3, [r2, #0]
   8125e:	e8bd 83f8 	ldmia.w	sp!, {r3, r4, r5, r6, r7, r8, r9, pc}
   81262:	bf00      	nop
   81264:	000805d5 	.word	0x000805d5
   81268:	40088000 	.word	0x40088000
   8126c:	40084000 	.word	0x40084000
   81270:	40080000 	.word	0x40080000
   81274:	00080615 	.word	0x00080615
   81278:	00080e81 	.word	0x00080e81
   8127c:	00080643 	.word	0x00080643
   81280:	0008062b 	.word	0x0008062b
   81284:	200709ec 	.word	0x200709ec
   81288:	200723ec 	.word	0x200723ec

0008128c <timer_do_inj_or_ign>:
   8128c:	b538      	push	{r3, r4, r5, lr}
   8128e:	4604      	mov	r4, r0
   81290:	7c00      	ldrb	r0, [r0, #16]
   81292:	69a3      	ldr	r3, [r4, #24]
   81294:	6962      	ldr	r2, [r4, #20]
   81296:	b118      	cbz	r0, 812a0 <timer_do_inj_or_ign+0x14>
   81298:	631a      	str	r2, [r3, #48]	; 0x30
   8129a:	2300      	movs	r3, #0
   8129c:	7423      	strb	r3, [r4, #16]
   8129e:	e000      	b.n	812a2 <timer_do_inj_or_ign+0x16>
   812a0:	635a      	str	r2, [r3, #52]	; 0x34
   812a2:	7c63      	ldrb	r3, [r4, #17]
   812a4:	b143      	cbz	r3, 812b8 <timer_do_inj_or_ign+0x2c>
   812a6:	6c0b      	ldr	r3, [r1, #64]	; 0x40
   812a8:	6861      	ldr	r1, [r4, #4]
   812aa:	6918      	ldr	r0, [r3, #16]
   812ac:	4b03      	ldr	r3, [pc, #12]	; (812bc <timer_do_inj_or_ign+0x30>)
   812ae:	69e5      	ldr	r5, [r4, #28]
   812b0:	4798      	blx	r3
   812b2:	2300      	movs	r3, #0
   812b4:	6028      	str	r0, [r5, #0]
   812b6:	7463      	strb	r3, [r4, #17]
   812b8:	bd38      	pop	{r3, r4, r5, pc}
   812ba:	bf00      	nop
   812bc:	00081085 	.word	0x00081085

000812c0 <timer_do_cylinder>:
   812c0:	b570      	push	{r4, r5, r6, lr}
   812c2:	4c0d      	ldr	r4, [pc, #52]	; (812f8 <timer_do_cylinder+0x38>)
   812c4:	2144      	movs	r1, #68	; 0x44
   812c6:	fb01 4100 	mla	r1, r1, r0, r4
   812ca:	6c0b      	ldr	r3, [r1, #64]	; 0x40
   812cc:	4605      	mov	r5, r0
   812ce:	691a      	ldr	r2, [r3, #16]
   812d0:	6a1e      	ldr	r6, [r3, #32]
   812d2:	0772      	lsls	r2, r6, #29
   812d4:	d502      	bpl.n	812dc <timer_do_cylinder+0x1c>
   812d6:	4608      	mov	r0, r1
   812d8:	4b08      	ldr	r3, [pc, #32]	; (812fc <timer_do_cylinder+0x3c>)
   812da:	4798      	blx	r3
   812dc:	0733      	lsls	r3, r6, #28
   812de:	d509      	bpl.n	812f4 <timer_do_cylinder+0x34>
   812e0:	2144      	movs	r1, #68	; 0x44
   812e2:	4369      	muls	r1, r5
   812e4:	f101 0020 	add.w	r0, r1, #32
   812e8:	4420      	add	r0, r4
   812ea:	4421      	add	r1, r4
   812ec:	4b03      	ldr	r3, [pc, #12]	; (812fc <timer_do_cylinder+0x3c>)
   812ee:	e8bd 4070 	ldmia.w	sp!, {r4, r5, r6, lr}
   812f2:	4718      	bx	r3
   812f4:	bd70      	pop	{r4, r5, r6, pc}
   812f6:	bf00      	nop
   812f8:	20070df0 	.word	0x20070df0
   812fc:	0008128d 	.word	0x0008128d

00081300 <TC0_Handler>:
   81300:	2000      	movs	r0, #0
   81302:	4b01      	ldr	r3, [pc, #4]	; (81308 <TC0_Handler+0x8>)
   81304:	4718      	bx	r3
   81306:	bf00      	nop
   81308:	000812c1 	.word	0x000812c1

0008130c <TC1_Handler>:
   8130c:	2001      	movs	r0, #1
   8130e:	4b01      	ldr	r3, [pc, #4]	; (81314 <TC1_Handler+0x8>)
   81310:	4718      	bx	r3
   81312:	bf00      	nop
   81314:	000812c1 	.word	0x000812c1

00081318 <TC2_Handler>:
   81318:	2002      	movs	r0, #2
   8131a:	4b01      	ldr	r3, [pc, #4]	; (81320 <TC2_Handler+0x8>)
   8131c:	4718      	bx	r3
   8131e:	bf00      	nop
   81320:	000812c1 	.word	0x000812c1

00081324 <TC3_Handler>:
   81324:	2003      	movs	r0, #3
   81326:	4b01      	ldr	r3, [pc, #4]	; (8132c <TC3_Handler+0x8>)
   81328:	4718      	bx	r3
   8132a:	bf00      	nop
   8132c:	000812c1 	.word	0x000812c1

00081330 <TC4_Handler>:
   81330:	2004      	movs	r0, #4
   81332:	4b01      	ldr	r3, [pc, #4]	; (81338 <TC4_Handler+0x8>)
   81334:	4718      	bx	r3
   81336:	bf00      	nop
   81338:	000812c1 	.word	0x000812c1

0008133c <TC5_Handler>:
   8133c:	2005      	movs	r0, #5
   8133e:	4b01      	ldr	r3, [pc, #4]	; (81344 <TC5_Handler+0x8>)
   81340:	4718      	bx	r3
   81342:	bf00      	nop
   81344:	000812c1 	.word	0x000812c1

00081348 <TC6_Handler>:
   81348:	2006      	movs	r0, #6
   8134a:	4b01      	ldr	r3, [pc, #4]	; (81350 <TC6_Handler+0x8>)
   8134c:	4718      	bx	r3
   8134e:	bf00      	nop
   81350:	000812c1 	.word	0x000812c1

00081354 <TC7_Handler>:
   81354:	2007      	movs	r0, #7
   81356:	4b01      	ldr	r3, [pc, #4]	; (8135c <TC7_Handler+0x8>)
   81358:	4718      	bx	r3
   8135a:	bf00      	nop
   8135c:	000812c1 	.word	0x000812c1

00081360 <TC8_Handler>:
   81360:	b570      	push	{r4, r5, r6, lr}
   81362:	481e      	ldr	r0, [pc, #120]	; (813dc <TC8_Handler+0x7c>)
   81364:	f8d0 5090 	ldr.w	r5, [r0, #144]	; 0x90
   81368:	f8d0 40a0 	ldr.w	r4, [r0, #160]	; 0xa0
   8136c:	0766      	lsls	r6, r4, #29
   8136e:	d50b      	bpl.n	81388 <TC8_Handler+0x28>
   81370:	4b1b      	ldr	r3, [pc, #108]	; (813e0 <TC8_Handler+0x80>)
   81372:	2102      	movs	r1, #2
   81374:	881a      	ldrh	r2, [r3, #0]
   81376:	4b1b      	ldr	r3, [pc, #108]	; (813e4 <TC8_Handler+0x84>)
   81378:	fb93 f2f2 	sdiv	r2, r3, r2
   8137c:	4b1a      	ldr	r3, [pc, #104]	; (813e8 <TC8_Handler+0x88>)
   8137e:	442a      	add	r2, r5
   81380:	4798      	blx	r3
   81382:	481a      	ldr	r0, [pc, #104]	; (813ec <TC8_Handler+0x8c>)
   81384:	4b1a      	ldr	r3, [pc, #104]	; (813f0 <TC8_Handler+0x90>)
   81386:	4798      	blx	r3
   81388:	0721      	lsls	r1, r4, #28
   8138a:	bf42      	ittt	mi
   8138c:	4a13      	ldrmi	r2, [pc, #76]	; (813dc <TC8_Handler+0x7c>)
   8138e:	f605 2341 	addwmi	r3, r5, #2625	; 0xa41
   81392:	f8c2 3098 	strmi.w	r3, [r2, #152]	; 0x98
   81396:	06e2      	lsls	r2, r4, #27
   81398:	d509      	bpl.n	813ae <TC8_Handler+0x4e>
   8139a:	f605 2241 	addw	r2, r5, #2625	; 0xa41
   8139e:	4b15      	ldr	r3, [pc, #84]	; (813f4 <TC8_Handler+0x94>)
   813a0:	2102      	movs	r1, #2
   813a2:	480e      	ldr	r0, [pc, #56]	; (813dc <TC8_Handler+0x7c>)
   813a4:	4798      	blx	r3
   813a6:	4a14      	ldr	r2, [pc, #80]	; (813f8 <TC8_Handler+0x98>)
   813a8:	6813      	ldr	r3, [r2, #0]
   813aa:	3301      	adds	r3, #1
   813ac:	6013      	str	r3, [r2, #0]
   813ae:	07e3      	lsls	r3, r4, #31
   813b0:	d513      	bpl.n	813da <TC8_Handler+0x7a>
   813b2:	4b12      	ldr	r3, [pc, #72]	; (813fc <TC8_Handler+0x9c>)
   813b4:	2201      	movs	r2, #1
   813b6:	701a      	strb	r2, [r3, #0]
   813b8:	4b09      	ldr	r3, [pc, #36]	; (813e0 <TC8_Handler+0x80>)
   813ba:	4a0a      	ldr	r2, [pc, #40]	; (813e4 <TC8_Handler+0x84>)
   813bc:	881b      	ldrh	r3, [r3, #0]
   813be:	2102      	movs	r1, #2
   813c0:	fb92 f2f3 	sdiv	r2, r2, r3
   813c4:	4805      	ldr	r0, [pc, #20]	; (813dc <TC8_Handler+0x7c>)
   813c6:	4b08      	ldr	r3, [pc, #32]	; (813e8 <TC8_Handler+0x88>)
   813c8:	4798      	blx	r3
   813ca:	e8bd 4070 	ldmia.w	sp!, {r4, r5, r6, lr}
   813ce:	f640 2241 	movw	r2, #2625	; 0xa41
   813d2:	2102      	movs	r1, #2
   813d4:	4801      	ldr	r0, [pc, #4]	; (813dc <TC8_Handler+0x7c>)
   813d6:	4b07      	ldr	r3, [pc, #28]	; (813f4 <TC8_Handler+0x94>)
   813d8:	4718      	bx	r3
   813da:	bd70      	pop	{r4, r5, r6, pc}
   813dc:	40088000 	.word	0x40088000
   813e0:	20071aa4 	.word	0x20071aa4
   813e4:	00280de8 	.word	0x00280de8
   813e8:	00080633 	.word	0x00080633
   813ec:	400c0000 	.word	0x400c0000
   813f0:	0008022b 	.word	0x0008022b
   813f4:	0008063b 	.word	0x0008063b
   813f8:	200723ec 	.word	0x200723ec
   813fc:	200709ec 	.word	0x200709ec

00081400 <tunerstudio_init>:
   81400:	4b07      	ldr	r3, [pc, #28]	; (81420 <tunerstudio_init+0x20>)
   81402:	22ff      	movs	r2, #255	; 0xff
   81404:	701a      	strb	r2, [r3, #0]
   81406:	4a07      	ldr	r2, [pc, #28]	; (81424 <tunerstudio_init+0x24>)
   81408:	2300      	movs	r3, #0
   8140a:	7013      	strb	r3, [r2, #0]
   8140c:	4a06      	ldr	r2, [pc, #24]	; (81428 <tunerstudio_init+0x28>)
   8140e:	7013      	strb	r3, [r2, #0]
   81410:	4a06      	ldr	r2, [pc, #24]	; (8142c <tunerstudio_init+0x2c>)
   81412:	7013      	strb	r3, [r2, #0]
   81414:	4a06      	ldr	r2, [pc, #24]	; (81430 <tunerstudio_init+0x30>)
   81416:	7013      	strb	r3, [r2, #0]
   81418:	4a06      	ldr	r2, [pc, #24]	; (81434 <tunerstudio_init+0x34>)
   8141a:	7013      	strb	r3, [r2, #0]
   8141c:	4770      	bx	lr
   8141e:	bf00      	nop
   81420:	200709e0 	.word	0x200709e0
   81424:	200723e9 	.word	0x200723e9
   81428:	20070992 	.word	0x20070992
   8142c:	20071ea8 	.word	0x20071ea8
   81430:	20071ebc 	.word	0x20071ebc
   81434:	20071ea7 	.word	0x20071ea7

00081438 <uart_init>:
   81438:	4b0a      	ldr	r3, [pc, #40]	; (81464 <uart_init+0x2c>)
   8143a:	f44f 7280 	mov.w	r2, #256	; 0x100
   8143e:	611a      	str	r2, [r3, #16]
   81440:	2250      	movs	r2, #80	; 0x50
   81442:	f8c3 2200 	str.w	r2, [r3, #512]	; 0x200
   81446:	f44f 6200 	mov.w	r2, #2048	; 0x800
   8144a:	f8c3 2204 	str.w	r2, [r3, #516]	; 0x204
   8144e:	220b      	movs	r2, #11
   81450:	f8c3 2220 	str.w	r2, [r3, #544]	; 0x220
   81454:	f64f 72ff 	movw	r2, #65535	; 0xffff
   81458:	f8c3 220c 	str.w	r2, [r3, #524]	; 0x20c
   8145c:	4a02      	ldr	r2, [pc, #8]	; (81468 <uart_init+0x30>)
   8145e:	4b03      	ldr	r3, [pc, #12]	; (8146c <uart_init+0x34>)
   81460:	601a      	str	r2, [r3, #0]
   81462:	4770      	bx	lr
   81464:	400e0600 	.word	0x400e0600
   81468:	400e0900 	.word	0x400e0900
   8146c:	20071598 	.word	0x20071598

00081470 <uart_tx_interrupt_init>:
   81470:	b510      	push	{r4, lr}
   81472:	210c      	movs	r1, #12
   81474:	2008      	movs	r0, #8
   81476:	4b0c      	ldr	r3, [pc, #48]	; (814a8 <uart_tx_interrupt_init+0x38>)
   81478:	4798      	blx	r3
   8147a:	2300      	movs	r3, #0
   8147c:	4619      	mov	r1, r3
   8147e:	4c0b      	ldr	r4, [pc, #44]	; (814ac <uart_tx_interrupt_init+0x3c>)
   81480:	480b      	ldr	r0, [pc, #44]	; (814b0 <uart_tx_interrupt_init+0x40>)
   81482:	54e1      	strb	r1, [r4, r3]
   81484:	54c1      	strb	r1, [r0, r3]
   81486:	3301      	adds	r3, #1
   81488:	f5b3 6f80 	cmp.w	r3, #1024	; 0x400
   8148c:	f04f 0200 	mov.w	r2, #0
   81490:	d1f7      	bne.n	81482 <uart_tx_interrupt_init+0x12>
   81492:	4b08      	ldr	r3, [pc, #32]	; (814b4 <uart_tx_interrupt_init+0x44>)
   81494:	801a      	strh	r2, [r3, #0]
   81496:	4b08      	ldr	r3, [pc, #32]	; (814b8 <uart_tx_interrupt_init+0x48>)
   81498:	801a      	strh	r2, [r3, #0]
   8149a:	4b08      	ldr	r3, [pc, #32]	; (814bc <uart_tx_interrupt_init+0x4c>)
   8149c:	801a      	strh	r2, [r3, #0]
   8149e:	4b08      	ldr	r3, [pc, #32]	; (814c0 <uart_tx_interrupt_init+0x50>)
   814a0:	801a      	strh	r2, [r3, #0]
   814a2:	4b08      	ldr	r3, [pc, #32]	; (814c4 <uart_tx_interrupt_init+0x54>)
   814a4:	701a      	strb	r2, [r3, #0]
   814a6:	bd10      	pop	{r4, pc}
   814a8:	00080e81 	.word	0x00080e81
   814ac:	200709ee 	.word	0x200709ee
   814b0:	2007116c 	.word	0x2007116c
   814b4:	20070990 	.word	0x20070990
   814b8:	20070998 	.word	0x20070998
   814bc:	2007161e 	.word	0x2007161e
   814c0:	20071a20 	.word	0x20071a20
   814c4:	20071594 	.word	0x20071594

000814c8 <uart_enable_rx_interrupt>:
   814c8:	b508      	push	{r3, lr}
   814ca:	210c      	movs	r1, #12
   814cc:	4b03      	ldr	r3, [pc, #12]	; (814dc <uart_enable_rx_interrupt+0x14>)
   814ce:	2008      	movs	r0, #8
   814d0:	4798      	blx	r3
   814d2:	4b03      	ldr	r3, [pc, #12]	; (814e0 <uart_enable_rx_interrupt+0x18>)
   814d4:	2201      	movs	r2, #1
   814d6:	609a      	str	r2, [r3, #8]
   814d8:	bd08      	pop	{r3, pc}
   814da:	bf00      	nop
   814dc:	00080e81 	.word	0x00080e81
   814e0:	400e0800 	.word	0x400e0800

000814e4 <uart_transfer>:
   814e4:	4a03      	ldr	r2, [pc, #12]	; (814f4 <uart_transfer+0x10>)
   814e6:	6953      	ldr	r3, [r2, #20]
   814e8:	079b      	lsls	r3, r3, #30
   814ea:	d5fc      	bpl.n	814e6 <uart_transfer+0x2>
   814ec:	4b01      	ldr	r3, [pc, #4]	; (814f4 <uart_transfer+0x10>)
   814ee:	61d8      	str	r0, [r3, #28]
   814f0:	4770      	bx	lr
   814f2:	bf00      	nop
   814f4:	400e0800 	.word	0x400e0800

000814f8 <uart_print_int>:
   814f8:	e92d 41f0 	stmdb	sp!, {r4, r5, r6, r7, r8, lr}
   814fc:	4605      	mov	r5, r0
   814fe:	4c0d      	ldr	r4, [pc, #52]	; (81534 <uart_print_int+0x3c>)
   81500:	f8df 8034 	ldr.w	r8, [pc, #52]	; 81538 <uart_print_int+0x40>
   81504:	2101      	movs	r1, #1
   81506:	2300      	movs	r3, #0
   81508:	270a      	movs	r7, #10
   8150a:	fbb5 f6f4 	udiv	r6, r5, r4
   8150e:	f106 0030 	add.w	r0, r6, #48	; 0x30
   81512:	b2c0      	uxtb	r0, r0
   81514:	2830      	cmp	r0, #48	; 0x30
   81516:	d102      	bne.n	8151e <uart_print_int+0x26>
   81518:	b90b      	cbnz	r3, 8151e <uart_print_int+0x26>
   8151a:	290a      	cmp	r1, #10
   8151c:	d101      	bne.n	81522 <uart_print_int+0x2a>
   8151e:	47c0      	blx	r8
   81520:	2301      	movs	r3, #1
   81522:	3101      	adds	r1, #1
   81524:	290b      	cmp	r1, #11
   81526:	fb04 5516 	mls	r5, r4, r6, r5
   8152a:	fbb4 f4f7 	udiv	r4, r4, r7
   8152e:	d1ec      	bne.n	8150a <uart_print_int+0x12>
   81530:	e8bd 81f0 	ldmia.w	sp!, {r4, r5, r6, r7, r8, pc}
   81534:	3b9aca00 	.word	0x3b9aca00
   81538:	000814e5 	.word	0x000814e5

0008153c <uart_new_line>:
   8153c:	200a      	movs	r0, #10
   8153e:	4b01      	ldr	r3, [pc, #4]	; (81544 <uart_new_line+0x8>)
   81540:	4718      	bx	r3
   81542:	bf00      	nop
   81544:	000814e5 	.word	0x000814e5

00081548 <uart_print_string>:
   81548:	b570      	push	{r4, r5, r6, lr}
   8154a:	4d08      	ldr	r5, [pc, #32]	; (8156c <uart_print_string+0x24>)
   8154c:	1e44      	subs	r4, r0, #1
   8154e:	f100 011e 	add.w	r1, r0, #30
   81552:	f814 0f01 	ldrb.w	r0, [r4, #1]!
   81556:	b118      	cbz	r0, 81560 <uart_print_string+0x18>
   81558:	428c      	cmp	r4, r1
   8155a:	d001      	beq.n	81560 <uart_print_string+0x18>
   8155c:	47a8      	blx	r5
   8155e:	e7f8      	b.n	81552 <uart_print_string+0xa>
   81560:	2020      	movs	r0, #32
   81562:	4b02      	ldr	r3, [pc, #8]	; (8156c <uart_print_string+0x24>)
   81564:	e8bd 4070 	ldmia.w	sp!, {r4, r5, r6, lr}
   81568:	4718      	bx	r3
   8156a:	bf00      	nop
   8156c:	000814e5 	.word	0x000814e5

00081570 <UART_Handler>:
   81570:	b530      	push	{r4, r5, lr}
   81572:	4a1e      	ldr	r2, [pc, #120]	; (815ec <UART_Handler+0x7c>)
   81574:	4c1e      	ldr	r4, [pc, #120]	; (815f0 <UART_Handler+0x80>)
   81576:	6953      	ldr	r3, [r2, #20]
   81578:	8821      	ldrh	r1, [r4, #0]
   8157a:	b289      	uxth	r1, r1
   8157c:	b1b9      	cbz	r1, 815ae <UART_Handler+0x3e>
   8157e:	0798      	lsls	r0, r3, #30
   81580:	d515      	bpl.n	815ae <UART_Handler+0x3e>
   81582:	491c      	ldr	r1, [pc, #112]	; (815f4 <UART_Handler+0x84>)
   81584:	4d1c      	ldr	r5, [pc, #112]	; (815f8 <UART_Handler+0x88>)
   81586:	8808      	ldrh	r0, [r1, #0]
   81588:	b280      	uxth	r0, r0
   8158a:	5c28      	ldrb	r0, [r5, r0]
   8158c:	b2c0      	uxtb	r0, r0
   8158e:	61d0      	str	r0, [r2, #28]
   81590:	8808      	ldrh	r0, [r1, #0]
   81592:	3001      	adds	r0, #1
   81594:	b280      	uxth	r0, r0
   81596:	8008      	strh	r0, [r1, #0]
   81598:	880d      	ldrh	r5, [r1, #0]
   8159a:	8820      	ldrh	r0, [r4, #0]
   8159c:	b2ad      	uxth	r5, r5
   8159e:	b280      	uxth	r0, r0
   815a0:	4285      	cmp	r5, r0
   815a2:	d304      	bcc.n	815ae <UART_Handler+0x3e>
   815a4:	2000      	movs	r0, #0
   815a6:	8020      	strh	r0, [r4, #0]
   815a8:	8008      	strh	r0, [r1, #0]
   815aa:	2102      	movs	r1, #2
   815ac:	60d1      	str	r1, [r2, #12]
   815ae:	07d9      	lsls	r1, r3, #31
   815b0:	d51a      	bpl.n	815e8 <UART_Handler+0x78>
   815b2:	f013 03a0 	ands.w	r3, r3, #160	; 0xa0
   815b6:	6990      	ldr	r0, [r2, #24]
   815b8:	d004      	beq.n	815c4 <UART_Handler+0x54>
   815ba:	4b0c      	ldr	r3, [pc, #48]	; (815ec <UART_Handler+0x7c>)
   815bc:	f44f 7280 	mov.w	r2, #256	; 0x100
   815c0:	601a      	str	r2, [r3, #0]
   815c2:	bd30      	pop	{r4, r5, pc}
   815c4:	4a0d      	ldr	r2, [pc, #52]	; (815fc <UART_Handler+0x8c>)
   815c6:	b2c0      	uxtb	r0, r0
   815c8:	8811      	ldrh	r1, [r2, #0]
   815ca:	b289      	uxth	r1, r1
   815cc:	1c4c      	adds	r4, r1, #1
   815ce:	b2a4      	uxth	r4, r4
   815d0:	8014      	strh	r4, [r2, #0]
   815d2:	4c0b      	ldr	r4, [pc, #44]	; (81600 <UART_Handler+0x90>)
   815d4:	5460      	strb	r0, [r4, r1]
   815d6:	8811      	ldrh	r1, [r2, #0]
   815d8:	b289      	uxth	r1, r1
   815da:	f5b1 6f80 	cmp.w	r1, #1024	; 0x400
   815de:	bf28      	it	cs
   815e0:	8013      	strhcs	r3, [r2, #0]
   815e2:	4b08      	ldr	r3, [pc, #32]	; (81604 <UART_Handler+0x94>)
   815e4:	2201      	movs	r2, #1
   815e6:	701a      	strb	r2, [r3, #0]
   815e8:	bd30      	pop	{r4, r5, pc}
   815ea:	bf00      	nop
   815ec:	400e0800 	.word	0x400e0800
   815f0:	20070998 	.word	0x20070998
   815f4:	20070990 	.word	0x20070990
   815f8:	200709ee 	.word	0x200709ee
   815fc:	20071a20 	.word	0x20071a20
   81600:	2007116c 	.word	0x2007116c
   81604:	20071594 	.word	0x20071594

00081608 <main>:
   81608:	b5f0      	push	{r4, r5, r6, r7, lr}
   8160a:	4b6a      	ldr	r3, [pc, #424]	; (817b4 <main+0x1ac>)
   8160c:	b085      	sub	sp, #20
   8160e:	4798      	blx	r3
   81610:	4b69      	ldr	r3, [pc, #420]	; (817b8 <main+0x1b0>)
   81612:	4798      	blx	r3
   81614:	4c69      	ldr	r4, [pc, #420]	; (817bc <main+0x1b4>)
   81616:	200d      	movs	r0, #13
   81618:	47a0      	blx	r4
   8161a:	200e      	movs	r0, #14
   8161c:	47a0      	blx	r4
   8161e:	2400      	movs	r4, #0
   81620:	4d67      	ldr	r5, [pc, #412]	; (817c0 <main+0x1b8>)
   81622:	4623      	mov	r3, r4
   81624:	4622      	mov	r2, r4
   81626:	f44f 2100 	mov.w	r1, #524288	; 0x80000
   8162a:	4866      	ldr	r0, [pc, #408]	; (817c4 <main+0x1bc>)
   8162c:	9400      	str	r4, [sp, #0]
   8162e:	47a8      	blx	r5
   81630:	4623      	mov	r3, r4
   81632:	4622      	mov	r2, r4
   81634:	f44f 0100 	mov.w	r1, #8388608	; 0x800000
   81638:	4862      	ldr	r0, [pc, #392]	; (817c4 <main+0x1bc>)
   8163a:	9400      	str	r4, [sp, #0]
   8163c:	47a8      	blx	r5
   8163e:	4623      	mov	r3, r4
   81640:	4622      	mov	r2, r4
   81642:	f44f 3100 	mov.w	r1, #131072	; 0x20000
   81646:	485f      	ldr	r0, [pc, #380]	; (817c4 <main+0x1bc>)
   81648:	9400      	str	r4, [sp, #0]
   8164a:	47a8      	blx	r5
   8164c:	4623      	mov	r3, r4
   8164e:	4622      	mov	r2, r4
   81650:	f04f 7100 	mov.w	r1, #33554432	; 0x2000000
   81654:	485b      	ldr	r0, [pc, #364]	; (817c4 <main+0x1bc>)
   81656:	9400      	str	r4, [sp, #0]
   81658:	47a8      	blx	r5
   8165a:	4623      	mov	r3, r4
   8165c:	4622      	mov	r2, r4
   8165e:	f04f 4180 	mov.w	r1, #1073741824	; 0x40000000
   81662:	4858      	ldr	r0, [pc, #352]	; (817c4 <main+0x1bc>)
   81664:	9400      	str	r4, [sp, #0]
   81666:	47a8      	blx	r5
   81668:	4623      	mov	r3, r4
   8166a:	4622      	mov	r2, r4
   8166c:	f04f 5100 	mov.w	r1, #536870912	; 0x20000000
   81670:	4854      	ldr	r0, [pc, #336]	; (817c4 <main+0x1bc>)
   81672:	9400      	str	r4, [sp, #0]
   81674:	47a8      	blx	r5
   81676:	4623      	mov	r3, r4
   81678:	4622      	mov	r2, r4
   8167a:	f04f 5180 	mov.w	r1, #268435456	; 0x10000000
   8167e:	4851      	ldr	r0, [pc, #324]	; (817c4 <main+0x1bc>)
   81680:	9400      	str	r4, [sp, #0]
   81682:	47a8      	blx	r5
   81684:	4623      	mov	r3, r4
   81686:	4622      	mov	r2, r4
   81688:	f04f 6100 	mov.w	r1, #134217728	; 0x8000000
   8168c:	484d      	ldr	r0, [pc, #308]	; (817c4 <main+0x1bc>)
   8168e:	9400      	str	r4, [sp, #0]
   81690:	47a8      	blx	r5
   81692:	4623      	mov	r3, r4
   81694:	4622      	mov	r2, r4
   81696:	f44f 1100 	mov.w	r1, #2097152	; 0x200000
   8169a:	484a      	ldr	r0, [pc, #296]	; (817c4 <main+0x1bc>)
   8169c:	9400      	str	r4, [sp, #0]
   8169e:	47a8      	blx	r5
   816a0:	4623      	mov	r3, r4
   816a2:	4622      	mov	r2, r4
   816a4:	2102      	movs	r1, #2
   816a6:	4847      	ldr	r0, [pc, #284]	; (817c4 <main+0x1bc>)
   816a8:	9400      	str	r4, [sp, #0]
   816aa:	47a8      	blx	r5
   816ac:	4623      	mov	r3, r4
   816ae:	4622      	mov	r2, r4
   816b0:	2101      	movs	r1, #1
   816b2:	4845      	ldr	r0, [pc, #276]	; (817c8 <main+0x1c0>)
   816b4:	9400      	str	r4, [sp, #0]
   816b6:	47a8      	blx	r5
   816b8:	4623      	mov	r3, r4
   816ba:	4622      	mov	r2, r4
   816bc:	2108      	movs	r1, #8
   816be:	4841      	ldr	r0, [pc, #260]	; (817c4 <main+0x1bc>)
   816c0:	9400      	str	r4, [sp, #0]
   816c2:	47a8      	blx	r5
   816c4:	4623      	mov	r3, r4
   816c6:	4622      	mov	r2, r4
   816c8:	2120      	movs	r1, #32
   816ca:	483e      	ldr	r0, [pc, #248]	; (817c4 <main+0x1bc>)
   816cc:	9400      	str	r4, [sp, #0]
   816ce:	47a8      	blx	r5
   816d0:	4623      	mov	r3, r4
   816d2:	4622      	mov	r2, r4
   816d4:	f44f 5100 	mov.w	r1, #8192	; 0x2000
   816d8:	483a      	ldr	r0, [pc, #232]	; (817c4 <main+0x1bc>)
   816da:	9400      	str	r4, [sp, #0]
   816dc:	47a8      	blx	r5
   816de:	4623      	mov	r3, r4
   816e0:	4622      	mov	r2, r4
   816e2:	2180      	movs	r1, #128	; 0x80
   816e4:	4837      	ldr	r0, [pc, #220]	; (817c4 <main+0x1bc>)
   816e6:	9400      	str	r4, [sp, #0]
   816e8:	47a8      	blx	r5
   816ea:	4623      	mov	r3, r4
   816ec:	4622      	mov	r2, r4
   816ee:	f44f 4100 	mov.w	r1, #32768	; 0x8000
   816f2:	4834      	ldr	r0, [pc, #208]	; (817c4 <main+0x1bc>)
   816f4:	9400      	str	r4, [sp, #0]
   816f6:	47a8      	blx	r5
   816f8:	4623      	mov	r3, r4
   816fa:	4622      	mov	r2, r4
   816fc:	f44f 7100 	mov.w	r1, #512	; 0x200
   81700:	4830      	ldr	r0, [pc, #192]	; (817c4 <main+0x1bc>)
   81702:	9400      	str	r4, [sp, #0]
   81704:	47a8      	blx	r5
   81706:	4622      	mov	r2, r4
   81708:	f44f 6100 	mov.w	r1, #2048	; 0x800
   8170c:	482d      	ldr	r0, [pc, #180]	; (817c4 <main+0x1bc>)
   8170e:	4623      	mov	r3, r4
   81710:	9400      	str	r4, [sp, #0]
   81712:	47a8      	blx	r5
   81714:	4b2d      	ldr	r3, [pc, #180]	; (817cc <main+0x1c4>)
   81716:	4798      	blx	r3
   81718:	4b2d      	ldr	r3, [pc, #180]	; (817d0 <main+0x1c8>)
   8171a:	4798      	blx	r3
   8171c:	4b2d      	ldr	r3, [pc, #180]	; (817d4 <main+0x1cc>)
   8171e:	4798      	blx	r3
   81720:	4d2d      	ldr	r5, [pc, #180]	; (817d8 <main+0x1d0>)
   81722:	482e      	ldr	r0, [pc, #184]	; (817dc <main+0x1d4>)
   81724:	4e2e      	ldr	r6, [pc, #184]	; (817e0 <main+0x1d8>)
   81726:	47b0      	blx	r6
   81728:	47a8      	blx	r5
   8172a:	4b2e      	ldr	r3, [pc, #184]	; (817e4 <main+0x1dc>)
   8172c:	4798      	blx	r3
   8172e:	4b2e      	ldr	r3, [pc, #184]	; (817e8 <main+0x1e0>)
   81730:	4798      	blx	r3
   81732:	4b2e      	ldr	r3, [pc, #184]	; (817ec <main+0x1e4>)
   81734:	4798      	blx	r3
   81736:	4b2e      	ldr	r3, [pc, #184]	; (817f0 <main+0x1e8>)
   81738:	2101      	movs	r1, #1
   8173a:	6818      	ldr	r0, [r3, #0]
   8173c:	889a      	ldrh	r2, [r3, #4]
   8173e:	799b      	ldrb	r3, [r3, #6]
   81740:	9002      	str	r0, [sp, #8]
   81742:	f8ad 200c 	strh.w	r2, [sp, #12]
   81746:	f88d 300e 	strb.w	r3, [sp, #14]
   8174a:	220a      	movs	r2, #10
   8174c:	a802      	add	r0, sp, #8
   8174e:	4b29      	ldr	r3, [pc, #164]	; (817f4 <main+0x1ec>)
   81750:	4798      	blx	r3
   81752:	4829      	ldr	r0, [pc, #164]	; (817f8 <main+0x1f0>)
   81754:	4b29      	ldr	r3, [pc, #164]	; (817fc <main+0x1f4>)
   81756:	4798      	blx	r3
   81758:	4f29      	ldr	r7, [pc, #164]	; (81800 <main+0x1f8>)
   8175a:	2309      	movs	r3, #9
   8175c:	221d      	movs	r2, #29
   8175e:	f248 4102 	movw	r1, #33794	; 0x8402
   81762:	2008      	movs	r0, #8
   81764:	47b8      	blx	r7
   81766:	4b27      	ldr	r3, [pc, #156]	; (81804 <main+0x1fc>)
   81768:	4a27      	ldr	r2, [pc, #156]	; (81808 <main+0x200>)
   8176a:	881b      	ldrh	r3, [r3, #0]
   8176c:	2102      	movs	r1, #2
   8176e:	fb92 f2f3 	sdiv	r2, r2, r3
   81772:	4826      	ldr	r0, [pc, #152]	; (8180c <main+0x204>)
   81774:	4b26      	ldr	r3, [pc, #152]	; (81810 <main+0x208>)
   81776:	4798      	blx	r3
   81778:	f640 2241 	movw	r2, #2625	; 0xa41
   8177c:	2102      	movs	r1, #2
   8177e:	4823      	ldr	r0, [pc, #140]	; (8180c <main+0x204>)
   81780:	4b24      	ldr	r3, [pc, #144]	; (81814 <main+0x20c>)
   81782:	4798      	blx	r3
   81784:	4b24      	ldr	r3, [pc, #144]	; (81818 <main+0x210>)
   81786:	4798      	blx	r3
   81788:	4b24      	ldr	r3, [pc, #144]	; (8181c <main+0x214>)
   8178a:	4798      	blx	r3
   8178c:	4f24      	ldr	r7, [pc, #144]	; (81820 <main+0x218>)
   8178e:	2302      	movs	r3, #2
   81790:	4622      	mov	r2, r4
   81792:	2180      	movs	r1, #128	; 0x80
   81794:	200b      	movs	r0, #11
   81796:	47b8      	blx	r7
   81798:	2302      	movs	r3, #2
   8179a:	4622      	mov	r2, r4
   8179c:	f44f 4100 	mov.w	r1, #32768	; 0x8000
   817a0:	200b      	movs	r0, #11
   817a2:	47b8      	blx	r7
   817a4:	481f      	ldr	r0, [pc, #124]	; (81824 <main+0x21c>)
   817a6:	47b0      	blx	r6
   817a8:	47a8      	blx	r5
   817aa:	2080      	movs	r0, #128	; 0x80
   817ac:	4b1e      	ldr	r3, [pc, #120]	; (81828 <main+0x220>)
   817ae:	4798      	blx	r3
   817b0:	47a8      	blx	r5
   817b2:	e7fe      	b.n	817b2 <main+0x1aa>
   817b4:	00080249 	.word	0x00080249
   817b8:	000802b1 	.word	0x000802b1
   817bc:	000805d5 	.word	0x000805d5
   817c0:	0008039d 	.word	0x0008039d
   817c4:	400e1200 	.word	0x400e1200
   817c8:	400e1400 	.word	0x400e1400
   817cc:	00081439 	.word	0x00081439
   817d0:	000814c9 	.word	0x000814c9
   817d4:	00081471 	.word	0x00081471
   817d8:	0008153d 	.word	0x0008153d
   817dc:	0008217a 	.word	0x0008217a
   817e0:	00081549 	.word	0x00081549
   817e4:	00080a99 	.word	0x00080a99
   817e8:	00080cc9 	.word	0x00080cc9
   817ec:	0008095d 	.word	0x0008095d
   817f0:	00082173 	.word	0x00082173
   817f4:	000809f5 	.word	0x000809f5
   817f8:	400c0000 	.word	0x400c0000
   817fc:	0008022b 	.word	0x0008022b
   81800:	000811f9 	.word	0x000811f9
   81804:	20071aa4 	.word	0x20071aa4
   81808:	00280de8 	.word	0x00280de8
   8180c:	40088000 	.word	0x40088000
   81810:	00080633 	.word	0x00080633
   81814:	0008063b 	.word	0x0008063b
   81818:	0008108d 	.word	0x0008108d
   8181c:	00081401 	.word	0x00081401
   81820:	00080ed5 	.word	0x00080ed5
   81824:	00082185 	.word	0x00082185
   81828:	000814f9 	.word	0x000814f9

0008182c <__libc_init_array>:
   8182c:	b570      	push	{r4, r5, r6, lr}
   8182e:	4e0f      	ldr	r6, [pc, #60]	; (8186c <__libc_init_array+0x40>)
   81830:	4d0f      	ldr	r5, [pc, #60]	; (81870 <__libc_init_array+0x44>)
   81832:	1b76      	subs	r6, r6, r5
   81834:	10b6      	asrs	r6, r6, #2
   81836:	bf18      	it	ne
   81838:	2400      	movne	r4, #0
   8183a:	d005      	beq.n	81848 <__libc_init_array+0x1c>
   8183c:	3401      	adds	r4, #1
   8183e:	f855 3b04 	ldr.w	r3, [r5], #4
   81842:	4798      	blx	r3
   81844:	42a6      	cmp	r6, r4
   81846:	d1f9      	bne.n	8183c <__libc_init_array+0x10>
   81848:	4e0a      	ldr	r6, [pc, #40]	; (81874 <__libc_init_array+0x48>)
   8184a:	4d0b      	ldr	r5, [pc, #44]	; (81878 <__libc_init_array+0x4c>)
   8184c:	f000 fca4 	bl	82198 <_init>
   81850:	1b76      	subs	r6, r6, r5
   81852:	10b6      	asrs	r6, r6, #2
   81854:	bf18      	it	ne
   81856:	2400      	movne	r4, #0
   81858:	d006      	beq.n	81868 <__libc_init_array+0x3c>
   8185a:	3401      	adds	r4, #1
   8185c:	f855 3b04 	ldr.w	r3, [r5], #4
   81860:	4798      	blx	r3
   81862:	42a6      	cmp	r6, r4
   81864:	d1f9      	bne.n	8185a <__libc_init_array+0x2e>
   81866:	bd70      	pop	{r4, r5, r6, pc}
   81868:	bd70      	pop	{r4, r5, r6, pc}
   8186a:	bf00      	nop
   8186c:	000821a4 	.word	0x000821a4
   81870:	000821a4 	.word	0x000821a4
   81874:	000821ac 	.word	0x000821ac
   81878:	000821a4 	.word	0x000821a4

0008187c <malloc>:
   8187c:	4b02      	ldr	r3, [pc, #8]	; (81888 <malloc+0xc>)
   8187e:	4601      	mov	r1, r0
   81880:	6818      	ldr	r0, [r3, #0]
   81882:	f000 b803 	b.w	8188c <_malloc_r>
   81886:	bf00      	nop
   81888:	20070518 	.word	0x20070518

0008188c <_malloc_r>:
   8188c:	e92d 4ff0 	stmdb	sp!, {r4, r5, r6, r7, r8, r9, sl, fp, lr}
   81890:	f101 050b 	add.w	r5, r1, #11
   81894:	2d16      	cmp	r5, #22
   81896:	b083      	sub	sp, #12
   81898:	4606      	mov	r6, r0
   8189a:	f240 80a0 	bls.w	819de <_malloc_r+0x152>
   8189e:	f035 0507 	bics.w	r5, r5, #7
   818a2:	f100 80c0 	bmi.w	81a26 <_malloc_r+0x19a>
   818a6:	42a9      	cmp	r1, r5
   818a8:	f200 80bd 	bhi.w	81a26 <_malloc_r+0x19a>
   818ac:	f000 fa9a 	bl	81de4 <__malloc_lock>
   818b0:	f5b5 7ffc 	cmp.w	r5, #504	; 0x1f8
   818b4:	f0c0 8290 	bcc.w	81dd8 <_malloc_r+0x54c>
   818b8:	0a6b      	lsrs	r3, r5, #9
   818ba:	f000 80bb 	beq.w	81a34 <_malloc_r+0x1a8>
   818be:	2b04      	cmp	r3, #4
   818c0:	f200 8177 	bhi.w	81bb2 <_malloc_r+0x326>
   818c4:	09a8      	lsrs	r0, r5, #6
   818c6:	f100 0e39 	add.w	lr, r0, #57	; 0x39
   818ca:	ea4f 014e 	mov.w	r1, lr, lsl #1
   818ce:	3038      	adds	r0, #56	; 0x38
   818d0:	4fbe      	ldr	r7, [pc, #760]	; (81bcc <_malloc_r+0x340>)
   818d2:	eb07 0181 	add.w	r1, r7, r1, lsl #2
   818d6:	684c      	ldr	r4, [r1, #4]
   818d8:	3908      	subs	r1, #8
   818da:	42a1      	cmp	r1, r4
   818dc:	d107      	bne.n	818ee <_malloc_r+0x62>
   818de:	e0ae      	b.n	81a3e <_malloc_r+0x1b2>
   818e0:	2a00      	cmp	r2, #0
   818e2:	f280 80ae 	bge.w	81a42 <_malloc_r+0x1b6>
   818e6:	68e4      	ldr	r4, [r4, #12]
   818e8:	42a1      	cmp	r1, r4
   818ea:	f000 80a8 	beq.w	81a3e <_malloc_r+0x1b2>
   818ee:	6863      	ldr	r3, [r4, #4]
   818f0:	f023 0303 	bic.w	r3, r3, #3
   818f4:	1b5a      	subs	r2, r3, r5
   818f6:	2a0f      	cmp	r2, #15
   818f8:	ddf2      	ble.n	818e0 <_malloc_r+0x54>
   818fa:	49b4      	ldr	r1, [pc, #720]	; (81bcc <_malloc_r+0x340>)
   818fc:	693c      	ldr	r4, [r7, #16]
   818fe:	f101 0e08 	add.w	lr, r1, #8
   81902:	4574      	cmp	r4, lr
   81904:	f000 81a8 	beq.w	81c58 <_malloc_r+0x3cc>
   81908:	6863      	ldr	r3, [r4, #4]
   8190a:	f023 0303 	bic.w	r3, r3, #3
   8190e:	1b5a      	subs	r2, r3, r5
   81910:	2a0f      	cmp	r2, #15
   81912:	f300 818e 	bgt.w	81c32 <_malloc_r+0x3a6>
   81916:	2a00      	cmp	r2, #0
   81918:	f8c1 e014 	str.w	lr, [r1, #20]
   8191c:	f8c1 e010 	str.w	lr, [r1, #16]
   81920:	f280 8093 	bge.w	81a4a <_malloc_r+0x1be>
   81924:	f5b3 7f00 	cmp.w	r3, #512	; 0x200
   81928:	f080 815c 	bcs.w	81be4 <_malloc_r+0x358>
   8192c:	08db      	lsrs	r3, r3, #3
   8192e:	684a      	ldr	r2, [r1, #4]
   81930:	ea4f 09a3 	mov.w	r9, r3, asr #2
   81934:	f04f 0c01 	mov.w	ip, #1
   81938:	3301      	adds	r3, #1
   8193a:	f851 8033 	ldr.w	r8, [r1, r3, lsl #3]
   8193e:	fa0c f909 	lsl.w	r9, ip, r9
   81942:	eb01 0cc3 	add.w	ip, r1, r3, lsl #3
   81946:	ea49 0202 	orr.w	r2, r9, r2
   8194a:	f1ac 0c08 	sub.w	ip, ip, #8
   8194e:	f8c4 c00c 	str.w	ip, [r4, #12]
   81952:	f8c4 8008 	str.w	r8, [r4, #8]
   81956:	604a      	str	r2, [r1, #4]
   81958:	f841 4033 	str.w	r4, [r1, r3, lsl #3]
   8195c:	f8c8 400c 	str.w	r4, [r8, #12]
   81960:	1083      	asrs	r3, r0, #2
   81962:	2401      	movs	r4, #1
   81964:	409c      	lsls	r4, r3
   81966:	4294      	cmp	r4, r2
   81968:	d87c      	bhi.n	81a64 <_malloc_r+0x1d8>
   8196a:	4214      	tst	r4, r2
   8196c:	d106      	bne.n	8197c <_malloc_r+0xf0>
   8196e:	f020 0003 	bic.w	r0, r0, #3
   81972:	0064      	lsls	r4, r4, #1
   81974:	4214      	tst	r4, r2
   81976:	f100 0004 	add.w	r0, r0, #4
   8197a:	d0fa      	beq.n	81972 <_malloc_r+0xe6>
   8197c:	eb07 09c0 	add.w	r9, r7, r0, lsl #3
   81980:	46cc      	mov	ip, r9
   81982:	4680      	mov	r8, r0
   81984:	f8dc 100c 	ldr.w	r1, [ip, #12]
   81988:	458c      	cmp	ip, r1
   8198a:	d107      	bne.n	8199c <_malloc_r+0x110>
   8198c:	e166      	b.n	81c5c <_malloc_r+0x3d0>
   8198e:	2a00      	cmp	r2, #0
   81990:	f280 8174 	bge.w	81c7c <_malloc_r+0x3f0>
   81994:	68c9      	ldr	r1, [r1, #12]
   81996:	458c      	cmp	ip, r1
   81998:	f000 8160 	beq.w	81c5c <_malloc_r+0x3d0>
   8199c:	684b      	ldr	r3, [r1, #4]
   8199e:	f023 0303 	bic.w	r3, r3, #3
   819a2:	1b5a      	subs	r2, r3, r5
   819a4:	2a0f      	cmp	r2, #15
   819a6:	ddf2      	ble.n	8198e <_malloc_r+0x102>
   819a8:	460c      	mov	r4, r1
   819aa:	68cb      	ldr	r3, [r1, #12]
   819ac:	f854 cf08 	ldr.w	ip, [r4, #8]!
   819b0:	f045 0801 	orr.w	r8, r5, #1
   819b4:	f8c1 8004 	str.w	r8, [r1, #4]
   819b8:	440d      	add	r5, r1
   819ba:	f042 0101 	orr.w	r1, r2, #1
   819be:	f8cc 300c 	str.w	r3, [ip, #12]
   819c2:	4630      	mov	r0, r6
   819c4:	f8c3 c008 	str.w	ip, [r3, #8]
   819c8:	617d      	str	r5, [r7, #20]
   819ca:	613d      	str	r5, [r7, #16]
   819cc:	f8c5 e00c 	str.w	lr, [r5, #12]
   819d0:	f8c5 e008 	str.w	lr, [r5, #8]
   819d4:	6069      	str	r1, [r5, #4]
   819d6:	50aa      	str	r2, [r5, r2]
   819d8:	f000 fa06 	bl	81de8 <__malloc_unlock>
   819dc:	e01f      	b.n	81a1e <_malloc_r+0x192>
   819de:	2910      	cmp	r1, #16
   819e0:	d821      	bhi.n	81a26 <_malloc_r+0x19a>
   819e2:	f000 f9ff 	bl	81de4 <__malloc_lock>
   819e6:	2510      	movs	r5, #16
   819e8:	2306      	movs	r3, #6
   819ea:	2002      	movs	r0, #2
   819ec:	4f77      	ldr	r7, [pc, #476]	; (81bcc <_malloc_r+0x340>)
   819ee:	eb07 0383 	add.w	r3, r7, r3, lsl #2
   819f2:	685c      	ldr	r4, [r3, #4]
   819f4:	f1a3 0208 	sub.w	r2, r3, #8
   819f8:	4294      	cmp	r4, r2
   819fa:	f000 8138 	beq.w	81c6e <_malloc_r+0x3e2>
   819fe:	6863      	ldr	r3, [r4, #4]
   81a00:	68e1      	ldr	r1, [r4, #12]
   81a02:	f023 0303 	bic.w	r3, r3, #3
   81a06:	4423      	add	r3, r4
   81a08:	685a      	ldr	r2, [r3, #4]
   81a0a:	68a5      	ldr	r5, [r4, #8]
   81a0c:	f042 0201 	orr.w	r2, r2, #1
   81a10:	60e9      	str	r1, [r5, #12]
   81a12:	4630      	mov	r0, r6
   81a14:	608d      	str	r5, [r1, #8]
   81a16:	605a      	str	r2, [r3, #4]
   81a18:	f000 f9e6 	bl	81de8 <__malloc_unlock>
   81a1c:	3408      	adds	r4, #8
   81a1e:	4620      	mov	r0, r4
   81a20:	b003      	add	sp, #12
   81a22:	e8bd 8ff0 	ldmia.w	sp!, {r4, r5, r6, r7, r8, r9, sl, fp, pc}
   81a26:	2400      	movs	r4, #0
   81a28:	4620      	mov	r0, r4
   81a2a:	230c      	movs	r3, #12
   81a2c:	6033      	str	r3, [r6, #0]
   81a2e:	b003      	add	sp, #12
   81a30:	e8bd 8ff0 	ldmia.w	sp!, {r4, r5, r6, r7, r8, r9, sl, fp, pc}
   81a34:	2180      	movs	r1, #128	; 0x80
   81a36:	f04f 0e40 	mov.w	lr, #64	; 0x40
   81a3a:	203f      	movs	r0, #63	; 0x3f
   81a3c:	e748      	b.n	818d0 <_malloc_r+0x44>
   81a3e:	4670      	mov	r0, lr
   81a40:	e75b      	b.n	818fa <_malloc_r+0x6e>
   81a42:	4423      	add	r3, r4
   81a44:	685a      	ldr	r2, [r3, #4]
   81a46:	68e1      	ldr	r1, [r4, #12]
   81a48:	e7df      	b.n	81a0a <_malloc_r+0x17e>
   81a4a:	4423      	add	r3, r4
   81a4c:	685a      	ldr	r2, [r3, #4]
   81a4e:	4630      	mov	r0, r6
   81a50:	f042 0201 	orr.w	r2, r2, #1
   81a54:	605a      	str	r2, [r3, #4]
   81a56:	3408      	adds	r4, #8
   81a58:	f000 f9c6 	bl	81de8 <__malloc_unlock>
   81a5c:	4620      	mov	r0, r4
   81a5e:	b003      	add	sp, #12
   81a60:	e8bd 8ff0 	ldmia.w	sp!, {r4, r5, r6, r7, r8, r9, sl, fp, pc}
   81a64:	68bc      	ldr	r4, [r7, #8]
   81a66:	6863      	ldr	r3, [r4, #4]
   81a68:	f023 0803 	bic.w	r8, r3, #3
   81a6c:	45a8      	cmp	r8, r5
   81a6e:	d304      	bcc.n	81a7a <_malloc_r+0x1ee>
   81a70:	ebc5 0308 	rsb	r3, r5, r8
   81a74:	2b0f      	cmp	r3, #15
   81a76:	f300 808c 	bgt.w	81b92 <_malloc_r+0x306>
   81a7a:	4b55      	ldr	r3, [pc, #340]	; (81bd0 <_malloc_r+0x344>)
   81a7c:	f8df 9160 	ldr.w	r9, [pc, #352]	; 81be0 <_malloc_r+0x354>
   81a80:	681a      	ldr	r2, [r3, #0]
   81a82:	f8d9 3000 	ldr.w	r3, [r9]
   81a86:	442a      	add	r2, r5
   81a88:	3301      	adds	r3, #1
   81a8a:	eb04 0a08 	add.w	sl, r4, r8
   81a8e:	f000 8160 	beq.w	81d52 <_malloc_r+0x4c6>
   81a92:	f502 5280 	add.w	r2, r2, #4096	; 0x1000
   81a96:	320f      	adds	r2, #15
   81a98:	f422 627f 	bic.w	r2, r2, #4080	; 0xff0
   81a9c:	f022 020f 	bic.w	r2, r2, #15
   81aa0:	4611      	mov	r1, r2
   81aa2:	4630      	mov	r0, r6
   81aa4:	9201      	str	r2, [sp, #4]
   81aa6:	f000 f9a1 	bl	81dec <_sbrk_r>
   81aaa:	f1b0 3fff 	cmp.w	r0, #4294967295
   81aae:	4683      	mov	fp, r0
   81ab0:	9a01      	ldr	r2, [sp, #4]
   81ab2:	f000 8158 	beq.w	81d66 <_malloc_r+0x4da>
   81ab6:	4582      	cmp	sl, r0
   81ab8:	f200 80fc 	bhi.w	81cb4 <_malloc_r+0x428>
   81abc:	4b45      	ldr	r3, [pc, #276]	; (81bd4 <_malloc_r+0x348>)
   81abe:	45da      	cmp	sl, fp
   81ac0:	6819      	ldr	r1, [r3, #0]
   81ac2:	4411      	add	r1, r2
   81ac4:	6019      	str	r1, [r3, #0]
   81ac6:	f000 8153 	beq.w	81d70 <_malloc_r+0x4e4>
   81aca:	f8d9 0000 	ldr.w	r0, [r9]
   81ace:	f8df e110 	ldr.w	lr, [pc, #272]	; 81be0 <_malloc_r+0x354>
   81ad2:	3001      	adds	r0, #1
   81ad4:	bf1b      	ittet	ne
   81ad6:	ebca 0a0b 	rsbne	sl, sl, fp
   81ada:	4451      	addne	r1, sl
   81adc:	f8ce b000 	streq.w	fp, [lr]
   81ae0:	6019      	strne	r1, [r3, #0]
   81ae2:	f01b 0107 	ands.w	r1, fp, #7
   81ae6:	f000 8117 	beq.w	81d18 <_malloc_r+0x48c>
   81aea:	f1c1 0008 	rsb	r0, r1, #8
   81aee:	f5c1 5180 	rsb	r1, r1, #4096	; 0x1000
   81af2:	4483      	add	fp, r0
   81af4:	3108      	adds	r1, #8
   81af6:	445a      	add	r2, fp
   81af8:	f3c2 020b 	ubfx	r2, r2, #0, #12
   81afc:	ebc2 0901 	rsb	r9, r2, r1
   81b00:	4649      	mov	r1, r9
   81b02:	4630      	mov	r0, r6
   81b04:	9301      	str	r3, [sp, #4]
   81b06:	f000 f971 	bl	81dec <_sbrk_r>
   81b0a:	1c43      	adds	r3, r0, #1
   81b0c:	9b01      	ldr	r3, [sp, #4]
   81b0e:	f000 813f 	beq.w	81d90 <_malloc_r+0x504>
   81b12:	ebcb 0200 	rsb	r2, fp, r0
   81b16:	444a      	add	r2, r9
   81b18:	f042 0201 	orr.w	r2, r2, #1
   81b1c:	6819      	ldr	r1, [r3, #0]
   81b1e:	42bc      	cmp	r4, r7
   81b20:	4449      	add	r1, r9
   81b22:	f8c7 b008 	str.w	fp, [r7, #8]
   81b26:	6019      	str	r1, [r3, #0]
   81b28:	f8cb 2004 	str.w	r2, [fp, #4]
   81b2c:	f8df 90a4 	ldr.w	r9, [pc, #164]	; 81bd4 <_malloc_r+0x348>
   81b30:	d016      	beq.n	81b60 <_malloc_r+0x2d4>
   81b32:	f1b8 0f0f 	cmp.w	r8, #15
   81b36:	f240 80fd 	bls.w	81d34 <_malloc_r+0x4a8>
   81b3a:	6862      	ldr	r2, [r4, #4]
   81b3c:	f1a8 030c 	sub.w	r3, r8, #12
   81b40:	f023 0307 	bic.w	r3, r3, #7
   81b44:	f002 0201 	and.w	r2, r2, #1
   81b48:	18e0      	adds	r0, r4, r3
   81b4a:	f04f 0e05 	mov.w	lr, #5
   81b4e:	431a      	orrs	r2, r3
   81b50:	2b0f      	cmp	r3, #15
   81b52:	6062      	str	r2, [r4, #4]
   81b54:	f8c0 e004 	str.w	lr, [r0, #4]
   81b58:	f8c0 e008 	str.w	lr, [r0, #8]
   81b5c:	f200 811c 	bhi.w	81d98 <_malloc_r+0x50c>
   81b60:	4b1d      	ldr	r3, [pc, #116]	; (81bd8 <_malloc_r+0x34c>)
   81b62:	68bc      	ldr	r4, [r7, #8]
   81b64:	681a      	ldr	r2, [r3, #0]
   81b66:	4291      	cmp	r1, r2
   81b68:	bf88      	it	hi
   81b6a:	6019      	strhi	r1, [r3, #0]
   81b6c:	4b1b      	ldr	r3, [pc, #108]	; (81bdc <_malloc_r+0x350>)
   81b6e:	681a      	ldr	r2, [r3, #0]
   81b70:	4291      	cmp	r1, r2
   81b72:	6862      	ldr	r2, [r4, #4]
   81b74:	bf88      	it	hi
   81b76:	6019      	strhi	r1, [r3, #0]
   81b78:	f022 0203 	bic.w	r2, r2, #3
   81b7c:	4295      	cmp	r5, r2
   81b7e:	eba2 0305 	sub.w	r3, r2, r5
   81b82:	d801      	bhi.n	81b88 <_malloc_r+0x2fc>
   81b84:	2b0f      	cmp	r3, #15
   81b86:	dc04      	bgt.n	81b92 <_malloc_r+0x306>
   81b88:	4630      	mov	r0, r6
   81b8a:	f000 f92d 	bl	81de8 <__malloc_unlock>
   81b8e:	2400      	movs	r4, #0
   81b90:	e745      	b.n	81a1e <_malloc_r+0x192>
   81b92:	f045 0201 	orr.w	r2, r5, #1
   81b96:	f043 0301 	orr.w	r3, r3, #1
   81b9a:	4425      	add	r5, r4
   81b9c:	6062      	str	r2, [r4, #4]
   81b9e:	4630      	mov	r0, r6
   81ba0:	60bd      	str	r5, [r7, #8]
   81ba2:	3408      	adds	r4, #8
   81ba4:	606b      	str	r3, [r5, #4]
   81ba6:	f000 f91f 	bl	81de8 <__malloc_unlock>
   81baa:	4620      	mov	r0, r4
   81bac:	b003      	add	sp, #12
   81bae:	e8bd 8ff0 	ldmia.w	sp!, {r4, r5, r6, r7, r8, r9, sl, fp, pc}
   81bb2:	2b14      	cmp	r3, #20
   81bb4:	d971      	bls.n	81c9a <_malloc_r+0x40e>
   81bb6:	2b54      	cmp	r3, #84	; 0x54
   81bb8:	f200 80a4 	bhi.w	81d04 <_malloc_r+0x478>
   81bbc:	0b28      	lsrs	r0, r5, #12
   81bbe:	f100 0e6f 	add.w	lr, r0, #111	; 0x6f
   81bc2:	ea4f 014e 	mov.w	r1, lr, lsl #1
   81bc6:	306e      	adds	r0, #110	; 0x6e
   81bc8:	e682      	b.n	818d0 <_malloc_r+0x44>
   81bca:	bf00      	nop
   81bcc:	2007051c 	.word	0x2007051c
   81bd0:	20070954 	.word	0x20070954
   81bd4:	20070958 	.word	0x20070958
   81bd8:	20070950 	.word	0x20070950
   81bdc:	2007094c 	.word	0x2007094c
   81be0:	20070928 	.word	0x20070928
   81be4:	0a5a      	lsrs	r2, r3, #9
   81be6:	2a04      	cmp	r2, #4
   81be8:	d95e      	bls.n	81ca8 <_malloc_r+0x41c>
   81bea:	2a14      	cmp	r2, #20
   81bec:	f200 80b3 	bhi.w	81d56 <_malloc_r+0x4ca>
   81bf0:	f102 015c 	add.w	r1, r2, #92	; 0x5c
   81bf4:	0049      	lsls	r1, r1, #1
   81bf6:	325b      	adds	r2, #91	; 0x5b
   81bf8:	eb07 0c81 	add.w	ip, r7, r1, lsl #2
   81bfc:	f857 1021 	ldr.w	r1, [r7, r1, lsl #2]
   81c00:	f1ac 0c08 	sub.w	ip, ip, #8
   81c04:	458c      	cmp	ip, r1
   81c06:	f8df 81d8 	ldr.w	r8, [pc, #472]	; 81de0 <_malloc_r+0x554>
   81c0a:	f000 8088 	beq.w	81d1e <_malloc_r+0x492>
   81c0e:	684a      	ldr	r2, [r1, #4]
   81c10:	f022 0203 	bic.w	r2, r2, #3
   81c14:	4293      	cmp	r3, r2
   81c16:	d202      	bcs.n	81c1e <_malloc_r+0x392>
   81c18:	6889      	ldr	r1, [r1, #8]
   81c1a:	458c      	cmp	ip, r1
   81c1c:	d1f7      	bne.n	81c0e <_malloc_r+0x382>
   81c1e:	f8d1 c00c 	ldr.w	ip, [r1, #12]
   81c22:	687a      	ldr	r2, [r7, #4]
   81c24:	f8c4 c00c 	str.w	ip, [r4, #12]
   81c28:	60a1      	str	r1, [r4, #8]
   81c2a:	f8cc 4008 	str.w	r4, [ip, #8]
   81c2e:	60cc      	str	r4, [r1, #12]
   81c30:	e696      	b.n	81960 <_malloc_r+0xd4>
   81c32:	f045 0701 	orr.w	r7, r5, #1
   81c36:	f042 0301 	orr.w	r3, r2, #1
   81c3a:	4425      	add	r5, r4
   81c3c:	6067      	str	r7, [r4, #4]
   81c3e:	4630      	mov	r0, r6
   81c40:	614d      	str	r5, [r1, #20]
   81c42:	610d      	str	r5, [r1, #16]
   81c44:	f8c5 e00c 	str.w	lr, [r5, #12]
   81c48:	f8c5 e008 	str.w	lr, [r5, #8]
   81c4c:	606b      	str	r3, [r5, #4]
   81c4e:	50aa      	str	r2, [r5, r2]
   81c50:	3408      	adds	r4, #8
   81c52:	f000 f8c9 	bl	81de8 <__malloc_unlock>
   81c56:	e6e2      	b.n	81a1e <_malloc_r+0x192>
   81c58:	684a      	ldr	r2, [r1, #4]
   81c5a:	e681      	b.n	81960 <_malloc_r+0xd4>
   81c5c:	f108 0801 	add.w	r8, r8, #1
   81c60:	f018 0f03 	tst.w	r8, #3
   81c64:	f10c 0c08 	add.w	ip, ip, #8
   81c68:	f47f ae8c 	bne.w	81984 <_malloc_r+0xf8>
   81c6c:	e030      	b.n	81cd0 <_malloc_r+0x444>
   81c6e:	68dc      	ldr	r4, [r3, #12]
   81c70:	42a3      	cmp	r3, r4
   81c72:	bf08      	it	eq
   81c74:	3002      	addeq	r0, #2
   81c76:	f43f ae40 	beq.w	818fa <_malloc_r+0x6e>
   81c7a:	e6c0      	b.n	819fe <_malloc_r+0x172>
   81c7c:	460c      	mov	r4, r1
   81c7e:	440b      	add	r3, r1
   81c80:	685a      	ldr	r2, [r3, #4]
   81c82:	68c9      	ldr	r1, [r1, #12]
   81c84:	f854 5f08 	ldr.w	r5, [r4, #8]!
   81c88:	f042 0201 	orr.w	r2, r2, #1
   81c8c:	605a      	str	r2, [r3, #4]
   81c8e:	4630      	mov	r0, r6
   81c90:	60e9      	str	r1, [r5, #12]
   81c92:	608d      	str	r5, [r1, #8]
   81c94:	f000 f8a8 	bl	81de8 <__malloc_unlock>
   81c98:	e6c1      	b.n	81a1e <_malloc_r+0x192>
   81c9a:	f103 0e5c 	add.w	lr, r3, #92	; 0x5c
   81c9e:	f103 005b 	add.w	r0, r3, #91	; 0x5b
   81ca2:	ea4f 014e 	mov.w	r1, lr, lsl #1
   81ca6:	e613      	b.n	818d0 <_malloc_r+0x44>
   81ca8:	099a      	lsrs	r2, r3, #6
   81caa:	f102 0139 	add.w	r1, r2, #57	; 0x39
   81cae:	0049      	lsls	r1, r1, #1
   81cb0:	3238      	adds	r2, #56	; 0x38
   81cb2:	e7a1      	b.n	81bf8 <_malloc_r+0x36c>
   81cb4:	42bc      	cmp	r4, r7
   81cb6:	4b4a      	ldr	r3, [pc, #296]	; (81de0 <_malloc_r+0x554>)
   81cb8:	f43f af00 	beq.w	81abc <_malloc_r+0x230>
   81cbc:	689c      	ldr	r4, [r3, #8]
   81cbe:	6862      	ldr	r2, [r4, #4]
   81cc0:	f022 0203 	bic.w	r2, r2, #3
   81cc4:	e75a      	b.n	81b7c <_malloc_r+0x2f0>
   81cc6:	f859 3908 	ldr.w	r3, [r9], #-8
   81cca:	4599      	cmp	r9, r3
   81ccc:	f040 8082 	bne.w	81dd4 <_malloc_r+0x548>
   81cd0:	f010 0f03 	tst.w	r0, #3
   81cd4:	f100 30ff 	add.w	r0, r0, #4294967295
   81cd8:	d1f5      	bne.n	81cc6 <_malloc_r+0x43a>
   81cda:	687b      	ldr	r3, [r7, #4]
   81cdc:	ea23 0304 	bic.w	r3, r3, r4
   81ce0:	607b      	str	r3, [r7, #4]
   81ce2:	0064      	lsls	r4, r4, #1
   81ce4:	429c      	cmp	r4, r3
   81ce6:	f63f aebd 	bhi.w	81a64 <_malloc_r+0x1d8>
   81cea:	2c00      	cmp	r4, #0
   81cec:	f43f aeba 	beq.w	81a64 <_malloc_r+0x1d8>
   81cf0:	421c      	tst	r4, r3
   81cf2:	4640      	mov	r0, r8
   81cf4:	f47f ae42 	bne.w	8197c <_malloc_r+0xf0>
   81cf8:	0064      	lsls	r4, r4, #1
   81cfa:	421c      	tst	r4, r3
   81cfc:	f100 0004 	add.w	r0, r0, #4
   81d00:	d0fa      	beq.n	81cf8 <_malloc_r+0x46c>
   81d02:	e63b      	b.n	8197c <_malloc_r+0xf0>
   81d04:	f5b3 7faa 	cmp.w	r3, #340	; 0x154
   81d08:	d818      	bhi.n	81d3c <_malloc_r+0x4b0>
   81d0a:	0be8      	lsrs	r0, r5, #15
   81d0c:	f100 0e78 	add.w	lr, r0, #120	; 0x78
   81d10:	ea4f 014e 	mov.w	r1, lr, lsl #1
   81d14:	3077      	adds	r0, #119	; 0x77
   81d16:	e5db      	b.n	818d0 <_malloc_r+0x44>
   81d18:	f44f 5180 	mov.w	r1, #4096	; 0x1000
   81d1c:	e6eb      	b.n	81af6 <_malloc_r+0x26a>
   81d1e:	2101      	movs	r1, #1
   81d20:	f8d8 3004 	ldr.w	r3, [r8, #4]
   81d24:	1092      	asrs	r2, r2, #2
   81d26:	fa01 f202 	lsl.w	r2, r1, r2
   81d2a:	431a      	orrs	r2, r3
   81d2c:	f8c8 2004 	str.w	r2, [r8, #4]
   81d30:	4661      	mov	r1, ip
   81d32:	e777      	b.n	81c24 <_malloc_r+0x398>
   81d34:	2301      	movs	r3, #1
   81d36:	f8cb 3004 	str.w	r3, [fp, #4]
   81d3a:	e725      	b.n	81b88 <_malloc_r+0x2fc>
   81d3c:	f240 5254 	movw	r2, #1364	; 0x554
   81d40:	4293      	cmp	r3, r2
   81d42:	d820      	bhi.n	81d86 <_malloc_r+0x4fa>
   81d44:	0ca8      	lsrs	r0, r5, #18
   81d46:	f100 0e7d 	add.w	lr, r0, #125	; 0x7d
   81d4a:	ea4f 014e 	mov.w	r1, lr, lsl #1
   81d4e:	307c      	adds	r0, #124	; 0x7c
   81d50:	e5be      	b.n	818d0 <_malloc_r+0x44>
   81d52:	3210      	adds	r2, #16
   81d54:	e6a4      	b.n	81aa0 <_malloc_r+0x214>
   81d56:	2a54      	cmp	r2, #84	; 0x54
   81d58:	d826      	bhi.n	81da8 <_malloc_r+0x51c>
   81d5a:	0b1a      	lsrs	r2, r3, #12
   81d5c:	f102 016f 	add.w	r1, r2, #111	; 0x6f
   81d60:	0049      	lsls	r1, r1, #1
   81d62:	326e      	adds	r2, #110	; 0x6e
   81d64:	e748      	b.n	81bf8 <_malloc_r+0x36c>
   81d66:	68bc      	ldr	r4, [r7, #8]
   81d68:	6862      	ldr	r2, [r4, #4]
   81d6a:	f022 0203 	bic.w	r2, r2, #3
   81d6e:	e705      	b.n	81b7c <_malloc_r+0x2f0>
   81d70:	f3ca 000b 	ubfx	r0, sl, #0, #12
   81d74:	2800      	cmp	r0, #0
   81d76:	f47f aea8 	bne.w	81aca <_malloc_r+0x23e>
   81d7a:	4442      	add	r2, r8
   81d7c:	68bb      	ldr	r3, [r7, #8]
   81d7e:	f042 0201 	orr.w	r2, r2, #1
   81d82:	605a      	str	r2, [r3, #4]
   81d84:	e6ec      	b.n	81b60 <_malloc_r+0x2d4>
   81d86:	21fe      	movs	r1, #254	; 0xfe
   81d88:	f04f 0e7f 	mov.w	lr, #127	; 0x7f
   81d8c:	207e      	movs	r0, #126	; 0x7e
   81d8e:	e59f      	b.n	818d0 <_malloc_r+0x44>
   81d90:	2201      	movs	r2, #1
   81d92:	f04f 0900 	mov.w	r9, #0
   81d96:	e6c1      	b.n	81b1c <_malloc_r+0x290>
   81d98:	f104 0108 	add.w	r1, r4, #8
   81d9c:	4630      	mov	r0, r6
   81d9e:	f000 f8a9 	bl	81ef4 <_free_r>
   81da2:	f8d9 1000 	ldr.w	r1, [r9]
   81da6:	e6db      	b.n	81b60 <_malloc_r+0x2d4>
   81da8:	f5b2 7faa 	cmp.w	r2, #340	; 0x154
   81dac:	d805      	bhi.n	81dba <_malloc_r+0x52e>
   81dae:	0bda      	lsrs	r2, r3, #15
   81db0:	f102 0178 	add.w	r1, r2, #120	; 0x78
   81db4:	0049      	lsls	r1, r1, #1
   81db6:	3277      	adds	r2, #119	; 0x77
   81db8:	e71e      	b.n	81bf8 <_malloc_r+0x36c>
   81dba:	f240 5154 	movw	r1, #1364	; 0x554
   81dbe:	428a      	cmp	r2, r1
   81dc0:	d805      	bhi.n	81dce <_malloc_r+0x542>
   81dc2:	0c9a      	lsrs	r2, r3, #18
   81dc4:	f102 017d 	add.w	r1, r2, #125	; 0x7d
   81dc8:	0049      	lsls	r1, r1, #1
   81dca:	327c      	adds	r2, #124	; 0x7c
   81dcc:	e714      	b.n	81bf8 <_malloc_r+0x36c>
   81dce:	21fe      	movs	r1, #254	; 0xfe
   81dd0:	227e      	movs	r2, #126	; 0x7e
   81dd2:	e711      	b.n	81bf8 <_malloc_r+0x36c>
   81dd4:	687b      	ldr	r3, [r7, #4]
   81dd6:	e784      	b.n	81ce2 <_malloc_r+0x456>
   81dd8:	08e8      	lsrs	r0, r5, #3
   81dda:	1c43      	adds	r3, r0, #1
   81ddc:	005b      	lsls	r3, r3, #1
   81dde:	e605      	b.n	819ec <_malloc_r+0x160>
   81de0:	2007051c 	.word	0x2007051c

00081de4 <__malloc_lock>:
   81de4:	4770      	bx	lr
   81de6:	bf00      	nop

00081de8 <__malloc_unlock>:
   81de8:	4770      	bx	lr
   81dea:	bf00      	nop

00081dec <_sbrk_r>:
   81dec:	b538      	push	{r3, r4, r5, lr}
   81dee:	4c07      	ldr	r4, [pc, #28]	; (81e0c <_sbrk_r+0x20>)
   81df0:	2300      	movs	r3, #0
   81df2:	4605      	mov	r5, r0
   81df4:	4608      	mov	r0, r1
   81df6:	6023      	str	r3, [r4, #0]
   81df8:	f7fe fd9a 	bl	80930 <_sbrk>
   81dfc:	1c43      	adds	r3, r0, #1
   81dfe:	d000      	beq.n	81e02 <_sbrk_r+0x16>
   81e00:	bd38      	pop	{r3, r4, r5, pc}
   81e02:	6823      	ldr	r3, [r4, #0]
   81e04:	2b00      	cmp	r3, #0
   81e06:	d0fb      	beq.n	81e00 <_sbrk_r+0x14>
   81e08:	602b      	str	r3, [r5, #0]
   81e0a:	bd38      	pop	{r3, r4, r5, pc}
   81e0c:	200723f8 	.word	0x200723f8

00081e10 <register_fini>:
   81e10:	4b02      	ldr	r3, [pc, #8]	; (81e1c <register_fini+0xc>)
   81e12:	b113      	cbz	r3, 81e1a <register_fini+0xa>
   81e14:	4802      	ldr	r0, [pc, #8]	; (81e20 <register_fini+0x10>)
   81e16:	f000 b805 	b.w	81e24 <atexit>
   81e1a:	4770      	bx	lr
   81e1c:	00000000 	.word	0x00000000
   81e20:	00081e31 	.word	0x00081e31

00081e24 <atexit>:
   81e24:	2300      	movs	r3, #0
   81e26:	4601      	mov	r1, r0
   81e28:	461a      	mov	r2, r3
   81e2a:	4618      	mov	r0, r3
   81e2c:	f000 b94a 	b.w	820c4 <__register_exitproc>

00081e30 <__libc_fini_array>:
   81e30:	b538      	push	{r3, r4, r5, lr}
   81e32:	4d07      	ldr	r5, [pc, #28]	; (81e50 <__libc_fini_array+0x20>)
   81e34:	4c07      	ldr	r4, [pc, #28]	; (81e54 <__libc_fini_array+0x24>)
   81e36:	1b2c      	subs	r4, r5, r4
   81e38:	10a4      	asrs	r4, r4, #2
   81e3a:	d005      	beq.n	81e48 <__libc_fini_array+0x18>
   81e3c:	3c01      	subs	r4, #1
   81e3e:	f855 3d04 	ldr.w	r3, [r5, #-4]!
   81e42:	4798      	blx	r3
   81e44:	2c00      	cmp	r4, #0
   81e46:	d1f9      	bne.n	81e3c <__libc_fini_array+0xc>
   81e48:	e8bd 4038 	ldmia.w	sp!, {r3, r4, r5, lr}
   81e4c:	f000 b9ae 	b.w	821ac <_fini>
   81e50:	000821bc 	.word	0x000821bc
   81e54:	000821b8 	.word	0x000821b8

00081e58 <_malloc_trim_r>:
   81e58:	b5f8      	push	{r3, r4, r5, r6, r7, lr}
   81e5a:	460c      	mov	r4, r1
   81e5c:	4f22      	ldr	r7, [pc, #136]	; (81ee8 <_malloc_trim_r+0x90>)
   81e5e:	4606      	mov	r6, r0
   81e60:	f7ff ffc0 	bl	81de4 <__malloc_lock>
   81e64:	68bb      	ldr	r3, [r7, #8]
   81e66:	685d      	ldr	r5, [r3, #4]
   81e68:	f025 0503 	bic.w	r5, r5, #3
   81e6c:	1b29      	subs	r1, r5, r4
   81e6e:	f601 71ef 	addw	r1, r1, #4079	; 0xfef
   81e72:	f421 617f 	bic.w	r1, r1, #4080	; 0xff0
   81e76:	f021 010f 	bic.w	r1, r1, #15
   81e7a:	f5a1 5480 	sub.w	r4, r1, #4096	; 0x1000
   81e7e:	f5b4 5f80 	cmp.w	r4, #4096	; 0x1000
   81e82:	db07      	blt.n	81e94 <_malloc_trim_r+0x3c>
   81e84:	2100      	movs	r1, #0
   81e86:	4630      	mov	r0, r6
   81e88:	f7ff ffb0 	bl	81dec <_sbrk_r>
   81e8c:	68bb      	ldr	r3, [r7, #8]
   81e8e:	442b      	add	r3, r5
   81e90:	4298      	cmp	r0, r3
   81e92:	d004      	beq.n	81e9e <_malloc_trim_r+0x46>
   81e94:	4630      	mov	r0, r6
   81e96:	f7ff ffa7 	bl	81de8 <__malloc_unlock>
   81e9a:	2000      	movs	r0, #0
   81e9c:	bdf8      	pop	{r3, r4, r5, r6, r7, pc}
   81e9e:	4261      	negs	r1, r4
   81ea0:	4630      	mov	r0, r6
   81ea2:	f7ff ffa3 	bl	81dec <_sbrk_r>
   81ea6:	3001      	adds	r0, #1
   81ea8:	d00d      	beq.n	81ec6 <_malloc_trim_r+0x6e>
   81eaa:	4b10      	ldr	r3, [pc, #64]	; (81eec <_malloc_trim_r+0x94>)
   81eac:	68ba      	ldr	r2, [r7, #8]
   81eae:	6819      	ldr	r1, [r3, #0]
   81eb0:	1b2d      	subs	r5, r5, r4
   81eb2:	f045 0501 	orr.w	r5, r5, #1
   81eb6:	4630      	mov	r0, r6
   81eb8:	1b09      	subs	r1, r1, r4
   81eba:	6055      	str	r5, [r2, #4]
   81ebc:	6019      	str	r1, [r3, #0]
   81ebe:	f7ff ff93 	bl	81de8 <__malloc_unlock>
   81ec2:	2001      	movs	r0, #1
   81ec4:	bdf8      	pop	{r3, r4, r5, r6, r7, pc}
   81ec6:	2100      	movs	r1, #0
   81ec8:	4630      	mov	r0, r6
   81eca:	f7ff ff8f 	bl	81dec <_sbrk_r>
   81ece:	68ba      	ldr	r2, [r7, #8]
   81ed0:	1a83      	subs	r3, r0, r2
   81ed2:	2b0f      	cmp	r3, #15
   81ed4:	ddde      	ble.n	81e94 <_malloc_trim_r+0x3c>
   81ed6:	4c06      	ldr	r4, [pc, #24]	; (81ef0 <_malloc_trim_r+0x98>)
   81ed8:	4904      	ldr	r1, [pc, #16]	; (81eec <_malloc_trim_r+0x94>)
   81eda:	6824      	ldr	r4, [r4, #0]
   81edc:	f043 0301 	orr.w	r3, r3, #1
   81ee0:	1b00      	subs	r0, r0, r4
   81ee2:	6053      	str	r3, [r2, #4]
   81ee4:	6008      	str	r0, [r1, #0]
   81ee6:	e7d5      	b.n	81e94 <_malloc_trim_r+0x3c>
   81ee8:	2007051c 	.word	0x2007051c
   81eec:	20070958 	.word	0x20070958
   81ef0:	20070928 	.word	0x20070928

00081ef4 <_free_r>:
   81ef4:	2900      	cmp	r1, #0
   81ef6:	d045      	beq.n	81f84 <_free_r+0x90>
   81ef8:	e92d 41f0 	stmdb	sp!, {r4, r5, r6, r7, r8, lr}
   81efc:	460d      	mov	r5, r1
   81efe:	4680      	mov	r8, r0
   81f00:	f7ff ff70 	bl	81de4 <__malloc_lock>
   81f04:	f855 7c04 	ldr.w	r7, [r5, #-4]
   81f08:	496a      	ldr	r1, [pc, #424]	; (820b4 <_free_r+0x1c0>)
   81f0a:	f1a5 0408 	sub.w	r4, r5, #8
   81f0e:	f027 0301 	bic.w	r3, r7, #1
   81f12:	18e2      	adds	r2, r4, r3
   81f14:	688e      	ldr	r6, [r1, #8]
   81f16:	6850      	ldr	r0, [r2, #4]
   81f18:	42b2      	cmp	r2, r6
   81f1a:	f020 0003 	bic.w	r0, r0, #3
   81f1e:	d062      	beq.n	81fe6 <_free_r+0xf2>
   81f20:	07fe      	lsls	r6, r7, #31
   81f22:	6050      	str	r0, [r2, #4]
   81f24:	d40b      	bmi.n	81f3e <_free_r+0x4a>
   81f26:	f855 7c08 	ldr.w	r7, [r5, #-8]
   81f2a:	f101 0e08 	add.w	lr, r1, #8
   81f2e:	1be4      	subs	r4, r4, r7
   81f30:	68a5      	ldr	r5, [r4, #8]
   81f32:	443b      	add	r3, r7
   81f34:	4575      	cmp	r5, lr
   81f36:	d06f      	beq.n	82018 <_free_r+0x124>
   81f38:	68e7      	ldr	r7, [r4, #12]
   81f3a:	60ef      	str	r7, [r5, #12]
   81f3c:	60bd      	str	r5, [r7, #8]
   81f3e:	1815      	adds	r5, r2, r0
   81f40:	686d      	ldr	r5, [r5, #4]
   81f42:	07ed      	lsls	r5, r5, #31
   81f44:	d542      	bpl.n	81fcc <_free_r+0xd8>
   81f46:	f043 0201 	orr.w	r2, r3, #1
   81f4a:	6062      	str	r2, [r4, #4]
   81f4c:	50e3      	str	r3, [r4, r3]
   81f4e:	f5b3 7f00 	cmp.w	r3, #512	; 0x200
   81f52:	d218      	bcs.n	81f86 <_free_r+0x92>
   81f54:	08db      	lsrs	r3, r3, #3
   81f56:	6848      	ldr	r0, [r1, #4]
   81f58:	109d      	asrs	r5, r3, #2
   81f5a:	2201      	movs	r2, #1
   81f5c:	3301      	adds	r3, #1
   81f5e:	f851 7033 	ldr.w	r7, [r1, r3, lsl #3]
   81f62:	fa02 f505 	lsl.w	r5, r2, r5
   81f66:	eb01 02c3 	add.w	r2, r1, r3, lsl #3
   81f6a:	4328      	orrs	r0, r5
   81f6c:	3a08      	subs	r2, #8
   81f6e:	60e2      	str	r2, [r4, #12]
   81f70:	60a7      	str	r7, [r4, #8]
   81f72:	6048      	str	r0, [r1, #4]
   81f74:	f841 4033 	str.w	r4, [r1, r3, lsl #3]
   81f78:	60fc      	str	r4, [r7, #12]
   81f7a:	4640      	mov	r0, r8
   81f7c:	e8bd 41f0 	ldmia.w	sp!, {r4, r5, r6, r7, r8, lr}
   81f80:	f7ff bf32 	b.w	81de8 <__malloc_unlock>
   81f84:	4770      	bx	lr
   81f86:	0a5a      	lsrs	r2, r3, #9
   81f88:	2a04      	cmp	r2, #4
   81f8a:	d853      	bhi.n	82034 <_free_r+0x140>
   81f8c:	099a      	lsrs	r2, r3, #6
   81f8e:	f102 0739 	add.w	r7, r2, #57	; 0x39
   81f92:	007f      	lsls	r7, r7, #1
   81f94:	f102 0538 	add.w	r5, r2, #56	; 0x38
   81f98:	eb01 0087 	add.w	r0, r1, r7, lsl #2
   81f9c:	f851 2027 	ldr.w	r2, [r1, r7, lsl #2]
   81fa0:	3808      	subs	r0, #8
   81fa2:	4290      	cmp	r0, r2
   81fa4:	4943      	ldr	r1, [pc, #268]	; (820b4 <_free_r+0x1c0>)
   81fa6:	d04d      	beq.n	82044 <_free_r+0x150>
   81fa8:	6851      	ldr	r1, [r2, #4]
   81faa:	f021 0103 	bic.w	r1, r1, #3
   81fae:	428b      	cmp	r3, r1
   81fb0:	d202      	bcs.n	81fb8 <_free_r+0xc4>
   81fb2:	6892      	ldr	r2, [r2, #8]
   81fb4:	4290      	cmp	r0, r2
   81fb6:	d1f7      	bne.n	81fa8 <_free_r+0xb4>
   81fb8:	68d0      	ldr	r0, [r2, #12]
   81fba:	60e0      	str	r0, [r4, #12]
   81fbc:	60a2      	str	r2, [r4, #8]
   81fbe:	6084      	str	r4, [r0, #8]
   81fc0:	60d4      	str	r4, [r2, #12]
   81fc2:	4640      	mov	r0, r8
   81fc4:	e8bd 41f0 	ldmia.w	sp!, {r4, r5, r6, r7, r8, lr}
   81fc8:	f7ff bf0e 	b.w	81de8 <__malloc_unlock>
   81fcc:	6895      	ldr	r5, [r2, #8]
   81fce:	4f3a      	ldr	r7, [pc, #232]	; (820b8 <_free_r+0x1c4>)
   81fd0:	4403      	add	r3, r0
   81fd2:	42bd      	cmp	r5, r7
   81fd4:	d03f      	beq.n	82056 <_free_r+0x162>
   81fd6:	68d0      	ldr	r0, [r2, #12]
   81fd8:	f043 0201 	orr.w	r2, r3, #1
   81fdc:	60e8      	str	r0, [r5, #12]
   81fde:	6085      	str	r5, [r0, #8]
   81fe0:	6062      	str	r2, [r4, #4]
   81fe2:	50e3      	str	r3, [r4, r3]
   81fe4:	e7b3      	b.n	81f4e <_free_r+0x5a>
   81fe6:	07ff      	lsls	r7, r7, #31
   81fe8:	4403      	add	r3, r0
   81fea:	d407      	bmi.n	81ffc <_free_r+0x108>
   81fec:	f855 5c08 	ldr.w	r5, [r5, #-8]
   81ff0:	1b64      	subs	r4, r4, r5
   81ff2:	68e2      	ldr	r2, [r4, #12]
   81ff4:	68a0      	ldr	r0, [r4, #8]
   81ff6:	442b      	add	r3, r5
   81ff8:	60c2      	str	r2, [r0, #12]
   81ffa:	6090      	str	r0, [r2, #8]
   81ffc:	4a2f      	ldr	r2, [pc, #188]	; (820bc <_free_r+0x1c8>)
   81ffe:	f043 0001 	orr.w	r0, r3, #1
   82002:	6812      	ldr	r2, [r2, #0]
   82004:	6060      	str	r0, [r4, #4]
   82006:	4293      	cmp	r3, r2
   82008:	608c      	str	r4, [r1, #8]
   8200a:	d3b6      	bcc.n	81f7a <_free_r+0x86>
   8200c:	4b2c      	ldr	r3, [pc, #176]	; (820c0 <_free_r+0x1cc>)
   8200e:	4640      	mov	r0, r8
   82010:	6819      	ldr	r1, [r3, #0]
   82012:	f7ff ff21 	bl	81e58 <_malloc_trim_r>
   82016:	e7b0      	b.n	81f7a <_free_r+0x86>
   82018:	1811      	adds	r1, r2, r0
   8201a:	6849      	ldr	r1, [r1, #4]
   8201c:	07c9      	lsls	r1, r1, #31
   8201e:	d444      	bmi.n	820aa <_free_r+0x1b6>
   82020:	6891      	ldr	r1, [r2, #8]
   82022:	4403      	add	r3, r0
   82024:	68d2      	ldr	r2, [r2, #12]
   82026:	f043 0001 	orr.w	r0, r3, #1
   8202a:	60ca      	str	r2, [r1, #12]
   8202c:	6091      	str	r1, [r2, #8]
   8202e:	6060      	str	r0, [r4, #4]
   82030:	50e3      	str	r3, [r4, r3]
   82032:	e7a2      	b.n	81f7a <_free_r+0x86>
   82034:	2a14      	cmp	r2, #20
   82036:	d817      	bhi.n	82068 <_free_r+0x174>
   82038:	f102 075c 	add.w	r7, r2, #92	; 0x5c
   8203c:	007f      	lsls	r7, r7, #1
   8203e:	f102 055b 	add.w	r5, r2, #91	; 0x5b
   82042:	e7a9      	b.n	81f98 <_free_r+0xa4>
   82044:	10aa      	asrs	r2, r5, #2
   82046:	684b      	ldr	r3, [r1, #4]
   82048:	2501      	movs	r5, #1
   8204a:	fa05 f202 	lsl.w	r2, r5, r2
   8204e:	4313      	orrs	r3, r2
   82050:	604b      	str	r3, [r1, #4]
   82052:	4602      	mov	r2, r0
   82054:	e7b1      	b.n	81fba <_free_r+0xc6>
   82056:	f043 0201 	orr.w	r2, r3, #1
   8205a:	614c      	str	r4, [r1, #20]
   8205c:	610c      	str	r4, [r1, #16]
   8205e:	60e5      	str	r5, [r4, #12]
   82060:	60a5      	str	r5, [r4, #8]
   82062:	6062      	str	r2, [r4, #4]
   82064:	50e3      	str	r3, [r4, r3]
   82066:	e788      	b.n	81f7a <_free_r+0x86>
   82068:	2a54      	cmp	r2, #84	; 0x54
   8206a:	d806      	bhi.n	8207a <_free_r+0x186>
   8206c:	0b1a      	lsrs	r2, r3, #12
   8206e:	f102 076f 	add.w	r7, r2, #111	; 0x6f
   82072:	007f      	lsls	r7, r7, #1
   82074:	f102 056e 	add.w	r5, r2, #110	; 0x6e
   82078:	e78e      	b.n	81f98 <_free_r+0xa4>
   8207a:	f5b2 7faa 	cmp.w	r2, #340	; 0x154
   8207e:	d806      	bhi.n	8208e <_free_r+0x19a>
   82080:	0bda      	lsrs	r2, r3, #15
   82082:	f102 0778 	add.w	r7, r2, #120	; 0x78
   82086:	007f      	lsls	r7, r7, #1
   82088:	f102 0577 	add.w	r5, r2, #119	; 0x77
   8208c:	e784      	b.n	81f98 <_free_r+0xa4>
   8208e:	f240 5054 	movw	r0, #1364	; 0x554
   82092:	4282      	cmp	r2, r0
   82094:	d806      	bhi.n	820a4 <_free_r+0x1b0>
   82096:	0c9a      	lsrs	r2, r3, #18
   82098:	f102 077d 	add.w	r7, r2, #125	; 0x7d
   8209c:	007f      	lsls	r7, r7, #1
   8209e:	f102 057c 	add.w	r5, r2, #124	; 0x7c
   820a2:	e779      	b.n	81f98 <_free_r+0xa4>
   820a4:	27fe      	movs	r7, #254	; 0xfe
   820a6:	257e      	movs	r5, #126	; 0x7e
   820a8:	e776      	b.n	81f98 <_free_r+0xa4>
   820aa:	f043 0201 	orr.w	r2, r3, #1
   820ae:	6062      	str	r2, [r4, #4]
   820b0:	50e3      	str	r3, [r4, r3]
   820b2:	e762      	b.n	81f7a <_free_r+0x86>
   820b4:	2007051c 	.word	0x2007051c
   820b8:	20070524 	.word	0x20070524
   820bc:	20070924 	.word	0x20070924
   820c0:	20070954 	.word	0x20070954

000820c4 <__register_exitproc>:
   820c4:	e92d 47f0 	stmdb	sp!, {r4, r5, r6, r7, r8, r9, sl, lr}
   820c8:	4c25      	ldr	r4, [pc, #148]	; (82160 <__register_exitproc+0x9c>)
   820ca:	4606      	mov	r6, r0
   820cc:	6825      	ldr	r5, [r4, #0]
   820ce:	4688      	mov	r8, r1
   820d0:	f8d5 4148 	ldr.w	r4, [r5, #328]	; 0x148
   820d4:	4692      	mov	sl, r2
   820d6:	4699      	mov	r9, r3
   820d8:	b3c4      	cbz	r4, 8214c <__register_exitproc+0x88>
   820da:	6860      	ldr	r0, [r4, #4]
   820dc:	281f      	cmp	r0, #31
   820de:	dc17      	bgt.n	82110 <__register_exitproc+0x4c>
   820e0:	1c41      	adds	r1, r0, #1
   820e2:	b176      	cbz	r6, 82102 <__register_exitproc+0x3e>
   820e4:	eb04 0380 	add.w	r3, r4, r0, lsl #2
   820e8:	f8c3 a088 	str.w	sl, [r3, #136]	; 0x88
   820ec:	f8d4 5188 	ldr.w	r5, [r4, #392]	; 0x188
   820f0:	2201      	movs	r2, #1
   820f2:	4082      	lsls	r2, r0
   820f4:	4315      	orrs	r5, r2
   820f6:	2e02      	cmp	r6, #2
   820f8:	f8c4 5188 	str.w	r5, [r4, #392]	; 0x188
   820fc:	f8c3 9108 	str.w	r9, [r3, #264]	; 0x108
   82100:	d01e      	beq.n	82140 <__register_exitproc+0x7c>
   82102:	1c83      	adds	r3, r0, #2
   82104:	6061      	str	r1, [r4, #4]
   82106:	2000      	movs	r0, #0
   82108:	f844 8023 	str.w	r8, [r4, r3, lsl #2]
   8210c:	e8bd 87f0 	ldmia.w	sp!, {r4, r5, r6, r7, r8, r9, sl, pc}
   82110:	4b14      	ldr	r3, [pc, #80]	; (82164 <__register_exitproc+0xa0>)
   82112:	b303      	cbz	r3, 82156 <__register_exitproc+0x92>
   82114:	f44f 70c8 	mov.w	r0, #400	; 0x190
   82118:	f7ff fbb0 	bl	8187c <malloc>
   8211c:	4604      	mov	r4, r0
   8211e:	b1d0      	cbz	r0, 82156 <__register_exitproc+0x92>
   82120:	f8d5 3148 	ldr.w	r3, [r5, #328]	; 0x148
   82124:	2700      	movs	r7, #0
   82126:	e884 0088 	stmia.w	r4, {r3, r7}
   8212a:	4638      	mov	r0, r7
   8212c:	f8c5 4148 	str.w	r4, [r5, #328]	; 0x148
   82130:	2101      	movs	r1, #1
   82132:	f8c4 7188 	str.w	r7, [r4, #392]	; 0x188
   82136:	f8c4 718c 	str.w	r7, [r4, #396]	; 0x18c
   8213a:	2e00      	cmp	r6, #0
   8213c:	d0e1      	beq.n	82102 <__register_exitproc+0x3e>
   8213e:	e7d1      	b.n	820e4 <__register_exitproc+0x20>
   82140:	f8d4 318c 	ldr.w	r3, [r4, #396]	; 0x18c
   82144:	431a      	orrs	r2, r3
   82146:	f8c4 218c 	str.w	r2, [r4, #396]	; 0x18c
   8214a:	e7da      	b.n	82102 <__register_exitproc+0x3e>
   8214c:	f505 74a6 	add.w	r4, r5, #332	; 0x14c
   82150:	f8c5 4148 	str.w	r4, [r5, #328]	; 0x148
   82154:	e7c1      	b.n	820da <__register_exitproc+0x16>
   82156:	f04f 30ff 	mov.w	r0, #4294967295
   8215a:	e8bd 87f0 	ldmia.w	sp!, {r4, r5, r6, r7, r8, r9, sl, pc}
   8215e:	bf00      	nop
   82160:	00082194 	.word	0x00082194
   82164:	0008187d 	.word	0x0008187d
   82168:	46697754 	.word	0x46697754
   8216c:	746c7561 	.word	0x746c7561
   82170:	203a      	.short	0x203a
   82172:	00          	.byte	0x00
   82173:	04          	.byte	0x04
   82174:	00070506 	.word	0x00070506
   82178:	050c      	.short	0x050c
   8217a:	6e49      	.short	0x6e49
   8217c:	62207469 	.word	0x62207469
   82180:	6e696765 	.word	0x6e696765
   82184:	696e4900 	.word	0x696e4900
   82188:	6f642074 	.word	0x6f642074
   8218c:	0000656e 	.word	0x0000656e
   82190:	00000043 	.word	0x00000043

00082194 <_global_impure_ptr>:
   82194:	200700f0                                ... 

00082198 <_init>:
   82198:	b5f8      	push	{r3, r4, r5, r6, r7, lr}
   8219a:	bf00      	nop
   8219c:	bcf8      	pop	{r3, r4, r5, r6, r7}
   8219e:	bc08      	pop	{r3}
   821a0:	469e      	mov	lr, r3
   821a2:	4770      	bx	lr

000821a4 <__init_array_start>:
   821a4:	00081e11 	.word	0x00081e11

000821a8 <__frame_dummy_init_array_entry>:
   821a8:	00080119                                ....

000821ac <_fini>:
   821ac:	b5f8      	push	{r3, r4, r5, r6, r7, lr}
   821ae:	bf00      	nop
   821b0:	bcf8      	pop	{r3, r4, r5, r6, r7}
   821b2:	bc08      	pop	{r3}
   821b4:	469e      	mov	lr, r3
   821b6:	4770      	bx	lr

000821b8 <__fini_array_start>:
   821b8:	000800f5 	.word	0x000800f5

Disassembly of section .relocate:

20070000 <SystemInit>:
20070000:	4a1a      	ldr	r2, [pc, #104]	; (2007006c <SystemInit+0x6c>)
20070002:	f44f 6380 	mov.w	r3, #1024	; 0x400
20070006:	6013      	str	r3, [r2, #0]
20070008:	f8c2 3200 	str.w	r3, [r2, #512]	; 0x200
2007000c:	4b18      	ldr	r3, [pc, #96]	; (20070070 <SystemInit+0x70>)
2007000e:	6a1a      	ldr	r2, [r3, #32]
20070010:	01d1      	lsls	r1, r2, #7
20070012:	d502      	bpl.n	2007001a <SystemInit+0x1a>
20070014:	4a17      	ldr	r2, [pc, #92]	; (20070074 <SystemInit+0x74>)
20070016:	621a      	str	r2, [r3, #32]
20070018:	e005      	b.n	20070026 <SystemInit+0x26>
2007001a:	4a17      	ldr	r2, [pc, #92]	; (20070078 <SystemInit+0x78>)
2007001c:	621a      	str	r2, [r3, #32]
2007001e:	6e9a      	ldr	r2, [r3, #104]	; 0x68
20070020:	07d2      	lsls	r2, r2, #31
20070022:	d5fc      	bpl.n	2007001e <SystemInit+0x1e>
20070024:	e7f6      	b.n	20070014 <SystemInit+0x14>
20070026:	6e9a      	ldr	r2, [r3, #104]	; 0x68
20070028:	4911      	ldr	r1, [pc, #68]	; (20070070 <SystemInit+0x70>)
2007002a:	03d0      	lsls	r0, r2, #15
2007002c:	d5fb      	bpl.n	20070026 <SystemInit+0x26>
2007002e:	6b0a      	ldr	r2, [r1, #48]	; 0x30
20070030:	f022 0203 	bic.w	r2, r2, #3
20070034:	f042 0201 	orr.w	r2, r2, #1
20070038:	630a      	str	r2, [r1, #48]	; 0x30
2007003a:	6e9a      	ldr	r2, [r3, #104]	; 0x68
2007003c:	0712      	lsls	r2, r2, #28
2007003e:	d5fc      	bpl.n	2007003a <SystemInit+0x3a>
20070040:	490e      	ldr	r1, [pc, #56]	; (2007007c <SystemInit+0x7c>)
20070042:	4a0b      	ldr	r2, [pc, #44]	; (20070070 <SystemInit+0x70>)
20070044:	6291      	str	r1, [r2, #40]	; 0x28
20070046:	6e9a      	ldr	r2, [r3, #104]	; 0x68
20070048:	0790      	lsls	r0, r2, #30
2007004a:	d5fc      	bpl.n	20070046 <SystemInit+0x46>
2007004c:	4a08      	ldr	r2, [pc, #32]	; (20070070 <SystemInit+0x70>)
2007004e:	2111      	movs	r1, #17
20070050:	6311      	str	r1, [r2, #48]	; 0x30
20070052:	6e9a      	ldr	r2, [r3, #104]	; 0x68
20070054:	0711      	lsls	r1, r2, #28
20070056:	d5fc      	bpl.n	20070052 <SystemInit+0x52>
20070058:	4a05      	ldr	r2, [pc, #20]	; (20070070 <SystemInit+0x70>)
2007005a:	2112      	movs	r1, #18
2007005c:	6311      	str	r1, [r2, #48]	; 0x30
2007005e:	6e9a      	ldr	r2, [r3, #104]	; 0x68
20070060:	0712      	lsls	r2, r2, #28
20070062:	d5fc      	bpl.n	2007005e <SystemInit+0x5e>
20070064:	4a06      	ldr	r2, [pc, #24]	; (20070080 <SystemInit+0x80>)
20070066:	4b07      	ldr	r3, [pc, #28]	; (20070084 <SystemInit+0x84>)
20070068:	601a      	str	r2, [r3, #0]
2007006a:	4770      	bx	lr
2007006c:	400e0a00 	.word	0x400e0a00
20070070:	400e0600 	.word	0x400e0600
20070074:	01370809 	.word	0x01370809
20070078:	00370809 	.word	0x00370809
2007007c:	200d3f01 	.word	0x200d3f01
20070080:	0501bd00 	.word	0x0501bd00
20070084:	200700ec 	.word	0x200700ec

20070088 <system_init_flash>:
20070088:	4b11      	ldr	r3, [pc, #68]	; (200700d0 <system_init_flash+0x48>)
2007008a:	4a12      	ldr	r2, [pc, #72]	; (200700d4 <system_init_flash+0x4c>)
2007008c:	4298      	cmp	r0, r3
2007008e:	4b12      	ldr	r3, [pc, #72]	; (200700d8 <system_init_flash+0x50>)
20070090:	d801      	bhi.n	20070096 <system_init_flash+0xe>
20070092:	2100      	movs	r1, #0
20070094:	e018      	b.n	200700c8 <system_init_flash+0x40>
20070096:	4911      	ldr	r1, [pc, #68]	; (200700dc <system_init_flash+0x54>)
20070098:	4288      	cmp	r0, r1
2007009a:	d802      	bhi.n	200700a2 <system_init_flash+0x1a>
2007009c:	f44f 7180 	mov.w	r1, #256	; 0x100
200700a0:	e012      	b.n	200700c8 <system_init_flash+0x40>
200700a2:	490f      	ldr	r1, [pc, #60]	; (200700e0 <system_init_flash+0x58>)
200700a4:	4288      	cmp	r0, r1
200700a6:	d802      	bhi.n	200700ae <system_init_flash+0x26>
200700a8:	f44f 7100 	mov.w	r1, #512	; 0x200
200700ac:	e00c      	b.n	200700c8 <system_init_flash+0x40>
200700ae:	490d      	ldr	r1, [pc, #52]	; (200700e4 <system_init_flash+0x5c>)
200700b0:	4288      	cmp	r0, r1
200700b2:	d802      	bhi.n	200700ba <system_init_flash+0x32>
200700b4:	f44f 7140 	mov.w	r1, #768	; 0x300
200700b8:	e006      	b.n	200700c8 <system_init_flash+0x40>
200700ba:	490b      	ldr	r1, [pc, #44]	; (200700e8 <system_init_flash+0x60>)
200700bc:	4288      	cmp	r0, r1
200700be:	bf94      	ite	ls
200700c0:	f44f 6180 	movls.w	r1, #1024	; 0x400
200700c4:	f44f 61a0 	movhi.w	r1, #1280	; 0x500
200700c8:	6011      	str	r1, [r2, #0]
200700ca:	6019      	str	r1, [r3, #0]
200700cc:	4770      	bx	lr
200700ce:	bf00      	nop
200700d0:	0121eabf 	.word	0x0121eabf
200700d4:	400e0a00 	.word	0x400e0a00
200700d8:	400e0c00 	.word	0x400e0c00
200700dc:	02faf07f 	.word	0x02faf07f
200700e0:	03d08fff 	.word	0x03d08fff
200700e4:	04c4b3ff 	.word	0x04c4b3ff
200700e8:	055d4a7f 	.word	0x055d4a7f

200700ec <SystemCoreClock>:
200700ec:	003d0900                                ..=.

200700f0 <impure_data>:
200700f0:	00000000 200703dc 20070444 200704ac     ....... D.. ... 
	...
20070124:	00082190 00000000 00000000 00000000     .!..............
	...
20070198:	00000001 00000000 abcd330e e66d1234     .........3..4.m.
200701a8:	0005deec 0000000b 00000000 00000000     ................
	...

20070518 <_impure_ptr>:
20070518:	200700f0                                ... 

2007051c <__malloc_av_>:
	...
20070524:	2007051c 2007051c 20070524 20070524     ... ... $.. $.. 
20070534:	2007052c 2007052c 20070534 20070534     ,.. ,.. 4.. 4.. 
20070544:	2007053c 2007053c 20070544 20070544     <.. <.. D.. D.. 
20070554:	2007054c 2007054c 20070554 20070554     L.. L.. T.. T.. 
20070564:	2007055c 2007055c 20070564 20070564     \.. \.. d.. d.. 
20070574:	2007056c 2007056c 20070574 20070574     l.. l.. t.. t.. 
20070584:	2007057c 2007057c 20070584 20070584     |.. |.. ... ... 
20070594:	2007058c 2007058c 20070594 20070594     ... ... ... ... 
200705a4:	2007059c 2007059c 200705a4 200705a4     ... ... ... ... 
200705b4:	200705ac 200705ac 200705b4 200705b4     ... ... ... ... 
200705c4:	200705bc 200705bc 200705c4 200705c4     ... ... ... ... 
200705d4:	200705cc 200705cc 200705d4 200705d4     ... ... ... ... 
200705e4:	200705dc 200705dc 200705e4 200705e4     ... ... ... ... 
200705f4:	200705ec 200705ec 200705f4 200705f4     ... ... ... ... 
20070604:	200705fc 200705fc 20070604 20070604     ... ... ... ... 
20070614:	2007060c 2007060c 20070614 20070614     ... ... ... ... 
20070624:	2007061c 2007061c 20070624 20070624     ... ... $.. $.. 
20070634:	2007062c 2007062c 20070634 20070634     ,.. ,.. 4.. 4.. 
20070644:	2007063c 2007063c 20070644 20070644     <.. <.. D.. D.. 
20070654:	2007064c 2007064c 20070654 20070654     L.. L.. T.. T.. 
20070664:	2007065c 2007065c 20070664 20070664     \.. \.. d.. d.. 
20070674:	2007066c 2007066c 20070674 20070674     l.. l.. t.. t.. 
20070684:	2007067c 2007067c 20070684 20070684     |.. |.. ... ... 
20070694:	2007068c 2007068c 20070694 20070694     ... ... ... ... 
200706a4:	2007069c 2007069c 200706a4 200706a4     ... ... ... ... 
200706b4:	200706ac 200706ac 200706b4 200706b4     ... ... ... ... 
200706c4:	200706bc 200706bc 200706c4 200706c4     ... ... ... ... 
200706d4:	200706cc 200706cc 200706d4 200706d4     ... ... ... ... 
200706e4:	200706dc 200706dc 200706e4 200706e4     ... ... ... ... 
200706f4:	200706ec 200706ec 200706f4 200706f4     ... ... ... ... 
20070704:	200706fc 200706fc 20070704 20070704     ... ... ... ... 
20070714:	2007070c 2007070c 20070714 20070714     ... ... ... ... 
20070724:	2007071c 2007071c 20070724 20070724     ... ... $.. $.. 
20070734:	2007072c 2007072c 20070734 20070734     ,.. ,.. 4.. 4.. 
20070744:	2007073c 2007073c 20070744 20070744     <.. <.. D.. D.. 
20070754:	2007074c 2007074c 20070754 20070754     L.. L.. T.. T.. 
20070764:	2007075c 2007075c 20070764 20070764     \.. \.. d.. d.. 
20070774:	2007076c 2007076c 20070774 20070774     l.. l.. t.. t.. 
20070784:	2007077c 2007077c 20070784 20070784     |.. |.. ... ... 
20070794:	2007078c 2007078c 20070794 20070794     ... ... ... ... 
200707a4:	2007079c 2007079c 200707a4 200707a4     ... ... ... ... 
200707b4:	200707ac 200707ac 200707b4 200707b4     ... ... ... ... 
200707c4:	200707bc 200707bc 200707c4 200707c4     ... ... ... ... 
200707d4:	200707cc 200707cc 200707d4 200707d4     ... ... ... ... 
200707e4:	200707dc 200707dc 200707e4 200707e4     ... ... ... ... 
200707f4:	200707ec 200707ec 200707f4 200707f4     ... ... ... ... 
20070804:	200707fc 200707fc 20070804 20070804     ... ... ... ... 
20070814:	2007080c 2007080c 20070814 20070814     ... ... ... ... 
20070824:	2007081c 2007081c 20070824 20070824     ... ... $.. $.. 
20070834:	2007082c 2007082c 20070834 20070834     ,.. ,.. 4.. 4.. 
20070844:	2007083c 2007083c 20070844 20070844     <.. <.. D.. D.. 
20070854:	2007084c 2007084c 20070854 20070854     L.. L.. T.. T.. 
20070864:	2007085c 2007085c 20070864 20070864     \.. \.. d.. d.. 
20070874:	2007086c 2007086c 20070874 20070874     l.. l.. t.. t.. 
20070884:	2007087c 2007087c 20070884 20070884     |.. |.. ... ... 
20070894:	2007088c 2007088c 20070894 20070894     ... ... ... ... 
200708a4:	2007089c 2007089c 200708a4 200708a4     ... ... ... ... 
200708b4:	200708ac 200708ac 200708b4 200708b4     ... ... ... ... 
200708c4:	200708bc 200708bc 200708c4 200708c4     ... ... ... ... 
200708d4:	200708cc 200708cc 200708d4 200708d4     ... ... ... ... 
200708e4:	200708dc 200708dc 200708e4 200708e4     ... ... ... ... 
200708f4:	200708ec 200708ec 200708f4 200708f4     ... ... ... ... 
20070904:	200708fc 200708fc 20070904 20070904     ... ... ... ... 
20070914:	2007090c 2007090c 20070914 20070914     ... ... ... ... 

20070924 <__malloc_trim_threshold>:
20070924:	00020000                                ....

20070928 <__malloc_sbrk_base>:
20070928:	ffffffff                                ....
