
RUthless_ECU.elf:     file format elf32-littlearm

Sections:
Idx Name          Size      VMA       LMA       File off  Algn
  0 .text         00003524  00080000  00080000  00010000  2**2
                  CONTENTS, ALLOC, LOAD, READONLY, CODE
  1 .relocate     0000092c  20070000  00083524  00020000  2**3
                  CONTENTS, ALLOC, LOAD, CODE
  2 .bss          00001834  2007092c  00083e50  0002092c  2**2
                  ALLOC
  3 .stack        00002000  20072160  00085684  0002092c  2**0
                  ALLOC
  4 .ARM.attributes 00000029  00000000  00000000  0002092c  2**0
                  CONTENTS, READONLY
  5 .comment      00000059  00000000  00000000  00020955  2**0
                  CONTENTS, READONLY
  6 .debug_frame  000002b0  00000000  00000000  000209b0  2**2
                  CONTENTS, READONLY, DEBUGGING

Disassembly of section .text:

00080000 <_sfixed>:
   80000:	20074160 	.word	0x20074160
   80004:	00080915 	.word	0x00080915
   80008:	00080911 	.word	0x00080911
   8000c:	00080911 	.word	0x00080911
   80010:	00080911 	.word	0x00080911
   80014:	00080911 	.word	0x00080911
   80018:	00080911 	.word	0x00080911
	...
   8002c:	00080911 	.word	0x00080911
   80030:	00080911 	.word	0x00080911
   80034:	00000000 	.word	0x00000000
   80038:	00080911 	.word	0x00080911
   8003c:	00080911 	.word	0x00080911
   80040:	00080911 	.word	0x00080911
   80044:	00080911 	.word	0x00080911
   80048:	00080911 	.word	0x00080911
   8004c:	00080911 	.word	0x00080911
   80050:	00080911 	.word	0x00080911
   80054:	00080911 	.word	0x00080911
   80058:	00080911 	.word	0x00080911
   8005c:	00080911 	.word	0x00080911
   80060:	00081ffd 	.word	0x00081ffd
   80064:	00080911 	.word	0x00080911
   80068:	00000000 	.word	0x00000000
   8006c:	0008107d 	.word	0x0008107d
   80070:	00080911 	.word	0x00080911
   80074:	00080911 	.word	0x00080911
   80078:	00080911 	.word	0x00080911
	...
   80084:	00080911 	.word	0x00080911
   80088:	00080911 	.word	0x00080911
   8008c:	00080911 	.word	0x00080911
   80090:	00080911 	.word	0x00080911
   80094:	00080911 	.word	0x00080911
   80098:	00080911 	.word	0x00080911
   8009c:	00080911 	.word	0x00080911
   800a0:	00080911 	.word	0x00080911
   800a4:	00000000 	.word	0x00000000
   800a8:	00080911 	.word	0x00080911
   800ac:	0008161d 	.word	0x0008161d
   800b0:	00081645 	.word	0x00081645
   800b4:	00081671 	.word	0x00081671
   800b8:	000816a1 	.word	0x000816a1
   800bc:	000816cd 	.word	0x000816cd
   800c0:	000816cf 	.word	0x000816cf
   800c4:	000816d1 	.word	0x000816d1
   800c8:	000816d3 	.word	0x000816d3
   800cc:	000816d5 	.word	0x000816d5
   800d0:	00080911 	.word	0x00080911
   800d4:	00080b81 	.word	0x00080b81
   800d8:	00080911 	.word	0x00080911
   800dc:	00080911 	.word	0x00080911
   800e0:	00080911 	.word	0x00080911
   800e4:	00080911 	.word	0x00080911
   800e8:	00080911 	.word	0x00080911
   800ec:	00080911 	.word	0x00080911
   800f0:	00080911 	.word	0x00080911

000800f4 <__do_global_dtors_aux>:
   800f4:	b510      	push	{r4, lr}
   800f6:	4c05      	ldr	r4, [pc, #20]	; (8010c <__do_global_dtors_aux+0x18>)
   800f8:	7823      	ldrb	r3, [r4, #0]
   800fa:	b933      	cbnz	r3, 8010a <__do_global_dtors_aux+0x16>
   800fc:	4b04      	ldr	r3, [pc, #16]	; (80110 <__do_global_dtors_aux+0x1c>)
   800fe:	b113      	cbz	r3, 80106 <__do_global_dtors_aux+0x12>
   80100:	4804      	ldr	r0, [pc, #16]	; (80114 <__do_global_dtors_aux+0x20>)
   80102:	f3af 8000 	nop.w
   80106:	2301      	movs	r3, #1
   80108:	7023      	strb	r3, [r4, #0]
   8010a:	bd10      	pop	{r4, pc}
   8010c:	2007092c 	.word	0x2007092c
   80110:	00000000 	.word	0x00000000
   80114:	00083524 	.word	0x00083524

00080118 <frame_dummy>:
   80118:	4b08      	ldr	r3, [pc, #32]	; (8013c <frame_dummy+0x24>)
   8011a:	b510      	push	{r4, lr}
   8011c:	b11b      	cbz	r3, 80126 <frame_dummy+0xe>
   8011e:	4908      	ldr	r1, [pc, #32]	; (80140 <frame_dummy+0x28>)
   80120:	4808      	ldr	r0, [pc, #32]	; (80144 <frame_dummy+0x2c>)
   80122:	f3af 8000 	nop.w
   80126:	4808      	ldr	r0, [pc, #32]	; (80148 <frame_dummy+0x30>)
   80128:	6803      	ldr	r3, [r0, #0]
   8012a:	b903      	cbnz	r3, 8012e <frame_dummy+0x16>
   8012c:	bd10      	pop	{r4, pc}
   8012e:	4b07      	ldr	r3, [pc, #28]	; (8014c <frame_dummy+0x34>)
   80130:	2b00      	cmp	r3, #0
   80132:	d0fb      	beq.n	8012c <frame_dummy+0x14>
   80134:	e8bd 4010 	ldmia.w	sp!, {r4, lr}
   80138:	4718      	bx	r3
   8013a:	bf00      	nop
   8013c:	00000000 	.word	0x00000000
   80140:	20070930 	.word	0x20070930
   80144:	00083524 	.word	0x00083524
   80148:	00083524 	.word	0x00083524
   8014c:	00000000 	.word	0x00000000

00080150 <at24cxx_acknowledge_polling>:
   80150:	e92d 43f7 	stmdb	sp!, {r0, r1, r2, r4, r5, r6, r7, r8, r9, lr}
   80154:	4604      	mov	r4, r0
   80156:	2200      	movs	r2, #0
   80158:	ab02      	add	r3, sp, #8
   8015a:	f803 2d01 	strb.w	r2, [r3, #-1]!
   8015e:	6886      	ldr	r6, [r0, #8]
   80160:	f8df 9030 	ldr.w	r9, [pc, #48]	; 80194 <at24cxx_acknowledge_polling+0x44>
   80164:	6083      	str	r3, [r0, #8]
   80166:	2301      	movs	r3, #1
   80168:	f890 8000 	ldrb.w	r8, [r0]
   8016c:	6847      	ldr	r7, [r0, #4]
   8016e:	68c5      	ldr	r5, [r0, #12]
   80170:	7002      	strb	r2, [r0, #0]
   80172:	6042      	str	r2, [r0, #4]
   80174:	60c3      	str	r3, [r0, #12]
   80176:	4621      	mov	r1, r4
   80178:	4805      	ldr	r0, [pc, #20]	; (80190 <at24cxx_acknowledge_polling+0x40>)
   8017a:	47c8      	blx	r9
   8017c:	2800      	cmp	r0, #0
   8017e:	d1fa      	bne.n	80176 <at24cxx_acknowledge_polling+0x26>
   80180:	f884 8000 	strb.w	r8, [r4]
   80184:	6067      	str	r7, [r4, #4]
   80186:	60a6      	str	r6, [r4, #8]
   80188:	60e5      	str	r5, [r4, #12]
   8018a:	b003      	add	sp, #12
   8018c:	e8bd 83f0 	ldmia.w	sp!, {r4, r5, r6, r7, r8, r9, pc}
   80190:	40090000 	.word	0x40090000
   80194:	000808a5 	.word	0x000808a5

00080198 <at24cxx_write_byte>:
   80198:	b530      	push	{r4, r5, lr}
   8019a:	2350      	movs	r3, #80	; 0x50
   8019c:	b089      	sub	sp, #36	; 0x24
   8019e:	f88d 301c 	strb.w	r3, [sp, #28]
   801a2:	0a03      	lsrs	r3, r0, #8
   801a4:	f88d 300c 	strb.w	r3, [sp, #12]
   801a8:	2302      	movs	r3, #2
   801aa:	9304      	str	r3, [sp, #16]
   801ac:	f10d 0307 	add.w	r3, sp, #7
   801b0:	f88d 1007 	strb.w	r1, [sp, #7]
   801b4:	f88d 000d 	strb.w	r0, [sp, #13]
   801b8:	9305      	str	r3, [sp, #20]
   801ba:	2501      	movs	r5, #1
   801bc:	a903      	add	r1, sp, #12
   801be:	4807      	ldr	r0, [pc, #28]	; (801dc <at24cxx_write_byte+0x44>)
   801c0:	4b07      	ldr	r3, [pc, #28]	; (801e0 <at24cxx_write_byte+0x48>)
   801c2:	9506      	str	r5, [sp, #24]
   801c4:	4798      	blx	r3
   801c6:	4604      	mov	r4, r0
   801c8:	b918      	cbnz	r0, 801d2 <at24cxx_write_byte+0x3a>
   801ca:	a803      	add	r0, sp, #12
   801cc:	4b05      	ldr	r3, [pc, #20]	; (801e4 <at24cxx_write_byte+0x4c>)
   801ce:	4798      	blx	r3
   801d0:	e000      	b.n	801d4 <at24cxx_write_byte+0x3c>
   801d2:	462c      	mov	r4, r5
   801d4:	4620      	mov	r0, r4
   801d6:	b009      	add	sp, #36	; 0x24
   801d8:	bd30      	pop	{r4, r5, pc}
   801da:	bf00      	nop
   801dc:	40090000 	.word	0x40090000
   801e0:	000808a5 	.word	0x000808a5
   801e4:	00080151 	.word	0x00080151

000801e8 <at24cxx_read_byte>:
   801e8:	b57f      	push	{r0, r1, r2, r3, r4, r5, r6, lr}
   801ea:	2350      	movs	r3, #80	; 0x50
   801ec:	f88d 3014 	strb.w	r3, [sp, #20]
   801f0:	0a03      	lsrs	r3, r0, #8
   801f2:	f88d 3004 	strb.w	r3, [sp, #4]
   801f6:	2302      	movs	r3, #2
   801f8:	9302      	str	r3, [sp, #8]
   801fa:	2301      	movs	r3, #1
   801fc:	f88d 0005 	strb.w	r0, [sp, #5]
   80200:	9103      	str	r1, [sp, #12]
   80202:	9304      	str	r3, [sp, #16]
   80204:	a901      	add	r1, sp, #4
   80206:	4b04      	ldr	r3, [pc, #16]	; (80218 <at24cxx_read_byte+0x30>)
   80208:	4804      	ldr	r0, [pc, #16]	; (8021c <at24cxx_read_byte+0x34>)
   8020a:	4798      	blx	r3
   8020c:	3000      	adds	r0, #0
   8020e:	bf18      	it	ne
   80210:	2001      	movne	r0, #1
   80212:	b007      	add	sp, #28
   80214:	f85d fb04 	ldr.w	pc, [sp], #4
   80218:	00080809 	.word	0x00080809
   8021c:	40090000 	.word	0x40090000

00080220 <at24cxx_read_continuous>:
   80220:	b57f      	push	{r0, r1, r2, r3, r4, r5, r6, lr}
   80222:	2350      	movs	r3, #80	; 0x50
   80224:	f88d 3014 	strb.w	r3, [sp, #20]
   80228:	0a03      	lsrs	r3, r0, #8
   8022a:	f88d 3004 	strb.w	r3, [sp, #4]
   8022e:	2302      	movs	r3, #2
   80230:	f88d 0005 	strb.w	r0, [sp, #5]
   80234:	9302      	str	r3, [sp, #8]
   80236:	9104      	str	r1, [sp, #16]
   80238:	4b05      	ldr	r3, [pc, #20]	; (80250 <at24cxx_read_continuous+0x30>)
   8023a:	a901      	add	r1, sp, #4
   8023c:	4805      	ldr	r0, [pc, #20]	; (80254 <at24cxx_read_continuous+0x34>)
   8023e:	9203      	str	r2, [sp, #12]
   80240:	4798      	blx	r3
   80242:	3000      	adds	r0, #0
   80244:	bf18      	it	ne
   80246:	2001      	movne	r0, #1
   80248:	b007      	add	sp, #28
   8024a:	f85d fb04 	ldr.w	pc, [sp], #4
   8024e:	bf00      	nop
   80250:	00080809 	.word	0x00080809
   80254:	40090000 	.word	0x40090000

00080258 <adc_init>:
   80258:	b530      	push	{r4, r5, lr}
   8025a:	2401      	movs	r4, #1
   8025c:	6004      	str	r4, [r0, #0]
   8025e:	0052      	lsls	r2, r2, #1
   80260:	f240 2402 	movw	r4, #514	; 0x202
   80264:	fbb1 f1f2 	udiv	r1, r1, r2
   80268:	2500      	movs	r5, #0
   8026a:	6045      	str	r5, [r0, #4]
   8026c:	f8c0 4120 	str.w	r4, [r0, #288]	; 0x120
   80270:	f8c0 5104 	str.w	r5, [r0, #260]	; 0x104
   80274:	f8c0 5114 	str.w	r5, [r0, #276]	; 0x114
   80278:	6844      	ldr	r4, [r0, #4]
   8027a:	1e4a      	subs	r2, r1, #1
   8027c:	0212      	lsls	r2, r2, #8
   8027e:	4323      	orrs	r3, r4
   80280:	b292      	uxth	r2, r2
   80282:	431a      	orrs	r2, r3
   80284:	6042      	str	r2, [r0, #4]
   80286:	4628      	mov	r0, r5
   80288:	bd30      	pop	{r4, r5, pc}

0008028a <adc_set_resolution>:
   8028a:	6843      	ldr	r3, [r0, #4]
   8028c:	f023 0310 	bic.w	r3, r3, #16
   80290:	6043      	str	r3, [r0, #4]
   80292:	6843      	ldr	r3, [r0, #4]
   80294:	4319      	orrs	r1, r3
   80296:	6041      	str	r1, [r0, #4]
   80298:	4770      	bx	lr

0008029a <adc_configure_trigger>:
   8029a:	6843      	ldr	r3, [r0, #4]
   8029c:	01d2      	lsls	r2, r2, #7
   8029e:	b2d2      	uxtb	r2, r2
   802a0:	4319      	orrs	r1, r3
   802a2:	4311      	orrs	r1, r2
   802a4:	6041      	str	r1, [r0, #4]
   802a6:	4770      	bx	lr

000802a8 <adc_configure_timing>:
   802a8:	b510      	push	{r4, lr}
   802aa:	6844      	ldr	r4, [r0, #4]
   802ac:	0609      	lsls	r1, r1, #24
   802ae:	f001 6170 	and.w	r1, r1, #251658240	; 0xf000000
   802b2:	4322      	orrs	r2, r4
   802b4:	071b      	lsls	r3, r3, #28
   802b6:	430a      	orrs	r2, r1
   802b8:	f003 5340 	and.w	r3, r3, #805306368	; 0x30000000
   802bc:	4313      	orrs	r3, r2
   802be:	6043      	str	r3, [r0, #4]
   802c0:	bd10      	pop	{r4, pc}

000802c2 <adc_start>:
   802c2:	2302      	movs	r3, #2
   802c4:	6003      	str	r3, [r0, #0]
   802c6:	4770      	bx	lr

000802c8 <adc_enable_channel>:
   802c8:	2301      	movs	r3, #1
   802ca:	fa03 f101 	lsl.w	r1, r3, r1
   802ce:	6101      	str	r1, [r0, #16]
   802d0:	4770      	bx	lr

000802d2 <adc_enable_tag>:
   802d2:	6c03      	ldr	r3, [r0, #64]	; 0x40
   802d4:	f043 7380 	orr.w	r3, r3, #16777216	; 0x1000000
   802d8:	6403      	str	r3, [r0, #64]	; 0x40
   802da:	4770      	bx	lr

000802dc <adc_enable_interrupt>:
   802dc:	6241      	str	r1, [r0, #36]	; 0x24
   802de:	4770      	bx	lr

000802e0 <sysclk_init>:
   802e0:	b570      	push	{r4, r5, r6, lr}
   802e2:	480f      	ldr	r0, [pc, #60]	; (80320 <sysclk_init+0x40>)
   802e4:	4c0f      	ldr	r4, [pc, #60]	; (80324 <sysclk_init+0x44>)
   802e6:	47a0      	blx	r4
   802e8:	213e      	movs	r1, #62	; 0x3e
   802ea:	2000      	movs	r0, #0
   802ec:	4b0e      	ldr	r3, [pc, #56]	; (80328 <sysclk_init+0x48>)
   802ee:	4798      	blx	r3
   802f0:	4d0e      	ldr	r5, [pc, #56]	; (8032c <sysclk_init+0x4c>)
   802f2:	47a8      	blx	r5
   802f4:	2800      	cmp	r0, #0
   802f6:	d0fc      	beq.n	802f2 <sysclk_init+0x12>
   802f8:	4b0d      	ldr	r3, [pc, #52]	; (80330 <sysclk_init+0x50>)
   802fa:	4798      	blx	r3
   802fc:	4a0d      	ldr	r2, [pc, #52]	; (80334 <sysclk_init+0x54>)
   802fe:	4b0e      	ldr	r3, [pc, #56]	; (80338 <sysclk_init+0x58>)
   80300:	4d0e      	ldr	r5, [pc, #56]	; (8033c <sysclk_init+0x5c>)
   80302:	629a      	str	r2, [r3, #40]	; 0x28
   80304:	47a8      	blx	r5
   80306:	2800      	cmp	r0, #0
   80308:	d0fc      	beq.n	80304 <sysclk_init+0x24>
   8030a:	4b0d      	ldr	r3, [pc, #52]	; (80340 <sysclk_init+0x60>)
   8030c:	2010      	movs	r0, #16
   8030e:	4798      	blx	r3
   80310:	4b0c      	ldr	r3, [pc, #48]	; (80344 <sysclk_init+0x64>)
   80312:	4798      	blx	r3
   80314:	4623      	mov	r3, r4
   80316:	e8bd 4070 	ldmia.w	sp!, {r4, r5, r6, lr}
   8031a:	4801      	ldr	r0, [pc, #4]	; (80320 <sysclk_init+0x40>)
   8031c:	4718      	bx	r3
   8031e:	bf00      	nop
   80320:	0501bd00 	.word	0x0501bd00
   80324:	20070089 	.word	0x20070089
   80328:	00080615 	.word	0x00080615
   8032c:	00080665 	.word	0x00080665
   80330:	00080675 	.word	0x00080675
   80334:	200d3f01 	.word	0x200d3f01
   80338:	400e0600 	.word	0x400e0600
   8033c:	00080685 	.word	0x00080685
   80340:	000805d1 	.word	0x000805d1
   80344:	00080995 	.word	0x00080995

00080348 <board_init>:
   80348:	4b18      	ldr	r3, [pc, #96]	; (803ac <board_init+0x64>)
   8034a:	f44f 4200 	mov.w	r2, #32768	; 0x8000
   8034e:	b510      	push	{r4, lr}
   80350:	200b      	movs	r0, #11
   80352:	605a      	str	r2, [r3, #4]
   80354:	4c16      	ldr	r4, [pc, #88]	; (803b0 <board_init+0x68>)
   80356:	47a0      	blx	r4
   80358:	200c      	movs	r0, #12
   8035a:	47a0      	blx	r4
   8035c:	200d      	movs	r0, #13
   8035e:	47a0      	blx	r4
   80360:	200e      	movs	r0, #14
   80362:	47a0      	blx	r4
   80364:	4c13      	ldr	r4, [pc, #76]	; (803b4 <board_init+0x6c>)
   80366:	f04f 5160 	mov.w	r1, #939524096	; 0x38000000
   8036a:	203b      	movs	r0, #59	; 0x3b
   8036c:	47a0      	blx	r4
   8036e:	f04f 5160 	mov.w	r1, #939524096	; 0x38000000
   80372:	2055      	movs	r0, #85	; 0x55
   80374:	47a0      	blx	r4
   80376:	f04f 5160 	mov.w	r1, #939524096	; 0x38000000
   8037a:	2056      	movs	r0, #86	; 0x56
   8037c:	47a0      	blx	r4
   8037e:	490e      	ldr	r1, [pc, #56]	; (803b8 <board_init+0x70>)
   80380:	2068      	movs	r0, #104	; 0x68
   80382:	47a0      	blx	r4
   80384:	490d      	ldr	r1, [pc, #52]	; (803bc <board_init+0x74>)
   80386:	205c      	movs	r0, #92	; 0x5c
   80388:	47a0      	blx	r4
   8038a:	4b0d      	ldr	r3, [pc, #52]	; (803c0 <board_init+0x78>)
   8038c:	4a0d      	ldr	r2, [pc, #52]	; (803c4 <board_init+0x7c>)
   8038e:	f44f 7140 	mov.w	r1, #768	; 0x300
   80392:	480d      	ldr	r0, [pc, #52]	; (803c8 <board_init+0x80>)
   80394:	4798      	blx	r3
   80396:	f04f 6100 	mov.w	r1, #134217728	; 0x8000000
   8039a:	202b      	movs	r0, #43	; 0x2b
   8039c:	47a0      	blx	r4
   8039e:	4623      	mov	r3, r4
   803a0:	e8bd 4010 	ldmia.w	sp!, {r4, lr}
   803a4:	f04f 6100 	mov.w	r1, #134217728	; 0x8000000
   803a8:	202a      	movs	r0, #42	; 0x2a
   803aa:	4718      	bx	r3
   803ac:	400e1a50 	.word	0x400e1a50
   803b0:	00080695 	.word	0x00080695
   803b4:	00080481 	.word	0x00080481
   803b8:	28000079 	.word	0x28000079
   803bc:	28000001 	.word	0x28000001
   803c0:	00080549 	.word	0x00080549
   803c4:	08000001 	.word	0x08000001
   803c8:	400e0e00 	.word	0x400e0e00

000803cc <pdc_tx_init>:
   803cc:	b119      	cbz	r1, 803d6 <pdc_tx_init+0xa>
   803ce:	680b      	ldr	r3, [r1, #0]
   803d0:	6083      	str	r3, [r0, #8]
   803d2:	684b      	ldr	r3, [r1, #4]
   803d4:	60c3      	str	r3, [r0, #12]
   803d6:	b11a      	cbz	r2, 803e0 <pdc_tx_init+0x14>
   803d8:	6813      	ldr	r3, [r2, #0]
   803da:	6183      	str	r3, [r0, #24]
   803dc:	6853      	ldr	r3, [r2, #4]
   803de:	61c3      	str	r3, [r0, #28]
   803e0:	4770      	bx	lr

000803e2 <pdc_enable_transfer>:
   803e2:	f021 01fe 	bic.w	r1, r1, #254	; 0xfe
   803e6:	05c9      	lsls	r1, r1, #23
   803e8:	0dc9      	lsrs	r1, r1, #23
   803ea:	6201      	str	r1, [r0, #32]
   803ec:	4770      	bx	lr

000803ee <pio_clear>:
   803ee:	6341      	str	r1, [r0, #52]	; 0x34
   803f0:	4770      	bx	lr

000803f2 <pio_set_peripheral>:
   803f2:	f1b1 5f80 	cmp.w	r1, #268435456	; 0x10000000
   803f6:	6442      	str	r2, [r0, #68]	; 0x44
   803f8:	d014      	beq.n	80424 <pio_set_peripheral+0x32>
   803fa:	d809      	bhi.n	80410 <pio_set_peripheral+0x1e>
   803fc:	b1b1      	cbz	r1, 8042c <pio_set_peripheral+0x3a>
   803fe:	f1b1 6f00 	cmp.w	r1, #134217728	; 0x8000000
   80402:	d112      	bne.n	8042a <pio_set_peripheral+0x38>
   80404:	6f01      	ldr	r1, [r0, #112]	; 0x70
   80406:	6f03      	ldr	r3, [r0, #112]	; 0x70
   80408:	400b      	ands	r3, r1
   8040a:	ea23 0302 	bic.w	r3, r3, r2
   8040e:	e00b      	b.n	80428 <pio_set_peripheral+0x36>
   80410:	f1b1 5f40 	cmp.w	r1, #805306368	; 0x30000000
   80414:	d00a      	beq.n	8042c <pio_set_peripheral+0x3a>
   80416:	f1b1 5f60 	cmp.w	r1, #939524096	; 0x38000000
   8041a:	d007      	beq.n	8042c <pio_set_peripheral+0x3a>
   8041c:	f1b1 5f20 	cmp.w	r1, #671088640	; 0x28000000
   80420:	d103      	bne.n	8042a <pio_set_peripheral+0x38>
   80422:	4770      	bx	lr
   80424:	6f03      	ldr	r3, [r0, #112]	; 0x70
   80426:	4313      	orrs	r3, r2
   80428:	6703      	str	r3, [r0, #112]	; 0x70
   8042a:	6042      	str	r2, [r0, #4]
   8042c:	4770      	bx	lr

0008042e <pio_set_input>:
   8042e:	07d3      	lsls	r3, r2, #31
   80430:	6441      	str	r1, [r0, #68]	; 0x44
   80432:	bf4c      	ite	mi
   80434:	6641      	strmi	r1, [r0, #100]	; 0x64
   80436:	6601      	strpl	r1, [r0, #96]	; 0x60
   80438:	f012 0f0a 	tst.w	r2, #10
   8043c:	bf14      	ite	ne
   8043e:	6201      	strne	r1, [r0, #32]
   80440:	6241      	streq	r1, [r0, #36]	; 0x24
   80442:	0793      	lsls	r3, r2, #30
   80444:	d502      	bpl.n	8044c <pio_set_input+0x1e>
   80446:	f8c0 1080 	str.w	r1, [r0, #128]	; 0x80
   8044a:	e003      	b.n	80454 <pio_set_input+0x26>
   8044c:	0713      	lsls	r3, r2, #28
   8044e:	bf48      	it	mi
   80450:	f8c0 1084 	strmi.w	r1, [r0, #132]	; 0x84
   80454:	6141      	str	r1, [r0, #20]
   80456:	6001      	str	r1, [r0, #0]
   80458:	4770      	bx	lr

0008045a <pio_set_output>:
   8045a:	b510      	push	{r4, lr}
   8045c:	9c02      	ldr	r4, [sp, #8]
   8045e:	6441      	str	r1, [r0, #68]	; 0x44
   80460:	b10c      	cbz	r4, 80466 <pio_set_output+0xc>
   80462:	6641      	str	r1, [r0, #100]	; 0x64
   80464:	e000      	b.n	80468 <pio_set_output+0xe>
   80466:	6601      	str	r1, [r0, #96]	; 0x60
   80468:	b10b      	cbz	r3, 8046e <pio_set_output+0x14>
   8046a:	6501      	str	r1, [r0, #80]	; 0x50
   8046c:	e000      	b.n	80470 <pio_set_output+0x16>
   8046e:	6541      	str	r1, [r0, #84]	; 0x54
   80470:	b10a      	cbz	r2, 80476 <pio_set_output+0x1c>
   80472:	6301      	str	r1, [r0, #48]	; 0x30
   80474:	e000      	b.n	80478 <pio_set_output+0x1e>
   80476:	6341      	str	r1, [r0, #52]	; 0x34
   80478:	6101      	str	r1, [r0, #16]
   8047a:	6001      	str	r1, [r0, #0]
   8047c:	bd10      	pop	{r4, pc}
	...

00080480 <pio_configure_pin>:
   80480:	b5f7      	push	{r0, r1, r2, r4, r5, r6, r7, lr}
   80482:	0945      	lsrs	r5, r0, #5
   80484:	460e      	mov	r6, r1
   80486:	f505 1500 	add.w	r5, r5, #2097152	; 0x200000
   8048a:	f001 41f0 	and.w	r1, r1, #2013265920	; 0x78000000
   8048e:	f205 7507 	addw	r5, r5, #1799	; 0x707
   80492:	f1b1 5f20 	cmp.w	r1, #671088640	; 0x28000000
   80496:	ea4f 2545 	mov.w	r5, r5, lsl #9
   8049a:	d02c      	beq.n	804f6 <pio_configure_pin+0x76>
   8049c:	d815      	bhi.n	804ca <pio_configure_pin+0x4a>
   8049e:	f1b1 6f00 	cmp.w	r1, #134217728	; 0x8000000
   804a2:	d019      	beq.n	804d8 <pio_configure_pin+0x58>
   804a4:	f1b1 5f80 	cmp.w	r1, #268435456	; 0x10000000
   804a8:	d144      	bne.n	80534 <pio_configure_pin+0xb4>
   804aa:	f000 011f 	and.w	r1, r0, #31
   804ae:	2001      	movs	r0, #1
   804b0:	fa00 f101 	lsl.w	r1, r0, r1
   804b4:	6469      	str	r1, [r5, #68]	; 0x44
   804b6:	6f2b      	ldr	r3, [r5, #112]	; 0x70
   804b8:	07f4      	lsls	r4, r6, #31
   804ba:	ea43 0301 	orr.w	r3, r3, r1
   804be:	672b      	str	r3, [r5, #112]	; 0x70
   804c0:	6069      	str	r1, [r5, #4]
   804c2:	bf4c      	ite	mi
   804c4:	6669      	strmi	r1, [r5, #100]	; 0x64
   804c6:	6629      	strpl	r1, [r5, #96]	; 0x60
   804c8:	e035      	b.n	80536 <pio_configure_pin+0xb6>
   804ca:	f1b1 5f40 	cmp.w	r1, #805306368	; 0x30000000
   804ce:	d01c      	beq.n	8050a <pio_configure_pin+0x8a>
   804d0:	f1b1 5f60 	cmp.w	r1, #939524096	; 0x38000000
   804d4:	d019      	beq.n	8050a <pio_configure_pin+0x8a>
   804d6:	e02d      	b.n	80534 <pio_configure_pin+0xb4>
   804d8:	f000 041f 	and.w	r4, r0, #31
   804dc:	2701      	movs	r7, #1
   804de:	fa07 f404 	lsl.w	r4, r7, r4
   804e2:	4628      	mov	r0, r5
   804e4:	4622      	mov	r2, r4
   804e6:	4b15      	ldr	r3, [pc, #84]	; (8053c <pio_configure_pin+0xbc>)
   804e8:	4798      	blx	r3
   804ea:	07f6      	lsls	r6, r6, #31
   804ec:	bf4c      	ite	mi
   804ee:	666c      	strmi	r4, [r5, #100]	; 0x64
   804f0:	662c      	strpl	r4, [r5, #96]	; 0x60
   804f2:	4638      	mov	r0, r7
   804f4:	e01f      	b.n	80536 <pio_configure_pin+0xb6>
   804f6:	f000 011f 	and.w	r1, r0, #31
   804fa:	2401      	movs	r4, #1
   804fc:	4632      	mov	r2, r6
   804fe:	fa04 f101 	lsl.w	r1, r4, r1
   80502:	4628      	mov	r0, r5
   80504:	4b0e      	ldr	r3, [pc, #56]	; (80540 <pio_configure_pin+0xc0>)
   80506:	4798      	blx	r3
   80508:	e012      	b.n	80530 <pio_configure_pin+0xb0>
   8050a:	f006 5260 	and.w	r2, r6, #939524096	; 0x38000000
   8050e:	f000 011f 	and.w	r1, r0, #31
   80512:	2401      	movs	r4, #1
   80514:	f102 4048 	add.w	r0, r2, #3355443200	; 0xc8000000
   80518:	ea06 0304 	and.w	r3, r6, r4
   8051c:	4242      	negs	r2, r0
   8051e:	9300      	str	r3, [sp, #0]
   80520:	4142      	adcs	r2, r0
   80522:	f3c6 0380 	ubfx	r3, r6, #2, #1
   80526:	4628      	mov	r0, r5
   80528:	fa04 f101 	lsl.w	r1, r4, r1
   8052c:	4d05      	ldr	r5, [pc, #20]	; (80544 <pio_configure_pin+0xc4>)
   8052e:	47a8      	blx	r5
   80530:	4620      	mov	r0, r4
   80532:	e000      	b.n	80536 <pio_configure_pin+0xb6>
   80534:	2000      	movs	r0, #0
   80536:	b003      	add	sp, #12
   80538:	bdf0      	pop	{r4, r5, r6, r7, pc}
   8053a:	bf00      	nop
   8053c:	000803f3 	.word	0x000803f3
   80540:	0008042f 	.word	0x0008042f
   80544:	0008045b 	.word	0x0008045b

00080548 <pio_configure_pin_group>:
   80548:	f002 43f0 	and.w	r3, r2, #2013265920	; 0x78000000
   8054c:	f1b3 5f20 	cmp.w	r3, #671088640	; 0x28000000
   80550:	b573      	push	{r0, r1, r4, r5, r6, lr}
   80552:	4604      	mov	r4, r0
   80554:	460d      	mov	r5, r1
   80556:	4616      	mov	r6, r2
   80558:	d01c      	beq.n	80594 <pio_configure_pin_group+0x4c>
   8055a:	d80b      	bhi.n	80574 <pio_configure_pin_group+0x2c>
   8055c:	f1b3 6f00 	cmp.w	r3, #134217728	; 0x8000000
   80560:	d00f      	beq.n	80582 <pio_configure_pin_group+0x3a>
   80562:	f1b3 5f80 	cmp.w	r3, #268435456	; 0x10000000
   80566:	d129      	bne.n	805bc <pio_configure_pin_group+0x74>
   80568:	6461      	str	r1, [r4, #68]	; 0x44
   8056a:	6f03      	ldr	r3, [r0, #112]	; 0x70
   8056c:	430b      	orrs	r3, r1
   8056e:	6703      	str	r3, [r0, #112]	; 0x70
   80570:	6061      	str	r1, [r4, #4]
   80572:	e00a      	b.n	8058a <pio_configure_pin_group+0x42>
   80574:	f1b3 5f40 	cmp.w	r3, #805306368	; 0x30000000
   80578:	d010      	beq.n	8059c <pio_configure_pin_group+0x54>
   8057a:	f1b3 5f60 	cmp.w	r3, #939524096	; 0x38000000
   8057e:	d00d      	beq.n	8059c <pio_configure_pin_group+0x54>
   80580:	e01c      	b.n	805bc <pio_configure_pin_group+0x74>
   80582:	460a      	mov	r2, r1
   80584:	4619      	mov	r1, r3
   80586:	4b0f      	ldr	r3, [pc, #60]	; (805c4 <pio_configure_pin_group+0x7c>)
   80588:	4798      	blx	r3
   8058a:	07f0      	lsls	r0, r6, #31
   8058c:	bf4c      	ite	mi
   8058e:	6665      	strmi	r5, [r4, #100]	; 0x64
   80590:	6625      	strpl	r5, [r4, #96]	; 0x60
   80592:	e001      	b.n	80598 <pio_configure_pin_group+0x50>
   80594:	4b0c      	ldr	r3, [pc, #48]	; (805c8 <pio_configure_pin_group+0x80>)
   80596:	4798      	blx	r3
   80598:	2001      	movs	r0, #1
   8059a:	e010      	b.n	805be <pio_configure_pin_group+0x76>
   8059c:	f006 5260 	and.w	r2, r6, #939524096	; 0x38000000
   805a0:	f102 4148 	add.w	r1, r2, #3355443200	; 0xc8000000
   805a4:	f006 0301 	and.w	r3, r6, #1
   805a8:	424a      	negs	r2, r1
   805aa:	9300      	str	r3, [sp, #0]
   805ac:	414a      	adcs	r2, r1
   805ae:	4620      	mov	r0, r4
   805b0:	f3c6 0380 	ubfx	r3, r6, #2, #1
   805b4:	4629      	mov	r1, r5
   805b6:	4c05      	ldr	r4, [pc, #20]	; (805cc <pio_configure_pin_group+0x84>)
   805b8:	47a0      	blx	r4
   805ba:	e7ed      	b.n	80598 <pio_configure_pin_group+0x50>
   805bc:	2000      	movs	r0, #0
   805be:	b002      	add	sp, #8
   805c0:	bd70      	pop	{r4, r5, r6, pc}
   805c2:	bf00      	nop
   805c4:	000803f3 	.word	0x000803f3
   805c8:	0008042f 	.word	0x0008042f
   805cc:	0008045b 	.word	0x0008045b

000805d0 <pmc_switch_mck_to_pllack>:
   805d0:	4b0f      	ldr	r3, [pc, #60]	; (80610 <pmc_switch_mck_to_pllack+0x40>)
   805d2:	6b1a      	ldr	r2, [r3, #48]	; 0x30
   805d4:	f022 0270 	bic.w	r2, r2, #112	; 0x70
   805d8:	4310      	orrs	r0, r2
   805da:	f640 0201 	movw	r2, #2049	; 0x801
   805de:	6318      	str	r0, [r3, #48]	; 0x30
   805e0:	6e98      	ldr	r0, [r3, #104]	; 0x68
   805e2:	490b      	ldr	r1, [pc, #44]	; (80610 <pmc_switch_mck_to_pllack+0x40>)
   805e4:	0700      	lsls	r0, r0, #28
   805e6:	d403      	bmi.n	805f0 <pmc_switch_mck_to_pllack+0x20>
   805e8:	3a01      	subs	r2, #1
   805ea:	d1f9      	bne.n	805e0 <pmc_switch_mck_to_pllack+0x10>
   805ec:	2001      	movs	r0, #1
   805ee:	4770      	bx	lr
   805f0:	6b0a      	ldr	r2, [r1, #48]	; 0x30
   805f2:	f022 0203 	bic.w	r2, r2, #3
   805f6:	f042 0202 	orr.w	r2, r2, #2
   805fa:	630a      	str	r2, [r1, #48]	; 0x30
   805fc:	f640 0201 	movw	r2, #2049	; 0x801
   80600:	6e99      	ldr	r1, [r3, #104]	; 0x68
   80602:	0709      	lsls	r1, r1, #28
   80604:	d402      	bmi.n	8060c <pmc_switch_mck_to_pllack+0x3c>
   80606:	3a01      	subs	r2, #1
   80608:	d1fa      	bne.n	80600 <pmc_switch_mck_to_pllack+0x30>
   8060a:	e7ef      	b.n	805ec <pmc_switch_mck_to_pllack+0x1c>
   8060c:	2000      	movs	r0, #0
   8060e:	4770      	bx	lr
   80610:	400e0600 	.word	0x400e0600

00080614 <pmc_switch_mainck_to_xtal>:
   80614:	b510      	push	{r4, lr}
   80616:	4c10      	ldr	r4, [pc, #64]	; (80658 <pmc_switch_mainck_to_xtal+0x44>)
   80618:	b130      	cbz	r0, 80628 <pmc_switch_mainck_to_xtal+0x14>
   8061a:	6a23      	ldr	r3, [r4, #32]
   8061c:	4a0f      	ldr	r2, [pc, #60]	; (8065c <pmc_switch_mainck_to_xtal+0x48>)
   8061e:	401a      	ands	r2, r3
   80620:	4b0f      	ldr	r3, [pc, #60]	; (80660 <pmc_switch_mainck_to_xtal+0x4c>)
   80622:	4313      	orrs	r3, r2
   80624:	6223      	str	r3, [r4, #32]
   80626:	bd10      	pop	{r4, pc}
   80628:	6a22      	ldr	r2, [r4, #32]
   8062a:	0209      	lsls	r1, r1, #8
   8062c:	f422 135c 	bic.w	r3, r2, #3604480	; 0x370000
   80630:	f023 0303 	bic.w	r3, r3, #3
   80634:	f443 135c 	orr.w	r3, r3, #3604480	; 0x370000
   80638:	b289      	uxth	r1, r1
   8063a:	f043 0301 	orr.w	r3, r3, #1
   8063e:	430b      	orrs	r3, r1
   80640:	6223      	str	r3, [r4, #32]
   80642:	6ea3      	ldr	r3, [r4, #104]	; 0x68
   80644:	4a04      	ldr	r2, [pc, #16]	; (80658 <pmc_switch_mainck_to_xtal+0x44>)
   80646:	07db      	lsls	r3, r3, #31
   80648:	d5fb      	bpl.n	80642 <pmc_switch_mainck_to_xtal+0x2e>
   8064a:	6a13      	ldr	r3, [r2, #32]
   8064c:	f043 739b 	orr.w	r3, r3, #20316160	; 0x1360000
   80650:	f443 3380 	orr.w	r3, r3, #65536	; 0x10000
   80654:	6213      	str	r3, [r2, #32]
   80656:	bd10      	pop	{r4, pc}
   80658:	400e0600 	.word	0x400e0600
   8065c:	fec8fffc 	.word	0xfec8fffc
   80660:	01370002 	.word	0x01370002

00080664 <pmc_osc_is_ready_mainck>:
   80664:	4b02      	ldr	r3, [pc, #8]	; (80670 <pmc_osc_is_ready_mainck+0xc>)
   80666:	6e98      	ldr	r0, [r3, #104]	; 0x68
   80668:	f400 3080 	and.w	r0, r0, #65536	; 0x10000
   8066c:	4770      	bx	lr
   8066e:	bf00      	nop
   80670:	400e0600 	.word	0x400e0600

00080674 <pmc_disable_pllack>:
   80674:	4b02      	ldr	r3, [pc, #8]	; (80680 <pmc_disable_pllack+0xc>)
   80676:	f04f 5200 	mov.w	r2, #536870912	; 0x20000000
   8067a:	629a      	str	r2, [r3, #40]	; 0x28
   8067c:	4770      	bx	lr
   8067e:	bf00      	nop
   80680:	400e0600 	.word	0x400e0600

00080684 <pmc_is_locked_pllack>:
   80684:	4b02      	ldr	r3, [pc, #8]	; (80690 <pmc_is_locked_pllack+0xc>)
   80686:	6e98      	ldr	r0, [r3, #104]	; 0x68
   80688:	f000 0002 	and.w	r0, r0, #2
   8068c:	4770      	bx	lr
   8068e:	bf00      	nop
   80690:	400e0600 	.word	0x400e0600

00080694 <pmc_enable_periph_clk>:
   80694:	282c      	cmp	r0, #44	; 0x2c
   80696:	d817      	bhi.n	806c8 <pmc_enable_periph_clk+0x34>
   80698:	281f      	cmp	r0, #31
   8069a:	4a0d      	ldr	r2, [pc, #52]	; (806d0 <pmc_enable_periph_clk+0x3c>)
   8069c:	f04f 0301 	mov.w	r3, #1
   806a0:	d807      	bhi.n	806b2 <pmc_enable_periph_clk+0x1e>
   806a2:	6991      	ldr	r1, [r2, #24]
   806a4:	fa03 f000 	lsl.w	r0, r3, r0
   806a8:	ea30 0301 	bics.w	r3, r0, r1
   806ac:	d00e      	beq.n	806cc <pmc_enable_periph_clk+0x38>
   806ae:	6110      	str	r0, [r2, #16]
   806b0:	e00c      	b.n	806cc <pmc_enable_periph_clk+0x38>
   806b2:	3820      	subs	r0, #32
   806b4:	f8d2 1108 	ldr.w	r1, [r2, #264]	; 0x108
   806b8:	fa03 f000 	lsl.w	r0, r3, r0
   806bc:	ea30 0301 	bics.w	r3, r0, r1
   806c0:	d004      	beq.n	806cc <pmc_enable_periph_clk+0x38>
   806c2:	f8c2 0100 	str.w	r0, [r2, #256]	; 0x100
   806c6:	e001      	b.n	806cc <pmc_enable_periph_clk+0x38>
   806c8:	2001      	movs	r0, #1
   806ca:	4770      	bx	lr
   806cc:	2000      	movs	r0, #0
   806ce:	4770      	bx	lr
   806d0:	400e0600 	.word	0x400e0600

000806d4 <tc_init>:
   806d4:	b510      	push	{r4, lr}
   806d6:	0189      	lsls	r1, r1, #6
   806d8:	2402      	movs	r4, #2
   806da:	1843      	adds	r3, r0, r1
   806dc:	5044      	str	r4, [r0, r1]
   806de:	f04f 31ff 	mov.w	r1, #4294967295
   806e2:	6299      	str	r1, [r3, #40]	; 0x28
   806e4:	6a19      	ldr	r1, [r3, #32]
   806e6:	605a      	str	r2, [r3, #4]
   806e8:	bd10      	pop	{r4, pc}

000806ea <tc_start>:
   806ea:	0189      	lsls	r1, r1, #6
   806ec:	2305      	movs	r3, #5
   806ee:	5043      	str	r3, [r0, r1]
   806f0:	4770      	bx	lr

000806f2 <tc_read_cv>:
   806f2:	eb00 1181 	add.w	r1, r0, r1, lsl #6
   806f6:	6908      	ldr	r0, [r1, #16]
   806f8:	4770      	bx	lr

000806fa <tc_write_ra>:
   806fa:	eb00 1181 	add.w	r1, r0, r1, lsl #6
   806fe:	614a      	str	r2, [r1, #20]
   80700:	4770      	bx	lr

00080702 <tc_write_rc>:
   80702:	eb00 1181 	add.w	r1, r0, r1, lsl #6
   80706:	61ca      	str	r2, [r1, #28]
   80708:	4770      	bx	lr

0008070a <tc_enable_interrupt>:
   8070a:	eb00 1181 	add.w	r1, r0, r1, lsl #6
   8070e:	624a      	str	r2, [r1, #36]	; 0x24
   80710:	4770      	bx	lr
	...

00080714 <twi_set_speed>:
   80714:	4b20      	ldr	r3, [pc, #128]	; (80798 <twi_set_speed+0x84>)
   80716:	b510      	push	{r4, lr}
   80718:	4299      	cmp	r1, r3
   8071a:	d83b      	bhi.n	80794 <twi_set_speed+0x80>
   8071c:	f5a3 537a 	sub.w	r3, r3, #16000	; 0x3e80
   80720:	4299      	cmp	r1, r3
   80722:	d920      	bls.n	80766 <twi_set_speed+0x52>
   80724:	4b1d      	ldr	r3, [pc, #116]	; (8079c <twi_set_speed+0x88>)
   80726:	4c1e      	ldr	r4, [pc, #120]	; (807a0 <twi_set_speed+0x8c>)
   80728:	440b      	add	r3, r1
   8072a:	009b      	lsls	r3, r3, #2
   8072c:	fbb2 f4f4 	udiv	r4, r2, r4
   80730:	fbb2 f2f3 	udiv	r2, r2, r3
   80734:	3c04      	subs	r4, #4
   80736:	3a04      	subs	r2, #4
   80738:	2300      	movs	r3, #0
   8073a:	2cff      	cmp	r4, #255	; 0xff
   8073c:	d908      	bls.n	80750 <twi_set_speed+0x3c>
   8073e:	2b07      	cmp	r3, #7
   80740:	d006      	beq.n	80750 <twi_set_speed+0x3c>
   80742:	3301      	adds	r3, #1
   80744:	0864      	lsrs	r4, r4, #1
   80746:	e7f8      	b.n	8073a <twi_set_speed+0x26>
   80748:	2b07      	cmp	r3, #7
   8074a:	d003      	beq.n	80754 <twi_set_speed+0x40>
   8074c:	3301      	adds	r3, #1
   8074e:	0852      	lsrs	r2, r2, #1
   80750:	2aff      	cmp	r2, #255	; 0xff
   80752:	d8f9      	bhi.n	80748 <twi_set_speed+0x34>
   80754:	0212      	lsls	r2, r2, #8
   80756:	041b      	lsls	r3, r3, #16
   80758:	b292      	uxth	r2, r2
   8075a:	f403 23e0 	and.w	r3, r3, #458752	; 0x70000
   8075e:	431a      	orrs	r2, r3
   80760:	b2e4      	uxtb	r4, r4
   80762:	4322      	orrs	r2, r4
   80764:	e013      	b.n	8078e <twi_set_speed+0x7a>
   80766:	0049      	lsls	r1, r1, #1
   80768:	fbb2 f2f1 	udiv	r2, r2, r1
   8076c:	2300      	movs	r3, #0
   8076e:	3a04      	subs	r2, #4
   80770:	2aff      	cmp	r2, #255	; 0xff
   80772:	d904      	bls.n	8077e <twi_set_speed+0x6a>
   80774:	2b07      	cmp	r3, #7
   80776:	d002      	beq.n	8077e <twi_set_speed+0x6a>
   80778:	3301      	adds	r3, #1
   8077a:	0852      	lsrs	r2, r2, #1
   8077c:	e7f8      	b.n	80770 <twi_set_speed+0x5c>
   8077e:	0211      	lsls	r1, r2, #8
   80780:	041b      	lsls	r3, r3, #16
   80782:	b289      	uxth	r1, r1
   80784:	f403 23e0 	and.w	r3, r3, #458752	; 0x70000
   80788:	430b      	orrs	r3, r1
   8078a:	b2d2      	uxtb	r2, r2
   8078c:	431a      	orrs	r2, r3
   8078e:	6102      	str	r2, [r0, #16]
   80790:	2000      	movs	r0, #0
   80792:	bd10      	pop	{r4, pc}
   80794:	2001      	movs	r0, #1
   80796:	bd10      	pop	{r4, pc}
   80798:	00061a80 	.word	0x00061a80
   8079c:	3ffd1200 	.word	0x3ffd1200
   807a0:	000bb800 	.word	0x000bb800

000807a4 <twi_master_init>:
   807a4:	b538      	push	{r3, r4, r5, lr}
   807a6:	f04f 33ff 	mov.w	r3, #4294967295
   807aa:	6283      	str	r3, [r0, #40]	; 0x28
   807ac:	6a03      	ldr	r3, [r0, #32]
   807ae:	2380      	movs	r3, #128	; 0x80
   807b0:	6003      	str	r3, [r0, #0]
   807b2:	6b03      	ldr	r3, [r0, #48]	; 0x30
   807b4:	2308      	movs	r3, #8
   807b6:	6003      	str	r3, [r0, #0]
   807b8:	2320      	movs	r3, #32
   807ba:	6003      	str	r3, [r0, #0]
   807bc:	2304      	movs	r3, #4
   807be:	6003      	str	r3, [r0, #0]
   807c0:	460d      	mov	r5, r1
   807c2:	680a      	ldr	r2, [r1, #0]
   807c4:	4b06      	ldr	r3, [pc, #24]	; (807e0 <twi_master_init+0x3c>)
   807c6:	6849      	ldr	r1, [r1, #4]
   807c8:	4604      	mov	r4, r0
   807ca:	4798      	blx	r3
   807cc:	1e43      	subs	r3, r0, #1
   807ce:	4258      	negs	r0, r3
   807d0:	4158      	adcs	r0, r3
   807d2:	7a6b      	ldrb	r3, [r5, #9]
   807d4:	2b01      	cmp	r3, #1
   807d6:	bf04      	itt	eq
   807d8:	2340      	moveq	r3, #64	; 0x40
   807da:	6023      	streq	r3, [r4, #0]
   807dc:	bd38      	pop	{r3, r4, r5, pc}
   807de:	bf00      	nop
   807e0:	00080715 	.word	0x00080715

000807e4 <twi_mk_addr>:
   807e4:	b159      	cbz	r1, 807fe <twi_mk_addr+0x1a>
   807e6:	2901      	cmp	r1, #1
   807e8:	7803      	ldrb	r3, [r0, #0]
   807ea:	dd0a      	ble.n	80802 <twi_mk_addr+0x1e>
   807ec:	7842      	ldrb	r2, [r0, #1]
   807ee:	2902      	cmp	r1, #2
   807f0:	ea42 2303 	orr.w	r3, r2, r3, lsl #8
   807f4:	d005      	beq.n	80802 <twi_mk_addr+0x1e>
   807f6:	7880      	ldrb	r0, [r0, #2]
   807f8:	ea40 2003 	orr.w	r0, r0, r3, lsl #8
   807fc:	4770      	bx	lr
   807fe:	4608      	mov	r0, r1
   80800:	4770      	bx	lr
   80802:	4618      	mov	r0, r3
   80804:	4770      	bx	lr
	...

00080808 <twi_master_read>:
   80808:	b5f8      	push	{r3, r4, r5, r6, r7, lr}
   8080a:	68cd      	ldr	r5, [r1, #12]
   8080c:	4604      	mov	r4, r0
   8080e:	4608      	mov	r0, r1
   80810:	2d00      	cmp	r5, #0
   80812:	d03e      	beq.n	80892 <twi_master_read+0x8a>
   80814:	2600      	movs	r6, #0
   80816:	688f      	ldr	r7, [r1, #8]
   80818:	6066      	str	r6, [r4, #4]
   8081a:	684b      	ldr	r3, [r1, #4]
   8081c:	021b      	lsls	r3, r3, #8
   8081e:	f403 7340 	and.w	r3, r3, #768	; 0x300
   80822:	f443 5280 	orr.w	r2, r3, #4096	; 0x1000
   80826:	7c0b      	ldrb	r3, [r1, #16]
   80828:	041b      	lsls	r3, r3, #16
   8082a:	f403 03fe 	and.w	r3, r3, #8323072	; 0x7f0000
   8082e:	4313      	orrs	r3, r2
   80830:	6063      	str	r3, [r4, #4]
   80832:	60e6      	str	r6, [r4, #12]
   80834:	6849      	ldr	r1, [r1, #4]
   80836:	4b1a      	ldr	r3, [pc, #104]	; (808a0 <twi_master_read+0x98>)
   80838:	4798      	blx	r3
   8083a:	2d01      	cmp	r5, #1
   8083c:	60e0      	str	r0, [r4, #12]
   8083e:	d106      	bne.n	8084e <twi_master_read+0x46>
   80840:	2303      	movs	r3, #3
   80842:	6023      	str	r3, [r4, #0]
   80844:	462b      	mov	r3, r5
   80846:	f643 2298 	movw	r2, #15000	; 0x3a98
   8084a:	2602      	movs	r6, #2
   8084c:	e013      	b.n	80876 <twi_master_read+0x6e>
   8084e:	2301      	movs	r3, #1
   80850:	6023      	str	r3, [r4, #0]
   80852:	4633      	mov	r3, r6
   80854:	e7f7      	b.n	80846 <twi_master_read+0x3e>
   80856:	b302      	cbz	r2, 8089a <twi_master_read+0x92>
   80858:	2d01      	cmp	r5, #1
   8085a:	d011      	beq.n	80880 <twi_master_read+0x78>
   8085c:	0789      	lsls	r1, r1, #30
   8085e:	bf43      	ittte	mi
   80860:	6b22      	ldrmi	r2, [r4, #48]	; 0x30
   80862:	f105 35ff 	addmi.w	r5, r5, #4294967295
   80866:	703a      	strbmi	r2, [r7, #0]
   80868:	f102 32ff 	addpl.w	r2, r2, #4294967295
   8086c:	bf44      	itt	mi
   8086e:	3701      	addmi	r7, #1
   80870:	f643 2298 	movwmi	r2, #15000	; 0x3a98
   80874:	b145      	cbz	r5, 80888 <twi_master_read+0x80>
   80876:	6a21      	ldr	r1, [r4, #32]
   80878:	f411 7080 	ands.w	r0, r1, #256	; 0x100
   8087c:	d0eb      	beq.n	80856 <twi_master_read+0x4e>
   8087e:	e00a      	b.n	80896 <twi_master_read+0x8e>
   80880:	b903      	cbnz	r3, 80884 <twi_master_read+0x7c>
   80882:	6026      	str	r6, [r4, #0]
   80884:	462b      	mov	r3, r5
   80886:	e7e9      	b.n	8085c <twi_master_read+0x54>
   80888:	6a23      	ldr	r3, [r4, #32]
   8088a:	07db      	lsls	r3, r3, #31
   8088c:	d5fc      	bpl.n	80888 <twi_master_read+0x80>
   8088e:	6a23      	ldr	r3, [r4, #32]
   80890:	bdf8      	pop	{r3, r4, r5, r6, r7, pc}
   80892:	2001      	movs	r0, #1
   80894:	bdf8      	pop	{r3, r4, r5, r6, r7, pc}
   80896:	2005      	movs	r0, #5
   80898:	bdf8      	pop	{r3, r4, r5, r6, r7, pc}
   8089a:	2009      	movs	r0, #9
   8089c:	bdf8      	pop	{r3, r4, r5, r6, r7, pc}
   8089e:	bf00      	nop
   808a0:	000807e5 	.word	0x000807e5

000808a4 <twi_master_write>:
   808a4:	b570      	push	{r4, r5, r6, lr}
   808a6:	68ce      	ldr	r6, [r1, #12]
   808a8:	4604      	mov	r4, r0
   808aa:	4608      	mov	r0, r1
   808ac:	b34e      	cbz	r6, 80902 <twi_master_write+0x5e>
   808ae:	688d      	ldr	r5, [r1, #8]
   808b0:	2100      	movs	r1, #0
   808b2:	6061      	str	r1, [r4, #4]
   808b4:	7c03      	ldrb	r3, [r0, #16]
   808b6:	442e      	add	r6, r5
   808b8:	041b      	lsls	r3, r3, #16
   808ba:	f403 02fe 	and.w	r2, r3, #8323072	; 0x7f0000
   808be:	6843      	ldr	r3, [r0, #4]
   808c0:	021b      	lsls	r3, r3, #8
   808c2:	f403 7340 	and.w	r3, r3, #768	; 0x300
   808c6:	4313      	orrs	r3, r2
   808c8:	6063      	str	r3, [r4, #4]
   808ca:	60e1      	str	r1, [r4, #12]
   808cc:	6841      	ldr	r1, [r0, #4]
   808ce:	4b0f      	ldr	r3, [pc, #60]	; (8090c <twi_master_write+0x68>)
   808d0:	4798      	blx	r3
   808d2:	60e0      	str	r0, [r4, #12]
   808d4:	42ae      	cmp	r6, r5
   808d6:	d008      	beq.n	808ea <twi_master_write+0x46>
   808d8:	6a23      	ldr	r3, [r4, #32]
   808da:	05d8      	lsls	r0, r3, #23
   808dc:	d413      	bmi.n	80906 <twi_master_write+0x62>
   808de:	0759      	lsls	r1, r3, #29
   808e0:	bf44      	itt	mi
   808e2:	f815 3b01 	ldrbmi.w	r3, [r5], #1
   808e6:	6363      	strmi	r3, [r4, #52]	; 0x34
   808e8:	e7f4      	b.n	808d4 <twi_master_write+0x30>
   808ea:	6a23      	ldr	r3, [r4, #32]
   808ec:	f413 7080 	ands.w	r0, r3, #256	; 0x100
   808f0:	d109      	bne.n	80906 <twi_master_write+0x62>
   808f2:	075a      	lsls	r2, r3, #29
   808f4:	d5f9      	bpl.n	808ea <twi_master_write+0x46>
   808f6:	2302      	movs	r3, #2
   808f8:	6023      	str	r3, [r4, #0]
   808fa:	6a23      	ldr	r3, [r4, #32]
   808fc:	07db      	lsls	r3, r3, #31
   808fe:	d5fc      	bpl.n	808fa <twi_master_write+0x56>
   80900:	bd70      	pop	{r4, r5, r6, pc}
   80902:	2001      	movs	r0, #1
   80904:	bd70      	pop	{r4, r5, r6, pc}
   80906:	2005      	movs	r0, #5
   80908:	bd70      	pop	{r4, r5, r6, pc}
   8090a:	bf00      	nop
   8090c:	000807e5 	.word	0x000807e5

00080910 <Dummy_Handler>:
   80910:	e7fe      	b.n	80910 <Dummy_Handler>
	...

00080914 <Reset_Handler>:
   80914:	b508      	push	{r3, lr}
   80916:	4a16      	ldr	r2, [pc, #88]	; (80970 <Reset_Handler+0x5c>)
   80918:	4b16      	ldr	r3, [pc, #88]	; (80974 <Reset_Handler+0x60>)
   8091a:	429a      	cmp	r2, r3
   8091c:	d002      	beq.n	80924 <Reset_Handler+0x10>
   8091e:	3a04      	subs	r2, #4
   80920:	4915      	ldr	r1, [pc, #84]	; (80978 <Reset_Handler+0x64>)
   80922:	e003      	b.n	8092c <Reset_Handler+0x18>
   80924:	4b15      	ldr	r3, [pc, #84]	; (8097c <Reset_Handler+0x68>)
   80926:	4a16      	ldr	r2, [pc, #88]	; (80980 <Reset_Handler+0x6c>)
   80928:	2100      	movs	r1, #0
   8092a:	e006      	b.n	8093a <Reset_Handler+0x26>
   8092c:	428b      	cmp	r3, r1
   8092e:	d2f9      	bcs.n	80924 <Reset_Handler+0x10>
   80930:	f852 0f04 	ldr.w	r0, [r2, #4]!
   80934:	f843 0b04 	str.w	r0, [r3], #4
   80938:	e7f8      	b.n	8092c <Reset_Handler+0x18>
   8093a:	4293      	cmp	r3, r2
   8093c:	d202      	bcs.n	80944 <Reset_Handler+0x30>
   8093e:	f843 1b04 	str.w	r1, [r3], #4
   80942:	e7fa      	b.n	8093a <Reset_Handler+0x26>
   80944:	4b0f      	ldr	r3, [pc, #60]	; (80984 <Reset_Handler+0x70>)
   80946:	4a10      	ldr	r2, [pc, #64]	; (80988 <Reset_Handler+0x74>)
   80948:	f023 4160 	bic.w	r1, r3, #3758096384	; 0xe0000000
   8094c:	f021 017f 	bic.w	r1, r1, #127	; 0x7f
   80950:	f103 4360 	add.w	r3, r3, #3758096384	; 0xe0000000
   80954:	f5b3 1f80 	cmp.w	r3, #1048576	; 0x100000
   80958:	6091      	str	r1, [r2, #8]
   8095a:	bf3e      	ittt	cc
   8095c:	6893      	ldrcc	r3, [r2, #8]
   8095e:	f043 5300 	orrcc.w	r3, r3, #536870912	; 0x20000000
   80962:	6093      	strcc	r3, [r2, #8]
   80964:	4b09      	ldr	r3, [pc, #36]	; (8098c <Reset_Handler+0x78>)
   80966:	4798      	blx	r3
   80968:	4b09      	ldr	r3, [pc, #36]	; (80990 <Reset_Handler+0x7c>)
   8096a:	4798      	blx	r3
   8096c:	e7fe      	b.n	8096c <Reset_Handler+0x58>
   8096e:	bf00      	nop
   80970:	00083524 	.word	0x00083524
   80974:	20070000 	.word	0x20070000
   80978:	2007092c 	.word	0x2007092c
   8097c:	2007092c 	.word	0x2007092c
   80980:	20072160 	.word	0x20072160
   80984:	00080000 	.word	0x00080000
   80988:	e000ed00 	.word	0xe000ed00
   8098c:	00082aa1 	.word	0x00082aa1
   80990:	000820dd 	.word	0x000820dd

00080994 <SystemCoreClockUpdate>:
   80994:	b510      	push	{r4, lr}
   80996:	4a2c      	ldr	r2, [pc, #176]	; (80a48 <SystemCoreClockUpdate+0xb4>)
   80998:	6b13      	ldr	r3, [r2, #48]	; 0x30
   8099a:	f003 0303 	and.w	r3, r3, #3
   8099e:	2b01      	cmp	r3, #1
   809a0:	4b2a      	ldr	r3, [pc, #168]	; (80a4c <SystemCoreClockUpdate+0xb8>)
   809a2:	d00d      	beq.n	809c0 <SystemCoreClockUpdate+0x2c>
   809a4:	d303      	bcc.n	809ae <SystemCoreClockUpdate+0x1a>
   809a6:	6a11      	ldr	r1, [r2, #32]
   809a8:	01cc      	lsls	r4, r1, #7
   809aa:	d51a      	bpl.n	809e2 <SystemCoreClockUpdate+0x4e>
   809ac:	e025      	b.n	809fa <SystemCoreClockUpdate+0x66>
   809ae:	4928      	ldr	r1, [pc, #160]	; (80a50 <SystemCoreClockUpdate+0xbc>)
   809b0:	6949      	ldr	r1, [r1, #20]
   809b2:	0608      	lsls	r0, r1, #24
   809b4:	bf4c      	ite	mi
   809b6:	f44f 4100 	movmi.w	r1, #32768	; 0x8000
   809ba:	f44f 41fa 	movpl.w	r1, #32000	; 0x7d00
   809be:	e030      	b.n	80a22 <SystemCoreClockUpdate+0x8e>
   809c0:	6a11      	ldr	r1, [r2, #32]
   809c2:	01c9      	lsls	r1, r1, #7
   809c4:	d40b      	bmi.n	809de <SystemCoreClockUpdate+0x4a>
   809c6:	4923      	ldr	r1, [pc, #140]	; (80a54 <SystemCoreClockUpdate+0xc0>)
   809c8:	6019      	str	r1, [r3, #0]
   809ca:	6a11      	ldr	r1, [r2, #32]
   809cc:	f001 0170 	and.w	r1, r1, #112	; 0x70
   809d0:	2910      	cmp	r1, #16
   809d2:	d002      	beq.n	809da <SystemCoreClockUpdate+0x46>
   809d4:	2920      	cmp	r1, #32
   809d6:	d002      	beq.n	809de <SystemCoreClockUpdate+0x4a>
   809d8:	e024      	b.n	80a24 <SystemCoreClockUpdate+0x90>
   809da:	491f      	ldr	r1, [pc, #124]	; (80a58 <SystemCoreClockUpdate+0xc4>)
   809dc:	e021      	b.n	80a22 <SystemCoreClockUpdate+0x8e>
   809de:	491f      	ldr	r1, [pc, #124]	; (80a5c <SystemCoreClockUpdate+0xc8>)
   809e0:	e01f      	b.n	80a22 <SystemCoreClockUpdate+0x8e>
   809e2:	491c      	ldr	r1, [pc, #112]	; (80a54 <SystemCoreClockUpdate+0xc0>)
   809e4:	6019      	str	r1, [r3, #0]
   809e6:	6a11      	ldr	r1, [r2, #32]
   809e8:	f001 0170 	and.w	r1, r1, #112	; 0x70
   809ec:	2910      	cmp	r1, #16
   809ee:	d002      	beq.n	809f6 <SystemCoreClockUpdate+0x62>
   809f0:	2920      	cmp	r1, #32
   809f2:	d002      	beq.n	809fa <SystemCoreClockUpdate+0x66>
   809f4:	e003      	b.n	809fe <SystemCoreClockUpdate+0x6a>
   809f6:	4918      	ldr	r1, [pc, #96]	; (80a58 <SystemCoreClockUpdate+0xc4>)
   809f8:	e000      	b.n	809fc <SystemCoreClockUpdate+0x68>
   809fa:	4918      	ldr	r1, [pc, #96]	; (80a5c <SystemCoreClockUpdate+0xc8>)
   809fc:	6019      	str	r1, [r3, #0]
   809fe:	6b11      	ldr	r1, [r2, #48]	; 0x30
   80a00:	4811      	ldr	r0, [pc, #68]	; (80a48 <SystemCoreClockUpdate+0xb4>)
   80a02:	f001 0103 	and.w	r1, r1, #3
   80a06:	2902      	cmp	r1, #2
   80a08:	bf01      	itttt	eq
   80a0a:	6a81      	ldreq	r1, [r0, #40]	; 0x28
   80a0c:	6a80      	ldreq	r0, [r0, #40]	; 0x28
   80a0e:	f3c1 440a 	ubfxeq	r4, r1, #16, #11
   80a12:	6819      	ldreq	r1, [r3, #0]
   80a14:	bf03      	ittte	eq
   80a16:	b2c0      	uxtbeq	r0, r0
   80a18:	fb04 1101 	mlaeq	r1, r4, r1, r1
   80a1c:	fbb1 f1f0 	udiveq	r1, r1, r0
   80a20:	490f      	ldrne	r1, [pc, #60]	; (80a60 <SystemCoreClockUpdate+0xcc>)
   80a22:	6019      	str	r1, [r3, #0]
   80a24:	6b12      	ldr	r2, [r2, #48]	; 0x30
   80a26:	f002 0270 	and.w	r2, r2, #112	; 0x70
   80a2a:	2a70      	cmp	r2, #112	; 0x70
   80a2c:	bf03      	ittte	eq
   80a2e:	681a      	ldreq	r2, [r3, #0]
   80a30:	2103      	moveq	r1, #3
   80a32:	fbb2 f2f1 	udiveq	r2, r2, r1
   80a36:	4a04      	ldrne	r2, [pc, #16]	; (80a48 <SystemCoreClockUpdate+0xb4>)
   80a38:	bf1f      	itttt	ne
   80a3a:	6b12      	ldrne	r2, [r2, #48]	; 0x30
   80a3c:	f3c2 1102 	ubfxne	r1, r2, #4, #3
   80a40:	681a      	ldrne	r2, [r3, #0]
   80a42:	40ca      	lsrne	r2, r1
   80a44:	601a      	str	r2, [r3, #0]
   80a46:	bd10      	pop	{r4, pc}
   80a48:	400e0600 	.word	0x400e0600
   80a4c:	200700ec 	.word	0x200700ec
   80a50:	400e1a10 	.word	0x400e1a10
   80a54:	003d0900 	.word	0x003d0900
   80a58:	007a1200 	.word	0x007a1200
   80a5c:	00b71b00 	.word	0x00b71b00
   80a60:	0e4e1c00 	.word	0x0e4e1c00

00080a64 <_sbrk>:
   80a64:	4b07      	ldr	r3, [pc, #28]	; (80a84 <_sbrk+0x20>)
   80a66:	681a      	ldr	r2, [r3, #0]
   80a68:	b90a      	cbnz	r2, 80a6e <_sbrk+0xa>
   80a6a:	4a07      	ldr	r2, [pc, #28]	; (80a88 <_sbrk+0x24>)
   80a6c:	601a      	str	r2, [r3, #0]
   80a6e:	681b      	ldr	r3, [r3, #0]
   80a70:	4a06      	ldr	r2, [pc, #24]	; (80a8c <_sbrk+0x28>)
   80a72:	4418      	add	r0, r3
   80a74:	4282      	cmp	r2, r0
   80a76:	bfa3      	ittte	ge
   80a78:	4a02      	ldrge	r2, [pc, #8]	; (80a84 <_sbrk+0x20>)
   80a7a:	6010      	strge	r0, [r2, #0]
   80a7c:	4618      	movge	r0, r3
   80a7e:	f04f 30ff 	movlt.w	r0, #4294967295
   80a82:	4770      	bx	lr
   80a84:	20070948 	.word	0x20070948
   80a88:	20074160 	.word	0x20074160
   80a8c:	20087ffc 	.word	0x20087ffc

00080a90 <adc_initialize>:
   80a90:	b5f8      	push	{r3, r4, r5, r6, r7, lr}
   80a92:	2025      	movs	r0, #37	; 0x25
   80a94:	4b18      	ldr	r3, [pc, #96]	; (80af8 <adc_initialize+0x68>)
   80a96:	4798      	blx	r3
   80a98:	4c18      	ldr	r4, [pc, #96]	; (80afc <adc_initialize+0x6c>)
   80a9a:	f44f 2380 	mov.w	r3, #262144	; 0x40000
   80a9e:	4a18      	ldr	r2, [pc, #96]	; (80b00 <adc_initialize+0x70>)
   80aa0:	4918      	ldr	r1, [pc, #96]	; (80b04 <adc_initialize+0x74>)
   80aa2:	4819      	ldr	r0, [pc, #100]	; (80b08 <adc_initialize+0x78>)
   80aa4:	47a0      	blx	r4
   80aa6:	2301      	movs	r3, #1
   80aa8:	f44f 1240 	mov.w	r2, #3145728	; 0x300000
   80aac:	4619      	mov	r1, r3
   80aae:	4816      	ldr	r0, [pc, #88]	; (80b08 <adc_initialize+0x78>)
   80ab0:	4c16      	ldr	r4, [pc, #88]	; (80b0c <adc_initialize+0x7c>)
   80ab2:	47a0      	blx	r4
   80ab4:	2110      	movs	r1, #16
   80ab6:	4814      	ldr	r0, [pc, #80]	; (80b08 <adc_initialize+0x78>)
   80ab8:	4b15      	ldr	r3, [pc, #84]	; (80b10 <adc_initialize+0x80>)
   80aba:	4798      	blx	r3
   80abc:	2200      	movs	r2, #0
   80abe:	4611      	mov	r1, r2
   80ac0:	4811      	ldr	r0, [pc, #68]	; (80b08 <adc_initialize+0x78>)
   80ac2:	4b14      	ldr	r3, [pc, #80]	; (80b14 <adc_initialize+0x84>)
   80ac4:	4798      	blx	r3
   80ac6:	4b14      	ldr	r3, [pc, #80]	; (80b18 <adc_initialize+0x88>)
   80ac8:	480f      	ldr	r0, [pc, #60]	; (80b08 <adc_initialize+0x78>)
   80aca:	4798      	blx	r3
   80acc:	2300      	movs	r3, #0
   80ace:	461a      	mov	r2, r3
   80ad0:	4f12      	ldr	r7, [pc, #72]	; (80b1c <adc_initialize+0x8c>)
   80ad2:	4c13      	ldr	r4, [pc, #76]	; (80b20 <adc_initialize+0x90>)
   80ad4:	4d13      	ldr	r5, [pc, #76]	; (80b24 <adc_initialize+0x94>)
   80ad6:	2606      	movs	r6, #6
   80ad8:	fb06 f003 	mul.w	r0, r6, r3
   80adc:	2b06      	cmp	r3, #6
   80ade:	eb04 0100 	add.w	r1, r4, r0
   80ae2:	bf98      	it	ls
   80ae4:	54fa      	strbls	r2, [r7, r3]
   80ae6:	5222      	strh	r2, [r4, r0]
   80ae8:	804a      	strh	r2, [r1, #2]
   80aea:	808a      	strh	r2, [r1, #4]
   80aec:	54ea      	strb	r2, [r5, r3]
   80aee:	3301      	adds	r3, #1
   80af0:	2b0f      	cmp	r3, #15
   80af2:	d1f1      	bne.n	80ad8 <adc_initialize+0x48>
   80af4:	bdf8      	pop	{r3, r4, r5, r6, r7, pc}
   80af6:	bf00      	nop
   80af8:	00080695 	.word	0x00080695
   80afc:	00080259 	.word	0x00080259
   80b00:	000f4240 	.word	0x000f4240
   80b04:	0a037a00 	.word	0x0a037a00
   80b08:	400c0000 	.word	0x400c0000
   80b0c:	000802a9 	.word	0x000802a9
   80b10:	0008028b 	.word	0x0008028b
   80b14:	0008029b 	.word	0x0008029b
   80b18:	000802d3 	.word	0x000802d3
   80b1c:	20071c92 	.word	0x20071c92
   80b20:	200717ae 	.word	0x200717ae
   80b24:	20071811 	.word	0x20071811

00080b28 <adc_turn_on_multiple_channels>:
   80b28:	e92d 47f0 	stmdb	sp!, {r4, r5, r6, r7, r8, r9, sl, lr}
   80b2c:	460f      	mov	r7, r1
   80b2e:	4616      	mov	r6, r2
   80b30:	f8df 9044 	ldr.w	r9, [pc, #68]	; 80b78 <adc_turn_on_multiple_channels+0x50>
   80b34:	f8df 8044 	ldr.w	r8, [pc, #68]	; 80b7c <adc_turn_on_multiple_channels+0x54>
   80b38:	1e45      	subs	r5, r0, #1
   80b3a:	2400      	movs	r4, #0
   80b3c:	f815 1f01 	ldrb.w	r1, [r5, #1]!
   80b40:	480a      	ldr	r0, [pc, #40]	; (80b6c <adc_turn_on_multiple_channels+0x44>)
   80b42:	47c8      	blx	r9
   80b44:	782b      	ldrb	r3, [r5, #0]
   80b46:	f808 3004 	strb.w	r3, [r8, r4]
   80b4a:	3401      	adds	r4, #1
   80b4c:	2c07      	cmp	r4, #7
   80b4e:	d1f5      	bne.n	80b3c <adc_turn_on_multiple_channels+0x14>
   80b50:	b157      	cbz	r7, 80b68 <adc_turn_on_multiple_channels+0x40>
   80b52:	f04f 7180 	mov.w	r1, #16777216	; 0x1000000
   80b56:	4805      	ldr	r0, [pc, #20]	; (80b6c <adc_turn_on_multiple_channels+0x44>)
   80b58:	4b05      	ldr	r3, [pc, #20]	; (80b70 <adc_turn_on_multiple_channels+0x48>)
   80b5a:	4798      	blx	r3
   80b5c:	4631      	mov	r1, r6
   80b5e:	e8bd 47f0 	ldmia.w	sp!, {r4, r5, r6, r7, r8, r9, sl, lr}
   80b62:	2025      	movs	r0, #37	; 0x25
   80b64:	4b03      	ldr	r3, [pc, #12]	; (80b74 <adc_turn_on_multiple_channels+0x4c>)
   80b66:	4718      	bx	r3
   80b68:	e8bd 87f0 	ldmia.w	sp!, {r4, r5, r6, r7, r8, r9, sl, pc}
   80b6c:	400c0000 	.word	0x400c0000
   80b70:	000802dd 	.word	0x000802dd
   80b74:	00080fb5 	.word	0x00080fb5
   80b78:	000802c9 	.word	0x000802c9
   80b7c:	20071c92 	.word	0x20071c92

00080b80 <ADC_Handler>:
   80b80:	b510      	push	{r4, lr}
   80b82:	4b0e      	ldr	r3, [pc, #56]	; (80bbc <ADC_Handler+0x3c>)
   80b84:	480e      	ldr	r0, [pc, #56]	; (80bc0 <ADC_Handler+0x40>)
   80b86:	6a1b      	ldr	r3, [r3, #32]
   80b88:	b29b      	uxth	r3, r3
   80b8a:	0b19      	lsrs	r1, r3, #12
   80b8c:	5c42      	ldrb	r2, [r0, r1]
   80b8e:	eb01 0441 	add.w	r4, r1, r1, lsl #1
   80b92:	4422      	add	r2, r4
   80b94:	4c0b      	ldr	r4, [pc, #44]	; (80bc4 <ADC_Handler+0x44>)
   80b96:	f3c3 030b 	ubfx	r3, r3, #0, #12
   80b9a:	f824 3012 	strh.w	r3, [r4, r2, lsl #1]
   80b9e:	5c43      	ldrb	r3, [r0, r1]
   80ba0:	2203      	movs	r2, #3
   80ba2:	3301      	adds	r3, #1
   80ba4:	fb93 f2f2 	sdiv	r2, r3, r2
   80ba8:	eb02 0242 	add.w	r2, r2, r2, lsl #1
   80bac:	1a9b      	subs	r3, r3, r2
   80bae:	b2db      	uxtb	r3, r3
   80bb0:	5443      	strb	r3, [r0, r1]
   80bb2:	4b05      	ldr	r3, [pc, #20]	; (80bc8 <ADC_Handler+0x48>)
   80bb4:	2201      	movs	r2, #1
   80bb6:	701a      	strb	r2, [r3, #0]
   80bb8:	bd10      	pop	{r4, pc}
   80bba:	bf00      	nop
   80bbc:	400c0000 	.word	0x400c0000
   80bc0:	20071811 	.word	0x20071811
   80bc4:	200717ae 	.word	0x200717ae
   80bc8:	20071c91 	.word	0x20071c91

00080bcc <decoders_crank_primary>:
   80bcc:	e92d 43f8 	stmdb	sp!, {r3, r4, r5, r6, r7, r8, r9, lr}
   80bd0:	4d3d      	ldr	r5, [pc, #244]	; (80cc8 <decoders_crank_primary+0xfc>)
   80bd2:	782b      	ldrb	r3, [r5, #0]
   80bd4:	2b00      	cmp	r3, #0
   80bd6:	d075      	beq.n	80cc4 <decoders_crank_primary+0xf8>
   80bd8:	4c3c      	ldr	r4, [pc, #240]	; (80ccc <decoders_crank_primary+0x100>)
   80bda:	4a3d      	ldr	r2, [pc, #244]	; (80cd0 <decoders_crank_primary+0x104>)
   80bdc:	6823      	ldr	r3, [r4, #0]
   80bde:	6812      	ldr	r2, [r2, #0]
   80be0:	085b      	lsrs	r3, r3, #1
   80be2:	eb03 0343 	add.w	r3, r3, r3, lsl #1
   80be6:	4293      	cmp	r3, r2
   80be8:	4b3a      	ldr	r3, [pc, #232]	; (80cd4 <decoders_crank_primary+0x108>)
   80bea:	d244      	bcs.n	80c76 <decoders_crank_primary+0xaa>
   80bec:	4a3a      	ldr	r2, [pc, #232]	; (80cd8 <decoders_crank_primary+0x10c>)
   80bee:	2700      	movs	r7, #0
   80bf0:	801f      	strh	r7, [r3, #0]
   80bf2:	7813      	ldrb	r3, [r2, #0]
   80bf4:	4e39      	ldr	r6, [pc, #228]	; (80cdc <decoders_crank_primary+0x110>)
   80bf6:	f083 0301 	eor.w	r3, r3, #1
   80bfa:	7013      	strb	r3, [r2, #0]
   80bfc:	4b38      	ldr	r3, [pc, #224]	; (80ce0 <decoders_crank_primary+0x114>)
   80bfe:	4798      	blx	r3
   80c00:	6833      	ldr	r3, [r6, #0]
   80c02:	f44f 72b4 	mov.w	r2, #360	; 0x168
   80c06:	fbb3 f3f2 	udiv	r3, r3, r2
   80c0a:	fbb0 f0f3 	udiv	r0, r0, r3
   80c0e:	f8df 80ec 	ldr.w	r8, [pc, #236]	; 80cfc <decoders_crank_primary+0x130>
   80c12:	f1c0 003c 	rsb	r0, r0, #60	; 0x3c
   80c16:	b280      	uxth	r0, r0
   80c18:	f8a8 0000 	strh.w	r0, [r8]
   80c1c:	f8b8 0000 	ldrh.w	r0, [r8]
   80c20:	f8df 90dc 	ldr.w	r9, [pc, #220]	; 80d00 <decoders_crank_primary+0x134>
   80c24:	b2c0      	uxtb	r0, r0
   80c26:	47c8      	blx	r9
   80c28:	4b2e      	ldr	r3, [pc, #184]	; (80ce4 <decoders_crank_primary+0x118>)
   80c2a:	f1c0 000b 	rsb	r0, r0, #11
   80c2e:	b2c0      	uxtb	r0, r0
   80c30:	7018      	strb	r0, [r3, #0]
   80c32:	f8b8 0000 	ldrh.w	r0, [r8]
   80c36:	f8df 80d0 	ldr.w	r8, [pc, #208]	; 80d08 <decoders_crank_primary+0x13c>
   80c3a:	b2c0      	uxtb	r0, r0
   80c3c:	47c0      	blx	r8
   80c3e:	6823      	ldr	r3, [r4, #0]
   80c40:	eb00 0093 	add.w	r0, r0, r3, lsr #2
   80c44:	4b28      	ldr	r3, [pc, #160]	; (80ce8 <decoders_crank_primary+0x11c>)
   80c46:	6018      	str	r0, [r3, #0]
   80c48:	203c      	movs	r0, #60	; 0x3c
   80c4a:	47c8      	blx	r9
   80c4c:	4b27      	ldr	r3, [pc, #156]	; (80cec <decoders_crank_primary+0x120>)
   80c4e:	f1c0 000b 	rsb	r0, r0, #11
   80c52:	b2c0      	uxtb	r0, r0
   80c54:	7018      	strb	r0, [r3, #0]
   80c56:	203c      	movs	r0, #60	; 0x3c
   80c58:	47c0      	blx	r8
   80c5a:	6823      	ldr	r3, [r4, #0]
   80c5c:	eb00 0093 	add.w	r0, r0, r3, lsr #2
   80c60:	4b23      	ldr	r3, [pc, #140]	; (80cf0 <decoders_crank_primary+0x124>)
   80c62:	6018      	str	r0, [r3, #0]
   80c64:	6832      	ldr	r2, [r6, #0]
   80c66:	4b23      	ldr	r3, [pc, #140]	; (80cf4 <decoders_crank_primary+0x128>)
   80c68:	fbb3 f3f2 	udiv	r3, r3, r2
   80c6c:	4a22      	ldr	r2, [pc, #136]	; (80cf8 <decoders_crank_primary+0x12c>)
   80c6e:	b29b      	uxth	r3, r3
   80c70:	81d3      	strh	r3, [r2, #14]
   80c72:	6037      	str	r7, [r6, #0]
   80c74:	e024      	b.n	80cc0 <decoders_crank_primary+0xf4>
   80c76:	881b      	ldrh	r3, [r3, #0]
   80c78:	b29b      	uxth	r3, r3
   80c7a:	2b0c      	cmp	r3, #12
   80c7c:	d120      	bne.n	80cc0 <decoders_crank_primary+0xf4>
   80c7e:	4e1f      	ldr	r6, [pc, #124]	; (80cfc <decoders_crank_primary+0x130>)
   80c80:	4f1f      	ldr	r7, [pc, #124]	; (80d00 <decoders_crank_primary+0x134>)
   80c82:	8830      	ldrh	r0, [r6, #0]
   80c84:	b2c0      	uxtb	r0, r0
   80c86:	47b8      	blx	r7
   80c88:	4b1e      	ldr	r3, [pc, #120]	; (80d04 <decoders_crank_primary+0x138>)
   80c8a:	f1c0 0017 	rsb	r0, r0, #23
   80c8e:	b2c0      	uxtb	r0, r0
   80c90:	7018      	strb	r0, [r3, #0]
   80c92:	8830      	ldrh	r0, [r6, #0]
   80c94:	4e1c      	ldr	r6, [pc, #112]	; (80d08 <decoders_crank_primary+0x13c>)
   80c96:	b2c0      	uxtb	r0, r0
   80c98:	47b0      	blx	r6
   80c9a:	6823      	ldr	r3, [r4, #0]
   80c9c:	eb00 0093 	add.w	r0, r0, r3, lsr #2
   80ca0:	4b1a      	ldr	r3, [pc, #104]	; (80d0c <decoders_crank_primary+0x140>)
   80ca2:	6018      	str	r0, [r3, #0]
   80ca4:	203c      	movs	r0, #60	; 0x3c
   80ca6:	47b8      	blx	r7
   80ca8:	4b19      	ldr	r3, [pc, #100]	; (80d10 <decoders_crank_primary+0x144>)
   80caa:	f1c0 0017 	rsb	r0, r0, #23
   80cae:	b2c0      	uxtb	r0, r0
   80cb0:	7018      	strb	r0, [r3, #0]
   80cb2:	203c      	movs	r0, #60	; 0x3c
   80cb4:	47b0      	blx	r6
   80cb6:	6823      	ldr	r3, [r4, #0]
   80cb8:	eb00 0093 	add.w	r0, r0, r3, lsr #2
   80cbc:	4b15      	ldr	r3, [pc, #84]	; (80d14 <decoders_crank_primary+0x148>)
   80cbe:	6018      	str	r0, [r3, #0]
   80cc0:	2300      	movs	r3, #0
   80cc2:	702b      	strb	r3, [r5, #0]
   80cc4:	e8bd 83f8 	ldmia.w	sp!, {r3, r4, r5, r6, r7, r8, r9, pc}
   80cc8:	2007214c 	.word	0x2007214c
   80ccc:	20072140 	.word	0x20072140
   80cd0:	200709e0 	.word	0x200709e0
   80cd4:	2007209a 	.word	0x2007209a
   80cd8:	20071c90 	.word	0x20071c90
   80cdc:	20070994 	.word	0x20070994
   80ce0:	00080f69 	.word	0x00080f69
   80ce4:	2007213c 	.word	0x2007213c
   80ce8:	20070984 	.word	0x20070984
   80cec:	20071c7e 	.word	0x20071c7e
   80cf0:	20072158 	.word	0x20072158
   80cf4:	09634260 	.word	0x09634260
   80cf8:	2007137a 	.word	0x2007137a
   80cfc:	20072154 	.word	0x20072154
   80d00:	00080ee9 	.word	0x00080ee9
   80d04:	200713a8 	.word	0x200713a8
   80d08:	00080f05 	.word	0x00080f05
   80d0c:	20071c38 	.word	0x20071c38
   80d10:	20071810 	.word	0x20071810
   80d14:	2007180c 	.word	0x2007180c

00080d18 <eeprom_init>:
   80d18:	b51f      	push	{r0, r1, r2, r3, r4, lr}
   80d1a:	4b10      	ldr	r3, [pc, #64]	; (80d5c <eeprom_init+0x44>)
   80d1c:	2017      	movs	r0, #23
   80d1e:	4798      	blx	r3
   80d20:	4b0f      	ldr	r3, [pc, #60]	; (80d60 <eeprom_init+0x48>)
   80d22:	f44f 5200 	mov.w	r2, #8192	; 0x2000
   80d26:	f44f 5180 	mov.w	r1, #4096	; 0x1000
   80d2a:	6459      	str	r1, [r3, #68]	; 0x44
   80d2c:	645a      	str	r2, [r3, #68]	; 0x44
   80d2e:	6059      	str	r1, [r3, #4]
   80d30:	605a      	str	r2, [r3, #4]
   80d32:	6f18      	ldr	r0, [r3, #112]	; 0x70
   80d34:	f420 5080 	bic.w	r0, r0, #4096	; 0x1000
   80d38:	6718      	str	r0, [r3, #112]	; 0x70
   80d3a:	6f18      	ldr	r0, [r3, #112]	; 0x70
   80d3c:	f420 5000 	bic.w	r0, r0, #8192	; 0x2000
   80d40:	6718      	str	r0, [r3, #112]	; 0x70
   80d42:	6659      	str	r1, [r3, #100]	; 0x64
   80d44:	665a      	str	r2, [r3, #100]	; 0x64
   80d46:	4b07      	ldr	r3, [pc, #28]	; (80d64 <eeprom_init+0x4c>)
   80d48:	a901      	add	r1, sp, #4
   80d4a:	9301      	str	r3, [sp, #4]
   80d4c:	4b06      	ldr	r3, [pc, #24]	; (80d68 <eeprom_init+0x50>)
   80d4e:	4807      	ldr	r0, [pc, #28]	; (80d6c <eeprom_init+0x54>)
   80d50:	9302      	str	r3, [sp, #8]
   80d52:	4b07      	ldr	r3, [pc, #28]	; (80d70 <eeprom_init+0x58>)
   80d54:	4798      	blx	r3
   80d56:	b005      	add	sp, #20
   80d58:	f85d fb04 	ldr.w	pc, [sp], #4
   80d5c:	00080695 	.word	0x00080695
   80d60:	400e1000 	.word	0x400e1000
   80d64:	0501bd00 	.word	0x0501bd00
   80d68:	00061a80 	.word	0x00061a80
   80d6c:	40090000 	.word	0x40090000
   80d70:	000807a5 	.word	0x000807a5

00080d74 <eeprom_read_byte>:
   80d74:	b5f7      	push	{r0, r1, r2, r4, r5, r6, r7, lr}
   80d76:	4606      	mov	r6, r0
   80d78:	ad02      	add	r5, sp, #8
   80d7a:	2300      	movs	r3, #0
   80d7c:	4f0e      	ldr	r7, [pc, #56]	; (80db8 <eeprom_read_byte+0x44>)
   80d7e:	f805 3d01 	strb.w	r3, [r5, #-1]!
   80d82:	240a      	movs	r4, #10
   80d84:	4629      	mov	r1, r5
   80d86:	4630      	mov	r0, r6
   80d88:	47b8      	blx	r7
   80d8a:	07c3      	lsls	r3, r0, #31
   80d8c:	d402      	bmi.n	80d94 <eeprom_read_byte+0x20>
   80d8e:	f89d 0007 	ldrb.w	r0, [sp, #7]
   80d92:	e00f      	b.n	80db4 <eeprom_read_byte+0x40>
   80d94:	3c01      	subs	r4, #1
   80d96:	f014 04ff 	ands.w	r4, r4, #255	; 0xff
   80d9a:	d1f3      	bne.n	80d84 <eeprom_read_byte+0x10>
   80d9c:	4d07      	ldr	r5, [pc, #28]	; (80dbc <eeprom_read_byte+0x48>)
   80d9e:	2401      	movs	r4, #1
   80da0:	4807      	ldr	r0, [pc, #28]	; (80dc0 <eeprom_read_byte+0x4c>)
   80da2:	4b08      	ldr	r3, [pc, #32]	; (80dc4 <eeprom_read_byte+0x50>)
   80da4:	77ec      	strb	r4, [r5, #31]
   80da6:	4798      	blx	r3
   80da8:	7fe8      	ldrb	r0, [r5, #31]
   80daa:	4b07      	ldr	r3, [pc, #28]	; (80dc8 <eeprom_read_byte+0x54>)
   80dac:	4798      	blx	r3
   80dae:	4b07      	ldr	r3, [pc, #28]	; (80dcc <eeprom_read_byte+0x58>)
   80db0:	4798      	blx	r3
   80db2:	4620      	mov	r0, r4
   80db4:	b003      	add	sp, #12
   80db6:	bdf0      	pop	{r4, r5, r6, r7, pc}
   80db8:	000801e9 	.word	0x000801e9
   80dbc:	2007137a 	.word	0x2007137a
   80dc0:	000833dc 	.word	0x000833dc
   80dc4:	00081fd5 	.word	0x00081fd5
   80dc8:	00081f85 	.word	0x00081f85
   80dcc:	00081fc9 	.word	0x00081fc9

00080dd0 <cylinder_init>:
   80dd0:	2300      	movs	r3, #0
   80dd2:	461a      	mov	r2, r3
   80dd4:	b510      	push	{r4, lr}
   80dd6:	4c05      	ldr	r4, [pc, #20]	; (80dec <cylinder_init+0x1c>)
   80dd8:	0118      	lsls	r0, r3, #4
   80dda:	3301      	adds	r3, #1
   80ddc:	1821      	adds	r1, r4, r0
   80dde:	2b04      	cmp	r3, #4
   80de0:	5022      	str	r2, [r4, r0]
   80de2:	604a      	str	r2, [r1, #4]
   80de4:	608a      	str	r2, [r1, #8]
   80de6:	60ca      	str	r2, [r1, #12]
   80de8:	d1f6      	bne.n	80dd8 <cylinder_init+0x8>
   80dea:	bd10      	pop	{r4, pc}
   80dec:	20070de8 	.word	0x20070de8

00080df0 <global_init>:
   80df0:	4a24      	ldr	r2, [pc, #144]	; (80e84 <global_init+0x94>)
   80df2:	2300      	movs	r3, #0
   80df4:	b510      	push	{r4, lr}
   80df6:	6013      	str	r3, [r2, #0]
   80df8:	4a23      	ldr	r2, [pc, #140]	; (80e88 <global_init+0x98>)
   80dfa:	2132      	movs	r1, #50	; 0x32
   80dfc:	8011      	strh	r1, [r2, #0]
   80dfe:	4923      	ldr	r1, [pc, #140]	; (80e8c <global_init+0x9c>)
   80e00:	2201      	movs	r2, #1
   80e02:	800a      	strh	r2, [r1, #0]
   80e04:	4922      	ldr	r1, [pc, #136]	; (80e90 <global_init+0xa0>)
   80e06:	4c23      	ldr	r4, [pc, #140]	; (80e94 <global_init+0xa4>)
   80e08:	800a      	strh	r2, [r1, #0]
   80e0a:	4923      	ldr	r1, [pc, #140]	; (80e98 <global_init+0xa8>)
   80e0c:	4823      	ldr	r0, [pc, #140]	; (80e9c <global_init+0xac>)
   80e0e:	600b      	str	r3, [r1, #0]
   80e10:	4923      	ldr	r1, [pc, #140]	; (80ea0 <global_init+0xb0>)
   80e12:	600b      	str	r3, [r1, #0]
   80e14:	4923      	ldr	r1, [pc, #140]	; (80ea4 <global_init+0xb4>)
   80e16:	600b      	str	r3, [r1, #0]
   80e18:	4923      	ldr	r1, [pc, #140]	; (80ea8 <global_init+0xb8>)
   80e1a:	600b      	str	r3, [r1, #0]
   80e1c:	4923      	ldr	r1, [pc, #140]	; (80eac <global_init+0xbc>)
   80e1e:	600b      	str	r3, [r1, #0]
   80e20:	4923      	ldr	r1, [pc, #140]	; (80eb0 <global_init+0xc0>)
   80e22:	800a      	strh	r2, [r1, #0]
   80e24:	4a23      	ldr	r2, [pc, #140]	; (80eb4 <global_init+0xc4>)
   80e26:	2142      	movs	r1, #66	; 0x42
   80e28:	7013      	strb	r3, [r2, #0]
   80e2a:	4a23      	ldr	r2, [pc, #140]	; (80eb8 <global_init+0xc8>)
   80e2c:	7013      	strb	r3, [r2, #0]
   80e2e:	4a23      	ldr	r2, [pc, #140]	; (80ebc <global_init+0xcc>)
   80e30:	6013      	str	r3, [r2, #0]
   80e32:	4b23      	ldr	r3, [pc, #140]	; (80ec0 <global_init+0xd0>)
   80e34:	220c      	movs	r2, #12
   80e36:	701a      	strb	r2, [r3, #0]
   80e38:	f241 3288 	movw	r2, #5000	; 0x1388
   80e3c:	47a0      	blx	r4
   80e3e:	f241 4250 	movw	r2, #5200	; 0x1450
   80e42:	2140      	movs	r1, #64	; 0x40
   80e44:	481f      	ldr	r0, [pc, #124]	; (80ec4 <global_init+0xd4>)
   80e46:	47a0      	blx	r4
   80e48:	f241 5218 	movw	r2, #5400	; 0x1518
   80e4c:	2140      	movs	r1, #64	; 0x40
   80e4e:	481e      	ldr	r0, [pc, #120]	; (80ec8 <global_init+0xd8>)
   80e50:	47a0      	blx	r4
   80e52:	f44f 52af 	mov.w	r2, #5600	; 0x15e0
   80e56:	2140      	movs	r1, #64	; 0x40
   80e58:	481c      	ldr	r0, [pc, #112]	; (80ecc <global_init+0xdc>)
   80e5a:	47a0      	blx	r4
   80e5c:	f241 62a8 	movw	r2, #5800	; 0x16a8
   80e60:	21a0      	movs	r1, #160	; 0xa0
   80e62:	481b      	ldr	r0, [pc, #108]	; (80ed0 <global_init+0xe0>)
   80e64:	47a0      	blx	r4
   80e66:	f241 7270 	movw	r2, #6000	; 0x1770
   80e6a:	21c0      	movs	r1, #192	; 0xc0
   80e6c:	4819      	ldr	r0, [pc, #100]	; (80ed4 <global_init+0xe4>)
   80e6e:	47a0      	blx	r4
   80e70:	2122      	movs	r1, #34	; 0x22
   80e72:	4819      	ldr	r0, [pc, #100]	; (80ed8 <global_init+0xe8>)
   80e74:	4b19      	ldr	r3, [pc, #100]	; (80edc <global_init+0xec>)
   80e76:	4798      	blx	r3
   80e78:	4b19      	ldr	r3, [pc, #100]	; (80ee0 <global_init+0xf0>)
   80e7a:	4798      	blx	r3
   80e7c:	e8bd 4010 	ldmia.w	sp!, {r4, lr}
   80e80:	4b18      	ldr	r3, [pc, #96]	; (80ee4 <global_init+0xf4>)
   80e82:	4718      	bx	r3
   80e84:	200709dc 	.word	0x200709dc
   80e88:	20071820 	.word	0x20071820
   80e8c:	20071808 	.word	0x20071808
   80e90:	20071c3c 	.word	0x20071c3c
   80e94:	00081465 	.word	0x00081465
   80e98:	200709e0 	.word	0x200709e0
   80e9c:	20070ef8 	.word	0x20070ef8
   80ea0:	20072140 	.word	0x20072140
   80ea4:	20070988 	.word	0x20070988
   80ea8:	20070980 	.word	0x20070980
   80eac:	2007139c 	.word	0x2007139c
   80eb0:	2007209a 	.word	0x2007209a
   80eb4:	2007214c 	.word	0x2007214c
   80eb8:	20071c90 	.word	0x20071c90
   80ebc:	20070994 	.word	0x20070994
   80ec0:	2007214e 	.word	0x2007214e
   80ec4:	20070f3a 	.word	0x20070f3a
   80ec8:	20070998 	.word	0x20070998
   80ecc:	20071c3e 	.word	0x20071c3e
   80ed0:	2007209c 	.word	0x2007209c
   80ed4:	20070e38 	.word	0x20070e38
   80ed8:	2007137a 	.word	0x2007137a
   80edc:	00081475 	.word	0x00081475
   80ee0:	00081545 	.word	0x00081545
   80ee4:	00080dd1 	.word	0x00080dd1

00080ee8 <igncalc_ign_time_teeth>:
   80ee8:	2264      	movs	r2, #100	; 0x64
   80eea:	f1c0 00b4 	rsb	r0, r0, #180	; 0xb4
   80eee:	fb02 f300 	mul.w	r3, r2, r0
   80ef2:	20b4      	movs	r0, #180	; 0xb4
   80ef4:	fb93 f0f0 	sdiv	r0, r3, r0
   80ef8:	230c      	movs	r3, #12
   80efa:	4358      	muls	r0, r3
   80efc:	fb90 f0f2 	sdiv	r0, r0, r2
   80f00:	b280      	uxth	r0, r0
   80f02:	4770      	bx	lr

00080f04 <igncalc_ign_time_interval>:
   80f04:	b510      	push	{r4, lr}
   80f06:	4b0b      	ldr	r3, [pc, #44]	; (80f34 <igncalc_ign_time_interval+0x30>)
   80f08:	4601      	mov	r1, r0
   80f0a:	4798      	blx	r3
   80f0c:	4b0a      	ldr	r3, [pc, #40]	; (80f38 <igncalc_ign_time_interval+0x34>)
   80f0e:	f1c1 01b4 	rsb	r1, r1, #180	; 0xb4
   80f12:	681a      	ldr	r2, [r3, #0]
   80f14:	f242 7310 	movw	r3, #10000	; 0x2710
   80f18:	4359      	muls	r1, r3
   80f1a:	24b4      	movs	r4, #180	; 0xb4
   80f1c:	fb91 f1f4 	sdiv	r1, r1, r4
   80f20:	240c      	movs	r4, #12
   80f22:	fb04 3111 	mls	r1, r4, r1, r3
   80f26:	fb03 1000 	mla	r0, r3, r0, r1
   80f2a:	4350      	muls	r0, r2
   80f2c:	fbb0 f0f3 	udiv	r0, r0, r3
   80f30:	bd10      	pop	{r4, pc}
   80f32:	bf00      	nop
   80f34:	00080ee9 	.word	0x00080ee9
   80f38:	20072140 	.word	0x20072140

00080f3c <igncalc_dwell_correction>:
   80f3c:	b513      	push	{r0, r1, r4, lr}
   80f3e:	4b06      	ldr	r3, [pc, #24]	; (80f58 <igncalc_dwell_correction+0x1c>)
   80f40:	4906      	ldr	r1, [pc, #24]	; (80f5c <igncalc_dwell_correction+0x20>)
   80f42:	7a5a      	ldrb	r2, [r3, #9]
   80f44:	2306      	movs	r3, #6
   80f46:	9300      	str	r3, [sp, #0]
   80f48:	4c05      	ldr	r4, [pc, #20]	; (80f60 <igncalc_dwell_correction+0x24>)
   80f4a:	2301      	movs	r3, #1
   80f4c:	4805      	ldr	r0, [pc, #20]	; (80f64 <igncalc_dwell_correction+0x28>)
   80f4e:	47a0      	blx	r4
   80f50:	b2c0      	uxtb	r0, r0
   80f52:	b002      	add	sp, #8
   80f54:	bd10      	pop	{r4, pc}
   80f56:	bf00      	nop
   80f58:	2007137a 	.word	0x2007137a
   80f5c:	20070f5a 	.word	0x20070f5a
   80f60:	000812d5 	.word	0x000812d5
   80f64:	200709a7 	.word	0x200709a7

00080f68 <igncalc_dwell_time>:
   80f68:	b510      	push	{r4, lr}
   80f6a:	4b0f      	ldr	r3, [pc, #60]	; (80fa8 <igncalc_dwell_time+0x40>)
   80f6c:	4798      	blx	r3
   80f6e:	4a0f      	ldr	r2, [pc, #60]	; (80fac <igncalc_dwell_time+0x44>)
   80f70:	210a      	movs	r1, #10
   80f72:	7b93      	ldrb	r3, [r2, #14]
   80f74:	7fd4      	ldrb	r4, [r2, #31]
   80f76:	4358      	muls	r0, r3
   80f78:	2364      	movs	r3, #100	; 0x64
   80f7a:	fb90 f0f3 	sdiv	r0, r0, r3
   80f7e:	4361      	muls	r1, r4
   80f80:	4288      	cmp	r0, r1
   80f82:	b283      	uxth	r3, r0
   80f84:	dd06      	ble.n	80f94 <igncalc_dwell_time+0x2c>
   80f86:	7b11      	ldrb	r1, [r2, #12]
   80f88:	0789      	lsls	r1, r1, #30
   80f8a:	bf42      	ittt	mi
   80f8c:	7fd3      	ldrbmi	r3, [r2, #31]
   80f8e:	eb03 0383 	addmi.w	r3, r3, r3, lsl #2
   80f92:	005b      	lslmi	r3, r3, #1
   80f94:	f246 608a 	movw	r0, #26250	; 0x668a
   80f98:	b2d9      	uxtb	r1, r3
   80f9a:	4343      	muls	r3, r0
   80f9c:	4a04      	ldr	r2, [pc, #16]	; (80fb0 <igncalc_dwell_time+0x48>)
   80f9e:	2064      	movs	r0, #100	; 0x64
   80fa0:	70d1      	strb	r1, [r2, #3]
   80fa2:	fb93 f0f0 	sdiv	r0, r3, r0
   80fa6:	bd10      	pop	{r4, pc}
   80fa8:	00080f3d 	.word	0x00080f3d
   80fac:	20070f3a 	.word	0x20070f3a
   80fb0:	2007137a 	.word	0x2007137a

00080fb4 <interrupts_enable_interrupt_vector>:
   80fb4:	b242      	sxtb	r2, r0
   80fb6:	b2c0      	uxtb	r0, r0
   80fb8:	b510      	push	{r4, lr}
   80fba:	2301      	movs	r3, #1
   80fbc:	f000 041f 	and.w	r4, r0, #31
   80fc0:	fa03 f404 	lsl.w	r4, r3, r4
   80fc4:	0953      	lsrs	r3, r2, #5
   80fc6:	2a00      	cmp	r2, #0
   80fc8:	ea4f 0383 	mov.w	r3, r3, lsl #2
   80fcc:	ea4f 1101 	mov.w	r1, r1, lsl #4
   80fd0:	bfa8      	it	ge
   80fd2:	f102 4260 	addge.w	r2, r2, #3758096384	; 0xe0000000
   80fd6:	f103 4360 	add.w	r3, r3, #3758096384	; 0xe0000000
   80fda:	bfb8      	it	lt
   80fdc:	4a09      	ldrlt	r2, [pc, #36]	; (81004 <interrupts_enable_interrupt_vector+0x50>)
   80fde:	f503 4361 	add.w	r3, r3, #57600	; 0xe100
   80fe2:	bfb9      	ittee	lt
   80fe4:	f000 000f 	andlt.w	r0, r0, #15
   80fe8:	b2c9      	uxtblt	r1, r1
   80fea:	b2c9      	uxtbge	r1, r1
   80fec:	f502 4261 	addge.w	r2, r2, #57600	; 0xe100
   80ff0:	f8c3 4080 	str.w	r4, [r3, #128]	; 0x80
   80ff4:	f8c3 4180 	str.w	r4, [r3, #384]	; 0x180
   80ff8:	bfb4      	ite	lt
   80ffa:	5411      	strblt	r1, [r2, r0]
   80ffc:	f882 1300 	strbge.w	r1, [r2, #768]	; 0x300
   81000:	601c      	str	r4, [r3, #0]
   81002:	bd10      	pop	{r4, pc}
   81004:	e000ed14 	.word	0xe000ed14

00081008 <interrupts_enable_pio>:
   81008:	b570      	push	{r4, r5, r6, lr}
   8100a:	461e      	mov	r6, r3
   8100c:	f1a0 030b 	sub.w	r3, r0, #11
   81010:	2b03      	cmp	r3, #3
   81012:	460d      	mov	r5, r1
   81014:	d827      	bhi.n	81066 <interrupts_enable_pio+0x5e>
   81016:	2401      	movs	r4, #1
   81018:	4b13      	ldr	r3, [pc, #76]	; (81068 <interrupts_enable_pio+0x60>)
   8101a:	4084      	lsls	r4, r0
   8101c:	280d      	cmp	r0, #13
   8101e:	611c      	str	r4, [r3, #16]
   81020:	d008      	beq.n	81034 <interrupts_enable_pio+0x2c>
   81022:	280e      	cmp	r0, #14
   81024:	d008      	beq.n	81038 <interrupts_enable_pio+0x30>
   81026:	4c11      	ldr	r4, [pc, #68]	; (8106c <interrupts_enable_pio+0x64>)
   81028:	f503 6300 	add.w	r3, r3, #2048	; 0x800
   8102c:	280c      	cmp	r0, #12
   8102e:	bf18      	it	ne
   81030:	461c      	movne	r4, r3
   81032:	e002      	b.n	8103a <interrupts_enable_pio+0x32>
   81034:	4c0e      	ldr	r4, [pc, #56]	; (81070 <interrupts_enable_pio+0x68>)
   81036:	e000      	b.n	8103a <interrupts_enable_pio+0x32>
   81038:	4c0e      	ldr	r4, [pc, #56]	; (81074 <interrupts_enable_pio+0x6c>)
   8103a:	6425      	str	r5, [r4, #64]	; 0x40
   8103c:	4611      	mov	r1, r2
   8103e:	4b0e      	ldr	r3, [pc, #56]	; (81078 <interrupts_enable_pio+0x70>)
   81040:	4798      	blx	r3
   81042:	2e01      	cmp	r6, #1
   81044:	d002      	beq.n	8104c <interrupts_enable_pio+0x44>
   81046:	2e02      	cmp	r6, #2
   81048:	d007      	beq.n	8105a <interrupts_enable_pio+0x52>
   8104a:	bd70      	pop	{r4, r5, r6, pc}
   8104c:	f8c4 50b0 	str.w	r5, [r4, #176]	; 0xb0
   81050:	f8c4 50c0 	str.w	r5, [r4, #192]	; 0xc0
   81054:	f8c4 50d4 	str.w	r5, [r4, #212]	; 0xd4
   81058:	bd70      	pop	{r4, r5, r6, pc}
   8105a:	f8c4 50b0 	str.w	r5, [r4, #176]	; 0xb0
   8105e:	f8c4 50c0 	str.w	r5, [r4, #192]	; 0xc0
   81062:	f8c4 50d0 	str.w	r5, [r4, #208]	; 0xd0
   81066:	bd70      	pop	{r4, r5, r6, pc}
   81068:	400e0600 	.word	0x400e0600
   8106c:	400e1000 	.word	0x400e1000
   81070:	400e1200 	.word	0x400e1200
   81074:	400e1400 	.word	0x400e1400
   81078:	00080fb5 	.word	0x00080fb5

0008107c <PIOA_Handler>:
   8107c:	b530      	push	{r4, r5, lr}
   8107e:	4b41      	ldr	r3, [pc, #260]	; (81184 <PIOA_Handler+0x108>)
   81080:	f8d3 1090 	ldr.w	r1, [r3, #144]	; 0x90
   81084:	f503 23b1 	add.w	r3, r3, #362496	; 0x58800
   81088:	f503 63c0 	add.w	r3, r3, #1536	; 0x600
   8108c:	6cd8      	ldr	r0, [r3, #76]	; 0x4c
   8108e:	0602      	lsls	r2, r0, #24
   81090:	d56b      	bpl.n	8116a <PIOA_Handler+0xee>
   81092:	4b3d      	ldr	r3, [pc, #244]	; (81188 <PIOA_Handler+0x10c>)
   81094:	4a3d      	ldr	r2, [pc, #244]	; (8118c <PIOA_Handler+0x110>)
   81096:	681c      	ldr	r4, [r3, #0]
   81098:	6014      	str	r4, [r2, #0]
   8109a:	4c3d      	ldr	r4, [pc, #244]	; (81190 <PIOA_Handler+0x114>)
   8109c:	6822      	ldr	r2, [r4, #0]
   8109e:	1a8a      	subs	r2, r1, r2
   810a0:	601a      	str	r2, [r3, #0]
   810a2:	4a3c      	ldr	r2, [pc, #240]	; (81194 <PIOA_Handler+0x118>)
   810a4:	6021      	str	r1, [r4, #0]
   810a6:	681c      	ldr	r4, [r3, #0]
   810a8:	6813      	ldr	r3, [r2, #0]
   810aa:	4423      	add	r3, r4
   810ac:	6013      	str	r3, [r2, #0]
   810ae:	4a3a      	ldr	r2, [pc, #232]	; (81198 <PIOA_Handler+0x11c>)
   810b0:	4c3a      	ldr	r4, [pc, #232]	; (8119c <PIOA_Handler+0x120>)
   810b2:	8813      	ldrh	r3, [r2, #0]
   810b4:	3301      	adds	r3, #1
   810b6:	b29b      	uxth	r3, r3
   810b8:	8013      	strh	r3, [r2, #0]
   810ba:	2301      	movs	r3, #1
   810bc:	7023      	strb	r3, [r4, #0]
   810be:	4c38      	ldr	r4, [pc, #224]	; (811a0 <PIOA_Handler+0x124>)
   810c0:	7825      	ldrb	r5, [r4, #0]
   810c2:	8814      	ldrh	r4, [r2, #0]
   810c4:	b2a4      	uxth	r4, r4
   810c6:	42a5      	cmp	r5, r4
   810c8:	d10e      	bne.n	810e8 <PIOA_Handler+0x6c>
   810ca:	4c36      	ldr	r4, [pc, #216]	; (811a4 <PIOA_Handler+0x128>)
   810cc:	7023      	strb	r3, [r4, #0]
   810ce:	4b36      	ldr	r3, [pc, #216]	; (811a8 <PIOA_Handler+0x12c>)
   810d0:	781c      	ldrb	r4, [r3, #0]
   810d2:	4b36      	ldr	r3, [pc, #216]	; (811ac <PIOA_Handler+0x130>)
   810d4:	b914      	cbnz	r4, 810dc <PIOA_Handler+0x60>
   810d6:	681c      	ldr	r4, [r3, #0]
   810d8:	4b35      	ldr	r3, [pc, #212]	; (811b0 <PIOA_Handler+0x134>)
   810da:	e001      	b.n	810e0 <PIOA_Handler+0x64>
   810dc:	681c      	ldr	r4, [r3, #0]
   810de:	4b35      	ldr	r3, [pc, #212]	; (811b4 <PIOA_Handler+0x138>)
   810e0:	615c      	str	r4, [r3, #20]
   810e2:	2405      	movs	r4, #5
   810e4:	601c      	str	r4, [r3, #0]
   810e6:	e016      	b.n	81116 <PIOA_Handler+0x9a>
   810e8:	4c33      	ldr	r4, [pc, #204]	; (811b8 <PIOA_Handler+0x13c>)
   810ea:	7825      	ldrb	r5, [r4, #0]
   810ec:	8814      	ldrh	r4, [r2, #0]
   810ee:	b2a4      	uxth	r4, r4
   810f0:	42a5      	cmp	r5, r4
   810f2:	d110      	bne.n	81116 <PIOA_Handler+0x9a>
   810f4:	4c31      	ldr	r4, [pc, #196]	; (811bc <PIOA_Handler+0x140>)
   810f6:	7023      	strb	r3, [r4, #0]
   810f8:	4b2b      	ldr	r3, [pc, #172]	; (811a8 <PIOA_Handler+0x12c>)
   810fa:	4c31      	ldr	r4, [pc, #196]	; (811c0 <PIOA_Handler+0x144>)
   810fc:	781d      	ldrb	r5, [r3, #0]
   810fe:	4b2c      	ldr	r3, [pc, #176]	; (811b0 <PIOA_Handler+0x134>)
   81100:	6824      	ldr	r4, [r4, #0]
   81102:	b91d      	cbnz	r5, 8110c <PIOA_Handler+0x90>
   81104:	655c      	str	r4, [r3, #84]	; 0x54
   81106:	2405      	movs	r4, #5
   81108:	641c      	str	r4, [r3, #64]	; 0x40
   8110a:	e004      	b.n	81116 <PIOA_Handler+0x9a>
   8110c:	f8c3 4094 	str.w	r4, [r3, #148]	; 0x94
   81110:	2405      	movs	r4, #5
   81112:	f8c3 4080 	str.w	r4, [r3, #128]	; 0x80
   81116:	4b2b      	ldr	r3, [pc, #172]	; (811c4 <PIOA_Handler+0x148>)
   81118:	781c      	ldrb	r4, [r3, #0]
   8111a:	8813      	ldrh	r3, [r2, #0]
   8111c:	b29b      	uxth	r3, r3
   8111e:	429c      	cmp	r4, r3
   81120:	d10d      	bne.n	8113e <PIOA_Handler+0xc2>
   81122:	4b21      	ldr	r3, [pc, #132]	; (811a8 <PIOA_Handler+0x12c>)
   81124:	781a      	ldrb	r2, [r3, #0]
   81126:	4b28      	ldr	r3, [pc, #160]	; (811c8 <PIOA_Handler+0x14c>)
   81128:	b91a      	cbnz	r2, 81132 <PIOA_Handler+0xb6>
   8112a:	681a      	ldr	r2, [r3, #0]
   8112c:	4b20      	ldr	r3, [pc, #128]	; (811b0 <PIOA_Handler+0x134>)
   8112e:	615a      	str	r2, [r3, #20]
   81130:	e01b      	b.n	8116a <PIOA_Handler+0xee>
   81132:	681a      	ldr	r2, [r3, #0]
   81134:	4b1f      	ldr	r3, [pc, #124]	; (811b4 <PIOA_Handler+0x138>)
   81136:	615a      	str	r2, [r3, #20]
   81138:	2205      	movs	r2, #5
   8113a:	601a      	str	r2, [r3, #0]
   8113c:	e015      	b.n	8116a <PIOA_Handler+0xee>
   8113e:	4b23      	ldr	r3, [pc, #140]	; (811cc <PIOA_Handler+0x150>)
   81140:	781a      	ldrb	r2, [r3, #0]
   81142:	4b15      	ldr	r3, [pc, #84]	; (81198 <PIOA_Handler+0x11c>)
   81144:	881b      	ldrh	r3, [r3, #0]
   81146:	b29b      	uxth	r3, r3
   81148:	429a      	cmp	r2, r3
   8114a:	d10e      	bne.n	8116a <PIOA_Handler+0xee>
   8114c:	4b16      	ldr	r3, [pc, #88]	; (811a8 <PIOA_Handler+0x12c>)
   8114e:	4a20      	ldr	r2, [pc, #128]	; (811d0 <PIOA_Handler+0x154>)
   81150:	781c      	ldrb	r4, [r3, #0]
   81152:	4b17      	ldr	r3, [pc, #92]	; (811b0 <PIOA_Handler+0x134>)
   81154:	6812      	ldr	r2, [r2, #0]
   81156:	b91c      	cbnz	r4, 81160 <PIOA_Handler+0xe4>
   81158:	655a      	str	r2, [r3, #84]	; 0x54
   8115a:	2205      	movs	r2, #5
   8115c:	641a      	str	r2, [r3, #64]	; 0x40
   8115e:	e004      	b.n	8116a <PIOA_Handler+0xee>
   81160:	f8c3 2094 	str.w	r2, [r3, #148]	; 0x94
   81164:	2205      	movs	r2, #5
   81166:	f8c3 2080 	str.w	r2, [r3, #128]	; 0x80
   8116a:	0403      	lsls	r3, r0, #16
   8116c:	d508      	bpl.n	81180 <PIOA_Handler+0x104>
   8116e:	4a19      	ldr	r2, [pc, #100]	; (811d4 <PIOA_Handler+0x158>)
   81170:	4819      	ldr	r0, [pc, #100]	; (811d8 <PIOA_Handler+0x15c>)
   81172:	6813      	ldr	r3, [r2, #0]
   81174:	1acb      	subs	r3, r1, r3
   81176:	6003      	str	r3, [r0, #0]
   81178:	4b0b      	ldr	r3, [pc, #44]	; (811a8 <PIOA_Handler+0x12c>)
   8117a:	6011      	str	r1, [r2, #0]
   8117c:	2201      	movs	r2, #1
   8117e:	701a      	strb	r2, [r3, #0]
   81180:	bd30      	pop	{r4, r5, pc}
   81182:	bf00      	nop
   81184:	40088000 	.word	0x40088000
   81188:	200709e0 	.word	0x200709e0
   8118c:	20072140 	.word	0x20072140
   81190:	20070980 	.word	0x20070980
   81194:	20070994 	.word	0x20070994
   81198:	2007209a 	.word	0x2007209a
   8119c:	2007214c 	.word	0x2007214c
   811a0:	2007213c 	.word	0x2007213c
   811a4:	20072099 	.word	0x20072099
   811a8:	20071c90 	.word	0x20071c90
   811ac:	20070984 	.word	0x20070984
   811b0:	40080000 	.word	0x40080000
   811b4:	40084000 	.word	0x40084000
   811b8:	200713a8 	.word	0x200713a8
   811bc:	200709e5 	.word	0x200709e5
   811c0:	20071c38 	.word	0x20071c38
   811c4:	20071c7e 	.word	0x20071c7e
   811c8:	20072158 	.word	0x20072158
   811cc:	20071810 	.word	0x20071810
   811d0:	2007180c 	.word	0x2007180c
   811d4:	2007139c 	.word	0x2007139c
   811d8:	20070988 	.word	0x20070988

000811dc <math_map_adc>:
   811dc:	434a      	muls	r2, r1
   811de:	eb00 20a2 	add.w	r0, r0, r2, asr #10
   811e2:	4770      	bx	lr

000811e4 <math_map>:
   811e4:	2a00      	cmp	r2, #0
   811e6:	bfa3      	ittte	ge
   811e8:	4351      	mulge	r1, r2
   811ea:	fb91 f3f3 	sdivge	r3, r1, r3
   811ee:	18c0      	addge	r0, r0, r3
   811f0:	2000      	movlt	r0, #0
   811f2:	4770      	bx	lr

000811f4 <math_find_median>:
   811f4:	b5f8      	push	{r3, r4, r5, r6, r7, lr}
   811f6:	004b      	lsls	r3, r1, #1
   811f8:	3308      	adds	r3, #8
   811fa:	f023 0307 	bic.w	r3, r3, #7
   811fe:	af00      	add	r7, sp, #0
   81200:	ebad 0d03 	sub.w	sp, sp, r3
   81204:	466c      	mov	r4, sp
   81206:	2300      	movs	r3, #0
   81208:	b29a      	uxth	r2, r3
   8120a:	4291      	cmp	r1, r2
   8120c:	d905      	bls.n	8121a <math_find_median+0x26>
   8120e:	f830 2013 	ldrh.w	r2, [r0, r3, lsl #1]
   81212:	f824 2013 	strh.w	r2, [r4, r3, lsl #1]
   81216:	3301      	adds	r3, #1
   81218:	e7f6      	b.n	81208 <math_find_median+0x14>
   8121a:	2201      	movs	r2, #1
   8121c:	428a      	cmp	r2, r1
   8121e:	d213      	bcs.n	81248 <math_find_median+0x54>
   81220:	4613      	mov	r3, r2
   81222:	eb04 0643 	add.w	r6, r4, r3, lsl #1
   81226:	f834 5013 	ldrh.w	r5, [r4, r3, lsl #1]
   8122a:	f836 0c02 	ldrh.w	r0, [r6, #-2]
   8122e:	4285      	cmp	r5, r0
   81230:	d207      	bcs.n	81242 <math_find_median+0x4e>
   81232:	f824 0013 	strh.w	r0, [r4, r3, lsl #1]
   81236:	3b01      	subs	r3, #1
   81238:	b29b      	uxth	r3, r3
   8123a:	f826 5c02 	strh.w	r5, [r6, #-2]
   8123e:	2b00      	cmp	r3, #0
   81240:	d1ef      	bne.n	81222 <math_find_median+0x2e>
   81242:	3201      	adds	r2, #1
   81244:	b292      	uxth	r2, r2
   81246:	e7e9      	b.n	8121c <math_find_median+0x28>
   81248:	4b08      	ldr	r3, [pc, #32]	; (8126c <math_find_median+0x78>)
   8124a:	4608      	mov	r0, r1
   8124c:	4798      	blx	r3
   8124e:	4d08      	ldr	r5, [pc, #32]	; (81270 <math_find_median+0x7c>)
   81250:	2200      	movs	r2, #0
   81252:	4b08      	ldr	r3, [pc, #32]	; (81274 <math_find_median+0x80>)
   81254:	47a8      	blx	r5
   81256:	2200      	movs	r2, #0
   81258:	4b06      	ldr	r3, [pc, #24]	; (81274 <math_find_median+0x80>)
   8125a:	4d07      	ldr	r5, [pc, #28]	; (81278 <math_find_median+0x84>)
   8125c:	47a8      	blx	r5
   8125e:	4b07      	ldr	r3, [pc, #28]	; (8127c <math_find_median+0x88>)
   81260:	4798      	blx	r3
   81262:	b280      	uxth	r0, r0
   81264:	f834 0010 	ldrh.w	r0, [r4, r0, lsl #1]
   81268:	46bd      	mov	sp, r7
   8126a:	bdf8      	pop	{r3, r4, r5, r6, r7, pc}
   8126c:	00082571 	.word	0x00082571
   81270:	000822d9 	.word	0x000822d9
   81274:	3fe00000 	.word	0x3fe00000
   81278:	0008263d 	.word	0x0008263d
   8127c:	00082a61 	.word	0x00082a61

00081280 <math_find_interpolation_index>:
   81280:	b5f0      	push	{r4, r5, r6, r7, lr}
   81282:	4606      	mov	r6, r0
   81284:	f8bd e014 	ldrh.w	lr, [sp, #20]
   81288:	f89d 7018 	ldrb.w	r7, [sp, #24]
   8128c:	1a34      	subs	r4, r6, r0
   8128e:	b2e4      	uxtb	r4, r4
   81290:	42a7      	cmp	r7, r4
   81292:	d90d      	bls.n	812b0 <math_find_interpolation_index+0x30>
   81294:	f816 5b01 	ldrb.w	r5, [r6], #1
   81298:	fb05 f50e 	mul.w	r5, r5, lr
   8129c:	b2ad      	uxth	r5, r5
   8129e:	428d      	cmp	r5, r1
   812a0:	d201      	bcs.n	812a6 <math_find_interpolation_index+0x26>
   812a2:	7014      	strb	r4, [r2, #0]
   812a4:	e7f2      	b.n	8128c <math_find_interpolation_index+0xc>
   812a6:	d801      	bhi.n	812ac <math_find_interpolation_index+0x2c>
   812a8:	d1f0      	bne.n	8128c <math_find_interpolation_index+0xc>
   812aa:	7014      	strb	r4, [r2, #0]
   812ac:	701c      	strb	r4, [r3, #0]
   812ae:	bdf0      	pop	{r4, r5, r6, r7, pc}
   812b0:	bdf0      	pop	{r4, r5, r6, r7, pc}

000812b2 <math_interpolation>:
   812b2:	4288      	cmp	r0, r1
   812b4:	d90a      	bls.n	812cc <math_interpolation+0x1a>
   812b6:	4290      	cmp	r0, r2
   812b8:	f04f 0364 	mov.w	r3, #100	; 0x64
   812bc:	d208      	bcs.n	812d0 <math_interpolation+0x1e>
   812be:	1a40      	subs	r0, r0, r1
   812c0:	4358      	muls	r0, r3
   812c2:	1a52      	subs	r2, r2, r1
   812c4:	fbb0 f0f2 	udiv	r0, r0, r2
   812c8:	b2c0      	uxtb	r0, r0
   812ca:	4770      	bx	lr
   812cc:	2000      	movs	r0, #0
   812ce:	4770      	bx	lr
   812d0:	4618      	mov	r0, r3
   812d2:	4770      	bx	lr

000812d4 <math_interpolation_vector>:
   812d4:	e92d 43f0 	stmdb	sp!, {r4, r5, r6, r7, r8, r9, lr}
   812d8:	461e      	mov	r6, r3
   812da:	4617      	mov	r7, r2
   812dc:	b085      	sub	sp, #20
   812de:	f89d 2030 	ldrb.w	r2, [sp, #48]	; 0x30
   812e2:	2300      	movs	r3, #0
   812e4:	460c      	mov	r4, r1
   812e6:	f88d 300e 	strb.w	r3, [sp, #14]
   812ea:	1e51      	subs	r1, r2, #1
   812ec:	ab04      	add	r3, sp, #16
   812ee:	f803 1d01 	strb.w	r1, [r3, #-1]!
   812f2:	4d13      	ldr	r5, [pc, #76]	; (81340 <math_interpolation_vector+0x6c>)
   812f4:	9201      	str	r2, [sp, #4]
   812f6:	4639      	mov	r1, r7
   812f8:	f10d 020e 	add.w	r2, sp, #14
   812fc:	9600      	str	r6, [sp, #0]
   812fe:	47a8      	blx	r5
   81300:	f89d 800e 	ldrb.w	r8, [sp, #14]
   81304:	f89d 500f 	ldrb.w	r5, [sp, #15]
   81308:	f810 1008 	ldrb.w	r1, [r0, r8]
   8130c:	5d42      	ldrb	r2, [r0, r5]
   8130e:	4371      	muls	r1, r6
   81310:	4372      	muls	r2, r6
   81312:	b289      	uxth	r1, r1
   81314:	b292      	uxth	r2, r2
   81316:	4638      	mov	r0, r7
   81318:	4b0a      	ldr	r3, [pc, #40]	; (81344 <math_interpolation_vector+0x70>)
   8131a:	4798      	blx	r3
   8131c:	f814 3008 	ldrb.w	r3, [r4, r8]
   81320:	f1c0 0264 	rsb	r2, r0, #100	; 0x64
   81324:	435a      	muls	r2, r3
   81326:	5d63      	ldrb	r3, [r4, r5]
   81328:	b292      	uxth	r2, r2
   8132a:	4358      	muls	r0, r3
   8132c:	b280      	uxth	r0, r0
   8132e:	4410      	add	r0, r2
   81330:	2364      	movs	r3, #100	; 0x64
   81332:	fb90 f0f3 	sdiv	r0, r0, r3
   81336:	b280      	uxth	r0, r0
   81338:	b005      	add	sp, #20
   8133a:	e8bd 83f0 	ldmia.w	sp!, {r4, r5, r6, r7, r8, r9, pc}
   8133e:	bf00      	nop
   81340:	00081281 	.word	0x00081281
   81344:	000812b3 	.word	0x000812b3

00081348 <sensors_init>:
   81348:	e92d 41f0 	stmdb	sp!, {r4, r5, r6, r7, r8, lr}
   8134c:	4e0e      	ldr	r6, [pc, #56]	; (81388 <sensors_init+0x40>)
   8134e:	f8df 8044 	ldr.w	r8, [pc, #68]	; 81394 <sensors_init+0x4c>
   81352:	4f0e      	ldr	r7, [pc, #56]	; (8138c <sensors_init+0x44>)
   81354:	2400      	movs	r4, #0
   81356:	b2a5      	uxth	r5, r4
   81358:	f505 7058 	add.w	r0, r5, #864	; 0x360
   8135c:	b280      	uxth	r0, r0
   8135e:	47b0      	blx	r6
   81360:	f808 0004 	strb.w	r0, [r8, r4]
   81364:	f505 60ec 	add.w	r0, r5, #1888	; 0x760
   81368:	b280      	uxth	r0, r0
   8136a:	47b0      	blx	r6
   8136c:	5538      	strb	r0, [r7, r4]
   8136e:	f505 6036 	add.w	r0, r5, #2912	; 0xb60
   81372:	b280      	uxth	r0, r0
   81374:	47b0      	blx	r6
   81376:	4b06      	ldr	r3, [pc, #24]	; (81390 <sensors_init+0x48>)
   81378:	5518      	strb	r0, [r3, r4]
   8137a:	3401      	adds	r4, #1
   8137c:	f5b4 6f80 	cmp.w	r4, #1024	; 0x400
   81380:	d1e9      	bne.n	81356 <sensors_init+0xe>
   81382:	e8bd 81f0 	ldmia.w	sp!, {r4, r5, r6, r7, r8, pc}
   81386:	bf00      	nop
   81388:	00080d75 	.word	0x00080d75
   8138c:	20071822 	.word	0x20071822
   81390:	20071c99 	.word	0x20071c99
   81394:	200713ac 	.word	0x200713ac

00081398 <sensors_read_adc>:
   81398:	e92d 43f8 	stmdb	sp!, {r3, r4, r5, r6, r7, r8, r9, lr}
   8139c:	4e28      	ldr	r6, [pc, #160]	; (81440 <sensors_read_adc+0xa8>)
   8139e:	4d29      	ldr	r5, [pc, #164]	; (81444 <sensors_read_adc+0xac>)
   813a0:	2103      	movs	r1, #3
   813a2:	4630      	mov	r0, r6
   813a4:	47a8      	blx	r5
   813a6:	4b28      	ldr	r3, [pc, #160]	; (81448 <sensors_read_adc+0xb0>)
   813a8:	4c28      	ldr	r4, [pc, #160]	; (8144c <sensors_read_adc+0xb4>)
   813aa:	5c1b      	ldrb	r3, [r3, r0]
   813ac:	2103      	movs	r1, #3
   813ae:	b2db      	uxtb	r3, r3
   813b0:	f106 000c 	add.w	r0, r6, #12
   813b4:	71e3      	strb	r3, [r4, #7]
   813b6:	47a8      	blx	r5
   813b8:	4b25      	ldr	r3, [pc, #148]	; (81450 <sensors_read_adc+0xb8>)
   813ba:	2103      	movs	r1, #3
   813bc:	5c1b      	ldrb	r3, [r3, r0]
   813be:	1db0      	adds	r0, r6, #6
   813c0:	b2db      	uxtb	r3, r3
   813c2:	71a3      	strb	r3, [r4, #6]
   813c4:	47a8      	blx	r5
   813c6:	4b23      	ldr	r3, [pc, #140]	; (81454 <sensors_read_adc+0xbc>)
   813c8:	4f23      	ldr	r7, [pc, #140]	; (81458 <sensors_read_adc+0xc0>)
   813ca:	5c1b      	ldrb	r3, [r3, r0]
   813cc:	2103      	movs	r1, #3
   813ce:	b2db      	uxtb	r3, r3
   813d0:	72a3      	strb	r3, [r4, #10]
   813d2:	f106 0012 	add.w	r0, r6, #18
   813d6:	f897 803d 	ldrb.w	r8, [r7, #61]	; 0x3d
   813da:	f8b7 903e 	ldrh.w	r9, [r7, #62]	; 0x3e
   813de:	47a8      	blx	r5
   813e0:	fa5f f888 	uxtb.w	r8, r8
   813e4:	fa1f f989 	uxth.w	r9, r9
   813e8:	4602      	mov	r2, r0
   813ea:	4649      	mov	r1, r9
   813ec:	4640      	mov	r0, r8
   813ee:	f8df 8070 	ldr.w	r8, [pc, #112]	; 81460 <sensors_read_adc+0xc8>
   813f2:	47c0      	blx	r8
   813f4:	b280      	uxth	r0, r0
   813f6:	80a0      	strh	r0, [r4, #4]
   813f8:	2103      	movs	r1, #3
   813fa:	f1a6 0018 	sub.w	r0, r6, #24
   813fe:	47a8      	blx	r5
   81400:	f3c0 0087 	ubfx	r0, r0, #2, #8
   81404:	7220      	strb	r0, [r4, #8]
   81406:	7a21      	ldrb	r1, [r4, #8]
   81408:	f897 203b 	ldrb.w	r2, [r7, #59]	; 0x3b
   8140c:	f897 303c 	ldrb.w	r3, [r7, #60]	; 0x3c
   81410:	f897 003b 	ldrb.w	r0, [r7, #59]	; 0x3b
   81414:	1a8a      	subs	r2, r1, r2
   81416:	1a1b      	subs	r3, r3, r0
   81418:	b29b      	uxth	r3, r3
   8141a:	2164      	movs	r1, #100	; 0x64
   8141c:	2000      	movs	r0, #0
   8141e:	4f0f      	ldr	r7, [pc, #60]	; (8145c <sensors_read_adc+0xc4>)
   81420:	47b8      	blx	r7
   81422:	b2c0      	uxtb	r0, r0
   81424:	7620      	strb	r0, [r4, #24]
   81426:	2103      	movs	r1, #3
   81428:	f106 0030 	add.w	r0, r6, #48	; 0x30
   8142c:	47a8      	blx	r5
   8142e:	21a0      	movs	r1, #160	; 0xa0
   81430:	4602      	mov	r2, r0
   81432:	2000      	movs	r0, #0
   81434:	47c0      	blx	r8
   81436:	b2c0      	uxtb	r0, r0
   81438:	7260      	strb	r0, [r4, #9]
   8143a:	e8bd 83f8 	ldmia.w	sp!, {r3, r4, r5, r6, r7, r8, r9, pc}
   8143e:	bf00      	nop
   81440:	200717c6 	.word	0x200717c6
   81444:	000811f5 	.word	0x000811f5
   81448:	200713ac 	.word	0x200713ac
   8144c:	2007137a 	.word	0x2007137a
   81450:	20071822 	.word	0x20071822
   81454:	20071c99 	.word	0x20071c99
   81458:	20070ef8 	.word	0x20070ef8
   8145c:	000811e5 	.word	0x000811e5
   81460:	000811dd 	.word	0x000811dd

00081464 <storage_struct_read_eeprom_init>:
   81464:	4613      	mov	r3, r2
   81466:	4602      	mov	r2, r0
   81468:	4618      	mov	r0, r3
   8146a:	4b01      	ldr	r3, [pc, #4]	; (81470 <storage_struct_read_eeprom_init+0xc>)
   8146c:	4718      	bx	r3
   8146e:	bf00      	nop
   81470:	00080221 	.word	0x00080221

00081474 <storage_init_struct_to_zero>:
   81474:	4602      	mov	r2, r0
   81476:	b510      	push	{r4, lr}
   81478:	2400      	movs	r4, #0
   8147a:	1a13      	subs	r3, r2, r0
   8147c:	b29b      	uxth	r3, r3
   8147e:	4299      	cmp	r1, r3
   81480:	d902      	bls.n	81488 <storage_init_struct_to_zero+0x14>
   81482:	f802 4b01 	strb.w	r4, [r2], #1
   81486:	e7f8      	b.n	8147a <storage_init_struct_to_zero+0x6>
   81488:	bd10      	pop	{r4, pc}
	...

0008148c <tables_Table3D_alloc_mem>:
   8148c:	e92d 43f8 	stmdb	sp!, {r3, r4, r5, r6, r7, r8, r9, lr}
   81490:	4605      	mov	r5, r0
   81492:	4f10      	ldr	r7, [pc, #64]	; (814d4 <tables_Table3D_alloc_mem+0x48>)
   81494:	0090      	lsls	r0, r2, #2
   81496:	460e      	mov	r6, r1
   81498:	4614      	mov	r4, r2
   8149a:	47b8      	blx	r7
   8149c:	f04f 0800 	mov.w	r8, #0
   814a0:	6028      	str	r0, [r5, #0]
   814a2:	4544      	cmp	r4, r8
   814a4:	d008      	beq.n	814b8 <tables_Table3D_alloc_mem+0x2c>
   814a6:	4630      	mov	r0, r6
   814a8:	f8d5 9000 	ldr.w	r9, [r5]
   814ac:	47b8      	blx	r7
   814ae:	f849 0028 	str.w	r0, [r9, r8, lsl #2]
   814b2:	f108 0801 	add.w	r8, r8, #1
   814b6:	e7f4      	b.n	814a2 <tables_Table3D_alloc_mem+0x16>
   814b8:	4630      	mov	r0, r6
   814ba:	47b8      	blx	r7
   814bc:	6068      	str	r0, [r5, #4]
   814be:	4620      	mov	r0, r4
   814c0:	47b8      	blx	r7
   814c2:	732e      	strb	r6, [r5, #12]
   814c4:	fb04 6606 	mla	r6, r4, r6, r6
   814c8:	736c      	strb	r4, [r5, #13]
   814ca:	4434      	add	r4, r6
   814cc:	60a8      	str	r0, [r5, #8]
   814ce:	81ec      	strh	r4, [r5, #14]
   814d0:	e8bd 83f8 	ldmia.w	sp!, {r3, r4, r5, r6, r7, r8, r9, pc}
   814d4:	00082af1 	.word	0x00082af1

000814d8 <tables_Table3D_read_eeprom>:
   814d8:	e92d 41f0 	stmdb	sp!, {r4, r5, r6, r7, r8, lr}
   814dc:	4604      	mov	r4, r0
   814de:	460d      	mov	r5, r1
   814e0:	f8df 803c 	ldr.w	r8, [pc, #60]	; 81520 <tables_Table3D_read_eeprom+0x48>
   814e4:	2300      	movs	r3, #0
   814e6:	7b62      	ldrb	r2, [r4, #13]
   814e8:	1c5f      	adds	r7, r3, #1
   814ea:	b2db      	uxtb	r3, r3
   814ec:	429a      	cmp	r2, r3
   814ee:	7b21      	ldrb	r1, [r4, #12]
   814f0:	4e0b      	ldr	r6, [pc, #44]	; (81520 <tables_Table3D_read_eeprom+0x48>)
   814f2:	d909      	bls.n	81508 <tables_Table3D_read_eeprom+0x30>
   814f4:	6820      	ldr	r0, [r4, #0]
   814f6:	462a      	mov	r2, r5
   814f8:	f850 0023 	ldr.w	r0, [r0, r3, lsl #2]
   814fc:	47c0      	blx	r8
   814fe:	7b22      	ldrb	r2, [r4, #12]
   81500:	463b      	mov	r3, r7
   81502:	4415      	add	r5, r2
   81504:	b2ad      	uxth	r5, r5
   81506:	e7ee      	b.n	814e6 <tables_Table3D_read_eeprom+0xe>
   81508:	462a      	mov	r2, r5
   8150a:	6860      	ldr	r0, [r4, #4]
   8150c:	47b0      	blx	r6
   8150e:	7b22      	ldrb	r2, [r4, #12]
   81510:	7b61      	ldrb	r1, [r4, #13]
   81512:	442a      	add	r2, r5
   81514:	68a0      	ldr	r0, [r4, #8]
   81516:	4633      	mov	r3, r6
   81518:	e8bd 41f0 	ldmia.w	sp!, {r4, r5, r6, r7, r8, lr}
   8151c:	b292      	uxth	r2, r2
   8151e:	4718      	bx	r3
   81520:	00081465 	.word	0x00081465

00081524 <tables_Table3D_init>:
   81524:	b570      	push	{r4, r5, r6, lr}
   81526:	4604      	mov	r4, r0
   81528:	461d      	mov	r5, r3
   8152a:	4b04      	ldr	r3, [pc, #16]	; (8153c <tables_Table3D_init+0x18>)
   8152c:	4798      	blx	r3
   8152e:	4629      	mov	r1, r5
   81530:	4620      	mov	r0, r4
   81532:	e8bd 4070 	ldmia.w	sp!, {r4, r5, r6, lr}
   81536:	4b02      	ldr	r3, [pc, #8]	; (81540 <tables_Table3D_init+0x1c>)
   81538:	4718      	bx	r3
   8153a:	bf00      	nop
   8153c:	0008148d 	.word	0x0008148d
   81540:	000814d9 	.word	0x000814d9

00081544 <table_init>:
   81544:	b510      	push	{r4, lr}
   81546:	2210      	movs	r2, #16
   81548:	4c09      	ldr	r4, [pc, #36]	; (81570 <table_init+0x2c>)
   8154a:	4611      	mov	r1, r2
   8154c:	2300      	movs	r3, #0
   8154e:	4809      	ldr	r0, [pc, #36]	; (81574 <table_init+0x30>)
   81550:	47a0      	blx	r4
   81552:	2210      	movs	r2, #16
   81554:	4611      	mov	r1, r2
   81556:	f44f 7390 	mov.w	r3, #288	; 0x120
   8155a:	4807      	ldr	r0, [pc, #28]	; (81578 <table_init+0x34>)
   8155c:	47a0      	blx	r4
   8155e:	2210      	movs	r2, #16
   81560:	46a4      	mov	ip, r4
   81562:	e8bd 4010 	ldmia.w	sp!, {r4, lr}
   81566:	f44f 7310 	mov.w	r3, #576	; 0x240
   8156a:	4611      	mov	r1, r2
   8156c:	4803      	ldr	r0, [pc, #12]	; (8157c <table_init+0x38>)
   8156e:	4760      	bx	ip
   81570:	00081525 	.word	0x00081525
   81574:	20070e28 	.word	0x20070e28
   81578:	20071c24 	.word	0x20071c24
   8157c:	20071c80 	.word	0x20071c80

00081580 <timer_init>:
   81580:	2808      	cmp	r0, #8
   81582:	e92d 43f8 	stmdb	sp!, {r3, r4, r5, r6, r7, r8, r9, lr}
   81586:	4604      	mov	r4, r0
   81588:	4689      	mov	r9, r1
   8158a:	4617      	mov	r7, r2
   8158c:	4698      	mov	r8, r3
   8158e:	d82e      	bhi.n	815ee <timer_init+0x6e>
   81590:	f100 061b 	add.w	r6, r0, #27
   81594:	4630      	mov	r0, r6
   81596:	4b17      	ldr	r3, [pc, #92]	; (815f4 <timer_init+0x74>)
   81598:	4798      	blx	r3
   8159a:	2c02      	cmp	r4, #2
   8159c:	d905      	bls.n	815aa <timer_init+0x2a>
   8159e:	4b16      	ldr	r3, [pc, #88]	; (815f8 <timer_init+0x78>)
   815a0:	4d16      	ldr	r5, [pc, #88]	; (815fc <timer_init+0x7c>)
   815a2:	2c05      	cmp	r4, #5
   815a4:	bf88      	it	hi
   815a6:	461d      	movhi	r5, r3
   815a8:	e000      	b.n	815ac <timer_init+0x2c>
   815aa:	4d15      	ldr	r5, [pc, #84]	; (81600 <timer_init+0x80>)
   815ac:	2303      	movs	r3, #3
   815ae:	fbb4 f3f3 	udiv	r3, r4, r3
   815b2:	eb03 0343 	add.w	r3, r3, r3, lsl #1
   815b6:	1ae4      	subs	r4, r4, r3
   815b8:	464a      	mov	r2, r9
   815ba:	4621      	mov	r1, r4
   815bc:	4628      	mov	r0, r5
   815be:	4b11      	ldr	r3, [pc, #68]	; (81604 <timer_init+0x84>)
   815c0:	4798      	blx	r3
   815c2:	4641      	mov	r1, r8
   815c4:	4630      	mov	r0, r6
   815c6:	4b10      	ldr	r3, [pc, #64]	; (81608 <timer_init+0x88>)
   815c8:	4798      	blx	r3
   815ca:	463a      	mov	r2, r7
   815cc:	4621      	mov	r1, r4
   815ce:	4628      	mov	r0, r5
   815d0:	4b0e      	ldr	r3, [pc, #56]	; (8160c <timer_init+0x8c>)
   815d2:	4798      	blx	r3
   815d4:	4b08      	ldr	r3, [pc, #32]	; (815f8 <timer_init+0x78>)
   815d6:	2208      	movs	r2, #8
   815d8:	f8c3 20a4 	str.w	r2, [r3, #164]	; 0xa4
   815dc:	4621      	mov	r1, r4
   815de:	4b0c      	ldr	r3, [pc, #48]	; (81610 <timer_init+0x90>)
   815e0:	4628      	mov	r0, r5
   815e2:	4798      	blx	r3
   815e4:	4a0b      	ldr	r2, [pc, #44]	; (81614 <timer_init+0x94>)
   815e6:	2300      	movs	r3, #0
   815e8:	7013      	strb	r3, [r2, #0]
   815ea:	4a0b      	ldr	r2, [pc, #44]	; (81618 <timer_init+0x98>)
   815ec:	6013      	str	r3, [r2, #0]
   815ee:	e8bd 83f8 	ldmia.w	sp!, {r3, r4, r5, r6, r7, r8, r9, pc}
   815f2:	bf00      	nop
   815f4:	00080695 	.word	0x00080695
   815f8:	40088000 	.word	0x40088000
   815fc:	40084000 	.word	0x40084000
   81600:	40080000 	.word	0x40080000
   81604:	000806d5 	.word	0x000806d5
   81608:	00080fb5 	.word	0x00080fb5
   8160c:	0008070b 	.word	0x0008070b
   81610:	000806eb 	.word	0x000806eb
   81614:	200709e4 	.word	0x200709e4
   81618:	20072150 	.word	0x20072150

0008161c <TC0_Handler>:
   8161c:	4906      	ldr	r1, [pc, #24]	; (81638 <TC0_Handler+0x1c>)
   8161e:	4b07      	ldr	r3, [pc, #28]	; (8163c <TC0_Handler+0x20>)
   81620:	7808      	ldrb	r0, [r1, #0]
   81622:	f44f 2200 	mov.w	r2, #524288	; 0x80000
   81626:	b118      	cbz	r0, 81630 <TC0_Handler+0x14>
   81628:	631a      	str	r2, [r3, #48]	; 0x30
   8162a:	2300      	movs	r3, #0
   8162c:	700b      	strb	r3, [r1, #0]
   8162e:	e000      	b.n	81632 <TC0_Handler+0x16>
   81630:	635a      	str	r2, [r3, #52]	; 0x34
   81632:	4b03      	ldr	r3, [pc, #12]	; (81640 <TC0_Handler+0x24>)
   81634:	6a1b      	ldr	r3, [r3, #32]
   81636:	4770      	bx	lr
   81638:	20072099 	.word	0x20072099
   8163c:	400e1200 	.word	0x400e1200
   81640:	40080000 	.word	0x40080000

00081644 <TC1_Handler>:
   81644:	4907      	ldr	r1, [pc, #28]	; (81664 <TC1_Handler+0x20>)
   81646:	4b08      	ldr	r3, [pc, #32]	; (81668 <TC1_Handler+0x24>)
   81648:	7808      	ldrb	r0, [r1, #0]
   8164a:	f44f 0200 	mov.w	r2, #8388608	; 0x800000
   8164e:	b118      	cbz	r0, 81658 <TC1_Handler+0x14>
   81650:	631a      	str	r2, [r3, #48]	; 0x30
   81652:	2300      	movs	r3, #0
   81654:	700b      	strb	r3, [r1, #0]
   81656:	e000      	b.n	8165a <TC1_Handler+0x16>
   81658:	635a      	str	r2, [r3, #52]	; 0x34
   8165a:	4b04      	ldr	r3, [pc, #16]	; (8166c <TC1_Handler+0x28>)
   8165c:	6e1a      	ldr	r2, [r3, #96]	; 0x60
   8165e:	2202      	movs	r2, #2
   81660:	641a      	str	r2, [r3, #64]	; 0x40
   81662:	4770      	bx	lr
   81664:	200709e5 	.word	0x200709e5
   81668:	400e1200 	.word	0x400e1200
   8166c:	40080000 	.word	0x40080000

00081670 <TC2_Handler>:
   81670:	4908      	ldr	r1, [pc, #32]	; (81694 <TC2_Handler+0x24>)
   81672:	4b09      	ldr	r3, [pc, #36]	; (81698 <TC2_Handler+0x28>)
   81674:	7808      	ldrb	r0, [r1, #0]
   81676:	f44f 3200 	mov.w	r2, #131072	; 0x20000
   8167a:	b118      	cbz	r0, 81684 <TC2_Handler+0x14>
   8167c:	631a      	str	r2, [r3, #48]	; 0x30
   8167e:	2300      	movs	r3, #0
   81680:	700b      	strb	r3, [r1, #0]
   81682:	e000      	b.n	81686 <TC2_Handler+0x16>
   81684:	635a      	str	r2, [r3, #52]	; 0x34
   81686:	4b05      	ldr	r3, [pc, #20]	; (8169c <TC2_Handler+0x2c>)
   81688:	f8d3 20a0 	ldr.w	r2, [r3, #160]	; 0xa0
   8168c:	2202      	movs	r2, #2
   8168e:	f8c3 2080 	str.w	r2, [r3, #128]	; 0x80
   81692:	4770      	bx	lr
   81694:	200709e5 	.word	0x200709e5
   81698:	400e1200 	.word	0x400e1200
   8169c:	40080000 	.word	0x40080000

000816a0 <TC3_Handler>:
   816a0:	4907      	ldr	r1, [pc, #28]	; (816c0 <TC3_Handler+0x20>)
   816a2:	4b08      	ldr	r3, [pc, #32]	; (816c4 <TC3_Handler+0x24>)
   816a4:	7808      	ldrb	r0, [r1, #0]
   816a6:	f04f 7200 	mov.w	r2, #33554432	; 0x2000000
   816aa:	b118      	cbz	r0, 816b4 <TC3_Handler+0x14>
   816ac:	631a      	str	r2, [r3, #48]	; 0x30
   816ae:	2300      	movs	r3, #0
   816b0:	700b      	strb	r3, [r1, #0]
   816b2:	e000      	b.n	816b6 <TC3_Handler+0x16>
   816b4:	635a      	str	r2, [r3, #52]	; 0x34
   816b6:	4b04      	ldr	r3, [pc, #16]	; (816c8 <TC3_Handler+0x28>)
   816b8:	6a1a      	ldr	r2, [r3, #32]
   816ba:	2202      	movs	r2, #2
   816bc:	601a      	str	r2, [r3, #0]
   816be:	4770      	bx	lr
   816c0:	20072099 	.word	0x20072099
   816c4:	400e1200 	.word	0x400e1200
   816c8:	40084000 	.word	0x40084000

000816cc <TC4_Handler>:
   816cc:	4770      	bx	lr

000816ce <TC5_Handler>:
   816ce:	4770      	bx	lr

000816d0 <TC6_Handler>:
   816d0:	4770      	bx	lr

000816d2 <TC7_Handler>:
   816d2:	4770      	bx	lr

000816d4 <TC8_Handler>:
   816d4:	b570      	push	{r4, r5, r6, lr}
   816d6:	4e20      	ldr	r6, [pc, #128]	; (81758 <TC8_Handler+0x84>)
   816d8:	2102      	movs	r1, #2
   816da:	4630      	mov	r0, r6
   816dc:	4b1f      	ldr	r3, [pc, #124]	; (8175c <TC8_Handler+0x88>)
   816de:	4798      	blx	r3
   816e0:	f8d6 40a0 	ldr.w	r4, [r6, #160]	; 0xa0
   816e4:	4605      	mov	r5, r0
   816e6:	0760      	lsls	r0, r4, #29
   816e8:	d50c      	bpl.n	81704 <TC8_Handler+0x30>
   816ea:	4b1d      	ldr	r3, [pc, #116]	; (81760 <TC8_Handler+0x8c>)
   816ec:	4630      	mov	r0, r6
   816ee:	881a      	ldrh	r2, [r3, #0]
   816f0:	4b1c      	ldr	r3, [pc, #112]	; (81764 <TC8_Handler+0x90>)
   816f2:	2102      	movs	r1, #2
   816f4:	fb93 f2f2 	sdiv	r2, r3, r2
   816f8:	4b1b      	ldr	r3, [pc, #108]	; (81768 <TC8_Handler+0x94>)
   816fa:	442a      	add	r2, r5
   816fc:	4798      	blx	r3
   816fe:	481b      	ldr	r0, [pc, #108]	; (8176c <TC8_Handler+0x98>)
   81700:	4b1b      	ldr	r3, [pc, #108]	; (81770 <TC8_Handler+0x9c>)
   81702:	4798      	blx	r3
   81704:	0721      	lsls	r1, r4, #28
   81706:	bf42      	ittt	mi
   81708:	4a13      	ldrmi	r2, [pc, #76]	; (81758 <TC8_Handler+0x84>)
   8170a:	f605 2341 	addwmi	r3, r5, #2625	; 0xa41
   8170e:	f8c2 3098 	strmi.w	r3, [r2, #152]	; 0x98
   81712:	06e2      	lsls	r2, r4, #27
   81714:	d509      	bpl.n	8172a <TC8_Handler+0x56>
   81716:	f605 2241 	addw	r2, r5, #2625	; 0xa41
   8171a:	4b16      	ldr	r3, [pc, #88]	; (81774 <TC8_Handler+0xa0>)
   8171c:	2102      	movs	r1, #2
   8171e:	480e      	ldr	r0, [pc, #56]	; (81758 <TC8_Handler+0x84>)
   81720:	4798      	blx	r3
   81722:	4a15      	ldr	r2, [pc, #84]	; (81778 <TC8_Handler+0xa4>)
   81724:	6813      	ldr	r3, [r2, #0]
   81726:	3301      	adds	r3, #1
   81728:	6013      	str	r3, [r2, #0]
   8172a:	07e3      	lsls	r3, r4, #31
   8172c:	d513      	bpl.n	81756 <TC8_Handler+0x82>
   8172e:	4b13      	ldr	r3, [pc, #76]	; (8177c <TC8_Handler+0xa8>)
   81730:	2201      	movs	r2, #1
   81732:	701a      	strb	r2, [r3, #0]
   81734:	4b0a      	ldr	r3, [pc, #40]	; (81760 <TC8_Handler+0x8c>)
   81736:	4a0b      	ldr	r2, [pc, #44]	; (81764 <TC8_Handler+0x90>)
   81738:	881b      	ldrh	r3, [r3, #0]
   8173a:	2102      	movs	r1, #2
   8173c:	fb92 f2f3 	sdiv	r2, r2, r3
   81740:	4805      	ldr	r0, [pc, #20]	; (81758 <TC8_Handler+0x84>)
   81742:	4b09      	ldr	r3, [pc, #36]	; (81768 <TC8_Handler+0x94>)
   81744:	4798      	blx	r3
   81746:	e8bd 4070 	ldmia.w	sp!, {r4, r5, r6, lr}
   8174a:	f640 2241 	movw	r2, #2625	; 0xa41
   8174e:	2102      	movs	r1, #2
   81750:	4801      	ldr	r0, [pc, #4]	; (81758 <TC8_Handler+0x84>)
   81752:	4b08      	ldr	r3, [pc, #32]	; (81774 <TC8_Handler+0xa0>)
   81754:	4718      	bx	r3
   81756:	bd70      	pop	{r4, r5, r6, pc}
   81758:	40088000 	.word	0x40088000
   8175c:	000806f3 	.word	0x000806f3
   81760:	20071820 	.word	0x20071820
   81764:	00280de8 	.word	0x00280de8
   81768:	000806fb 	.word	0x000806fb
   8176c:	400c0000 	.word	0x400c0000
   81770:	000802c3 	.word	0x000802c3
   81774:	00080703 	.word	0x00080703
   81778:	20072150 	.word	0x20072150
   8177c:	200709e4 	.word	0x200709e4

00081780 <tunerstudio_init>:
   81780:	4b07      	ldr	r3, [pc, #28]	; (817a0 <tunerstudio_init+0x20>)
   81782:	22ff      	movs	r2, #255	; 0xff
   81784:	701a      	strb	r2, [r3, #0]
   81786:	4a07      	ldr	r2, [pc, #28]	; (817a4 <tunerstudio_init+0x24>)
   81788:	2300      	movs	r3, #0
   8178a:	7013      	strb	r3, [r2, #0]
   8178c:	4a06      	ldr	r2, [pc, #24]	; (817a8 <tunerstudio_init+0x28>)
   8178e:	7013      	strb	r3, [r2, #0]
   81790:	4a06      	ldr	r2, [pc, #24]	; (817ac <tunerstudio_init+0x2c>)
   81792:	7013      	strb	r3, [r2, #0]
   81794:	4a06      	ldr	r2, [pc, #24]	; (817b0 <tunerstudio_init+0x30>)
   81796:	7013      	strb	r3, [r2, #0]
   81798:	4a06      	ldr	r2, [pc, #24]	; (817b4 <tunerstudio_init+0x34>)
   8179a:	7013      	strb	r3, [r2, #0]
   8179c:	4770      	bx	lr
   8179e:	bf00      	nop
   817a0:	200709d8 	.word	0x200709d8
   817a4:	2007214d 	.word	0x2007214d
   817a8:	2007098e 	.word	0x2007098e
   817ac:	20071c23 	.word	0x20071c23
   817b0:	20071c34 	.word	0x20071c34
   817b4:	20071c22 	.word	0x20071c22

000817b8 <tunerstudio_send_struct>:
   817b8:	b570      	push	{r4, r5, r6, lr}
   817ba:	3901      	subs	r1, #1
   817bc:	4e06      	ldr	r6, [pc, #24]	; (817d8 <tunerstudio_send_struct+0x20>)
   817be:	1e45      	subs	r5, r0, #1
   817c0:	1844      	adds	r4, r0, r1
   817c2:	42a5      	cmp	r5, r4
   817c4:	d003      	beq.n	817ce <tunerstudio_send_struct+0x16>
   817c6:	f815 0f01 	ldrb.w	r0, [r5, #1]!
   817ca:	47b0      	blx	r6
   817cc:	e7f9      	b.n	817c2 <tunerstudio_send_struct+0xa>
   817ce:	4b03      	ldr	r3, [pc, #12]	; (817dc <tunerstudio_send_struct+0x24>)
   817d0:	e8bd 4070 	ldmia.w	sp!, {r4, r5, r6, lr}
   817d4:	4718      	bx	r3
   817d6:	bf00      	nop
   817d8:	00081ed5 	.word	0x00081ed5
   817dc:	00081ef1 	.word	0x00081ef1

000817e0 <tunerstudio_send_Table3D>:
   817e0:	e92d 41f0 	stmdb	sp!, {r4, r5, r6, r7, r8, lr}
   817e4:	4604      	mov	r4, r0
   817e6:	4f0b      	ldr	r7, [pc, #44]	; (81814 <tunerstudio_send_Table3D+0x34>)
   817e8:	2300      	movs	r3, #0
   817ea:	7b62      	ldrb	r2, [r4, #13]
   817ec:	1c5e      	adds	r6, r3, #1
   817ee:	b2db      	uxtb	r3, r3
   817f0:	429a      	cmp	r2, r3
   817f2:	7b21      	ldrb	r1, [r4, #12]
   817f4:	4d07      	ldr	r5, [pc, #28]	; (81814 <tunerstudio_send_Table3D+0x34>)
   817f6:	d905      	bls.n	81804 <tunerstudio_send_Table3D+0x24>
   817f8:	6822      	ldr	r2, [r4, #0]
   817fa:	f852 0023 	ldr.w	r0, [r2, r3, lsl #2]
   817fe:	47b8      	blx	r7
   81800:	4633      	mov	r3, r6
   81802:	e7f2      	b.n	817ea <tunerstudio_send_Table3D+0xa>
   81804:	6860      	ldr	r0, [r4, #4]
   81806:	47a8      	blx	r5
   81808:	7b61      	ldrb	r1, [r4, #13]
   8180a:	68a0      	ldr	r0, [r4, #8]
   8180c:	462b      	mov	r3, r5
   8180e:	e8bd 41f0 	ldmia.w	sp!, {r4, r5, r6, r7, r8, lr}
   81812:	4718      	bx	r3
   81814:	000817b9 	.word	0x000817b9

00081818 <tunerstudio_send_page>:
   81818:	4b13      	ldr	r3, [pc, #76]	; (81868 <tunerstudio_send_page+0x50>)
   8181a:	781b      	ldrb	r3, [r3, #0]
   8181c:	3b01      	subs	r3, #1
   8181e:	2b08      	cmp	r3, #8
   81820:	d820      	bhi.n	81864 <tunerstudio_send_page+0x4c>
   81822:	e8df f003 	tbb	[pc, r3]
   81826:	0705      	.short	0x0705
   81828:	12100d0a 	.word	0x12100d0a
   8182c:	1815      	.short	0x1815
   8182e:	1b          	.byte	0x1b
   8182f:	00          	.byte	0x00
   81830:	480e      	ldr	r0, [pc, #56]	; (8186c <tunerstudio_send_page+0x54>)
   81832:	e003      	b.n	8183c <tunerstudio_send_page+0x24>
   81834:	2142      	movs	r1, #66	; 0x42
   81836:	480e      	ldr	r0, [pc, #56]	; (81870 <tunerstudio_send_page+0x58>)
   81838:	e012      	b.n	81860 <tunerstudio_send_page+0x48>
   8183a:	480e      	ldr	r0, [pc, #56]	; (81874 <tunerstudio_send_page+0x5c>)
   8183c:	4b0e      	ldr	r3, [pc, #56]	; (81878 <tunerstudio_send_page+0x60>)
   8183e:	4718      	bx	r3
   81840:	2140      	movs	r1, #64	; 0x40
   81842:	480e      	ldr	r0, [pc, #56]	; (8187c <tunerstudio_send_page+0x64>)
   81844:	e00c      	b.n	81860 <tunerstudio_send_page+0x48>
   81846:	480e      	ldr	r0, [pc, #56]	; (81880 <tunerstudio_send_page+0x68>)
   81848:	e7f8      	b.n	8183c <tunerstudio_send_page+0x24>
   8184a:	2140      	movs	r1, #64	; 0x40
   8184c:	480d      	ldr	r0, [pc, #52]	; (81884 <tunerstudio_send_page+0x6c>)
   8184e:	e007      	b.n	81860 <tunerstudio_send_page+0x48>
   81850:	2140      	movs	r1, #64	; 0x40
   81852:	480d      	ldr	r0, [pc, #52]	; (81888 <tunerstudio_send_page+0x70>)
   81854:	e004      	b.n	81860 <tunerstudio_send_page+0x48>
   81856:	21a0      	movs	r1, #160	; 0xa0
   81858:	480c      	ldr	r0, [pc, #48]	; (8188c <tunerstudio_send_page+0x74>)
   8185a:	e001      	b.n	81860 <tunerstudio_send_page+0x48>
   8185c:	480c      	ldr	r0, [pc, #48]	; (81890 <tunerstudio_send_page+0x78>)
   8185e:	21c0      	movs	r1, #192	; 0xc0
   81860:	4b0c      	ldr	r3, [pc, #48]	; (81894 <tunerstudio_send_page+0x7c>)
   81862:	4718      	bx	r3
   81864:	4770      	bx	lr
   81866:	bf00      	nop
   81868:	200709d8 	.word	0x200709d8
   8186c:	20070e28 	.word	0x20070e28
   81870:	20070ef8 	.word	0x20070ef8
   81874:	20071c80 	.word	0x20071c80
   81878:	000817e1 	.word	0x000817e1
   8187c:	20070f3a 	.word	0x20070f3a
   81880:	20071c24 	.word	0x20071c24
   81884:	20070998 	.word	0x20070998
   81888:	20071c3e 	.word	0x20071c3e
   8188c:	2007209c 	.word	0x2007209c
   81890:	20070e38 	.word	0x20070e38
   81894:	000817b9 	.word	0x000817b9

00081898 <tunerstudio_write_Table3D>:
   81898:	b510      	push	{r4, lr}
   8189a:	4b0b      	ldr	r3, [pc, #44]	; (818c8 <tunerstudio_write_Table3D+0x30>)
   8189c:	781a      	ldrb	r2, [r3, #0]
   8189e:	4b0b      	ldr	r3, [pc, #44]	; (818cc <tunerstudio_write_Table3D+0x34>)
   818a0:	781b      	ldrb	r3, [r3, #0]
   818a2:	b932      	cbnz	r2, 818b2 <tunerstudio_write_Table3D+0x1a>
   818a4:	6802      	ldr	r2, [r0, #0]
   818a6:	091c      	lsrs	r4, r3, #4
   818a8:	f852 2024 	ldr.w	r2, [r2, r4, lsl #2]
   818ac:	f003 030f 	and.w	r3, r3, #15
   818b0:	e002      	b.n	818b8 <tunerstudio_write_Table3D+0x20>
   818b2:	2b0f      	cmp	r3, #15
   818b4:	d802      	bhi.n	818bc <tunerstudio_write_Table3D+0x24>
   818b6:	6842      	ldr	r2, [r0, #4]
   818b8:	54d1      	strb	r1, [r2, r3]
   818ba:	bd10      	pop	{r4, pc}
   818bc:	6882      	ldr	r2, [r0, #8]
   818be:	4413      	add	r3, r2
   818c0:	f803 1c10 	strb.w	r1, [r3, #-16]
   818c4:	bd10      	pop	{r4, pc}
   818c6:	bf00      	nop
   818c8:	20071c34 	.word	0x20071c34
   818cc:	20071c23 	.word	0x20071c23

000818d0 <tunerstudio_write_data>:
   818d0:	4b17      	ldr	r3, [pc, #92]	; (81930 <tunerstudio_write_data+0x60>)
   818d2:	781b      	ldrb	r3, [r3, #0]
   818d4:	3b01      	subs	r3, #1
   818d6:	2b08      	cmp	r3, #8
   818d8:	d828      	bhi.n	8192c <tunerstudio_write_data+0x5c>
   818da:	e8df f003 	tbb	[pc, r3]
   818de:	0805      	.short	0x0805
   818e0:	17130f0c 	.word	0x17130f0c
   818e4:	1f1b      	.short	0x1f1b
   818e6:	23          	.byte	0x23
   818e7:	00          	.byte	0x00
   818e8:	b2c1      	uxtb	r1, r0
   818ea:	4812      	ldr	r0, [pc, #72]	; (81934 <tunerstudio_write_data+0x64>)
   818ec:	e00c      	b.n	81908 <tunerstudio_write_data+0x38>
   818ee:	4b12      	ldr	r3, [pc, #72]	; (81938 <tunerstudio_write_data+0x68>)
   818f0:	781a      	ldrb	r2, [r3, #0]
   818f2:	4b12      	ldr	r3, [pc, #72]	; (8193c <tunerstudio_write_data+0x6c>)
   818f4:	e019      	b.n	8192a <tunerstudio_write_data+0x5a>
   818f6:	b2c1      	uxtb	r1, r0
   818f8:	4811      	ldr	r0, [pc, #68]	; (81940 <tunerstudio_write_data+0x70>)
   818fa:	e005      	b.n	81908 <tunerstudio_write_data+0x38>
   818fc:	4b0e      	ldr	r3, [pc, #56]	; (81938 <tunerstudio_write_data+0x68>)
   818fe:	781a      	ldrb	r2, [r3, #0]
   81900:	4b10      	ldr	r3, [pc, #64]	; (81944 <tunerstudio_write_data+0x74>)
   81902:	e012      	b.n	8192a <tunerstudio_write_data+0x5a>
   81904:	b2c1      	uxtb	r1, r0
   81906:	4810      	ldr	r0, [pc, #64]	; (81948 <tunerstudio_write_data+0x78>)
   81908:	4b10      	ldr	r3, [pc, #64]	; (8194c <tunerstudio_write_data+0x7c>)
   8190a:	4718      	bx	r3
   8190c:	4b0a      	ldr	r3, [pc, #40]	; (81938 <tunerstudio_write_data+0x68>)
   8190e:	781a      	ldrb	r2, [r3, #0]
   81910:	4b0f      	ldr	r3, [pc, #60]	; (81950 <tunerstudio_write_data+0x80>)
   81912:	e00a      	b.n	8192a <tunerstudio_write_data+0x5a>
   81914:	4b08      	ldr	r3, [pc, #32]	; (81938 <tunerstudio_write_data+0x68>)
   81916:	781a      	ldrb	r2, [r3, #0]
   81918:	4b0e      	ldr	r3, [pc, #56]	; (81954 <tunerstudio_write_data+0x84>)
   8191a:	e006      	b.n	8192a <tunerstudio_write_data+0x5a>
   8191c:	4b06      	ldr	r3, [pc, #24]	; (81938 <tunerstudio_write_data+0x68>)
   8191e:	781a      	ldrb	r2, [r3, #0]
   81920:	4b0d      	ldr	r3, [pc, #52]	; (81958 <tunerstudio_write_data+0x88>)
   81922:	e002      	b.n	8192a <tunerstudio_write_data+0x5a>
   81924:	4b04      	ldr	r3, [pc, #16]	; (81938 <tunerstudio_write_data+0x68>)
   81926:	781a      	ldrb	r2, [r3, #0]
   81928:	4b0c      	ldr	r3, [pc, #48]	; (8195c <tunerstudio_write_data+0x8c>)
   8192a:	54d0      	strb	r0, [r2, r3]
   8192c:	4770      	bx	lr
   8192e:	bf00      	nop
   81930:	200709d8 	.word	0x200709d8
   81934:	20070e28 	.word	0x20070e28
   81938:	20071c23 	.word	0x20071c23
   8193c:	20070ef8 	.word	0x20070ef8
   81940:	20071c80 	.word	0x20071c80
   81944:	20070f3a 	.word	0x20070f3a
   81948:	20071c24 	.word	0x20071c24
   8194c:	00081899 	.word	0x00081899
   81950:	20070998 	.word	0x20070998
   81954:	20071c3e 	.word	0x20071c3e
   81958:	2007209c 	.word	0x2007209c
   8195c:	20070e38 	.word	0x20070e38

00081960 <tunerstudio_burn_value_if_changed>:
   81960:	b570      	push	{r4, r5, r6, lr}
   81962:	4b07      	ldr	r3, [pc, #28]	; (81980 <tunerstudio_burn_value_if_changed+0x20>)
   81964:	4605      	mov	r5, r0
   81966:	4608      	mov	r0, r1
   81968:	460c      	mov	r4, r1
   8196a:	4798      	blx	r3
   8196c:	42a8      	cmp	r0, r5
   8196e:	d005      	beq.n	8197c <tunerstudio_burn_value_if_changed+0x1c>
   81970:	b2e9      	uxtb	r1, r5
   81972:	4620      	mov	r0, r4
   81974:	e8bd 4070 	ldmia.w	sp!, {r4, r5, r6, lr}
   81978:	4b02      	ldr	r3, [pc, #8]	; (81984 <tunerstudio_burn_value_if_changed+0x24>)
   8197a:	4718      	bx	r3
   8197c:	bd70      	pop	{r4, r5, r6, pc}
   8197e:	bf00      	nop
   81980:	00080d75 	.word	0x00080d75
   81984:	00080199 	.word	0x00080199

00081988 <tunerstudio_burn_struct>:
   81988:	e92d 41f0 	stmdb	sp!, {r4, r5, r6, r7, r8, lr}
   8198c:	4b0c      	ldr	r3, [pc, #48]	; (819c0 <tunerstudio_burn_struct+0x38>)
   8198e:	7fdb      	ldrb	r3, [r3, #31]
   81990:	2b01      	cmp	r3, #1
   81992:	d005      	beq.n	819a0 <tunerstudio_burn_struct+0x18>
   81994:	4411      	add	r1, r2
   81996:	1e46      	subs	r6, r0, #1
   81998:	b28d      	uxth	r5, r1
   8199a:	4614      	mov	r4, r2
   8199c:	4f09      	ldr	r7, [pc, #36]	; (819c4 <tunerstudio_burn_struct+0x3c>)
   8199e:	e004      	b.n	819aa <tunerstudio_burn_struct+0x22>
   819a0:	4809      	ldr	r0, [pc, #36]	; (819c8 <tunerstudio_burn_struct+0x40>)
   819a2:	4b0a      	ldr	r3, [pc, #40]	; (819cc <tunerstudio_burn_struct+0x44>)
   819a4:	e8bd 41f0 	ldmia.w	sp!, {r4, r5, r6, r7, r8, lr}
   819a8:	4718      	bx	r3
   819aa:	42ac      	cmp	r4, r5
   819ac:	d006      	beq.n	819bc <tunerstudio_burn_struct+0x34>
   819ae:	4621      	mov	r1, r4
   819b0:	f816 0f01 	ldrb.w	r0, [r6, #1]!
   819b4:	3401      	adds	r4, #1
   819b6:	47b8      	blx	r7
   819b8:	b2a4      	uxth	r4, r4
   819ba:	e7f6      	b.n	819aa <tunerstudio_burn_struct+0x22>
   819bc:	e8bd 81f0 	ldmia.w	sp!, {r4, r5, r6, r7, r8, pc}
   819c0:	2007137a 	.word	0x2007137a
   819c4:	00081961 	.word	0x00081961
   819c8:	000833e7 	.word	0x000833e7
   819cc:	00081fd5 	.word	0x00081fd5

000819d0 <tunerstudio_burn_Table3D>:
   819d0:	e92d 41f0 	stmdb	sp!, {r4, r5, r6, r7, r8, lr}
   819d4:	4b15      	ldr	r3, [pc, #84]	; (81a2c <tunerstudio_burn_Table3D+0x5c>)
   819d6:	4604      	mov	r4, r0
   819d8:	7fdb      	ldrb	r3, [r3, #31]
   819da:	460d      	mov	r5, r1
   819dc:	2b01      	cmp	r3, #1
   819de:	d003      	beq.n	819e8 <tunerstudio_burn_Table3D+0x18>
   819e0:	2300      	movs	r3, #0
   819e2:	f8df 8054 	ldr.w	r8, [pc, #84]	; 81a38 <tunerstudio_burn_Table3D+0x68>
   819e6:	e004      	b.n	819f2 <tunerstudio_burn_Table3D+0x22>
   819e8:	4811      	ldr	r0, [pc, #68]	; (81a30 <tunerstudio_burn_Table3D+0x60>)
   819ea:	4b12      	ldr	r3, [pc, #72]	; (81a34 <tunerstudio_burn_Table3D+0x64>)
   819ec:	e8bd 41f0 	ldmia.w	sp!, {r4, r5, r6, r7, r8, lr}
   819f0:	4718      	bx	r3
   819f2:	7b62      	ldrb	r2, [r4, #13]
   819f4:	1c5f      	adds	r7, r3, #1
   819f6:	b2db      	uxtb	r3, r3
   819f8:	429a      	cmp	r2, r3
   819fa:	7b21      	ldrb	r1, [r4, #12]
   819fc:	4e0e      	ldr	r6, [pc, #56]	; (81a38 <tunerstudio_burn_Table3D+0x68>)
   819fe:	d909      	bls.n	81a14 <tunerstudio_burn_Table3D+0x44>
   81a00:	6820      	ldr	r0, [r4, #0]
   81a02:	462a      	mov	r2, r5
   81a04:	f850 0023 	ldr.w	r0, [r0, r3, lsl #2]
   81a08:	47c0      	blx	r8
   81a0a:	7b22      	ldrb	r2, [r4, #12]
   81a0c:	463b      	mov	r3, r7
   81a0e:	4415      	add	r5, r2
   81a10:	b2ad      	uxth	r5, r5
   81a12:	e7ee      	b.n	819f2 <tunerstudio_burn_Table3D+0x22>
   81a14:	462a      	mov	r2, r5
   81a16:	6860      	ldr	r0, [r4, #4]
   81a18:	47b0      	blx	r6
   81a1a:	7b22      	ldrb	r2, [r4, #12]
   81a1c:	7b61      	ldrb	r1, [r4, #13]
   81a1e:	442a      	add	r2, r5
   81a20:	68a0      	ldr	r0, [r4, #8]
   81a22:	4633      	mov	r3, r6
   81a24:	e8bd 41f0 	ldmia.w	sp!, {r4, r5, r6, r7, r8, lr}
   81a28:	b292      	uxth	r2, r2
   81a2a:	4718      	bx	r3
   81a2c:	2007137a 	.word	0x2007137a
   81a30:	000833e7 	.word	0x000833e7
   81a34:	00081fd5 	.word	0x00081fd5
   81a38:	00081989 	.word	0x00081989

00081a3c <tunerstudio_burn_page_eeprom>:
   81a3c:	4b1b      	ldr	r3, [pc, #108]	; (81aac <tunerstudio_burn_page_eeprom+0x70>)
   81a3e:	781b      	ldrb	r3, [r3, #0]
   81a40:	3b01      	subs	r3, #1
   81a42:	2b08      	cmp	r3, #8
   81a44:	d831      	bhi.n	81aaa <tunerstudio_burn_page_eeprom+0x6e>
   81a46:	e8df f003 	tbb	[pc, r3]
   81a4a:	0805      	.short	0x0805
   81a4c:	1b17120d 	.word	0x1b17120d
   81a50:	2520      	.short	0x2520
   81a52:	2a          	.byte	0x2a
   81a53:	00          	.byte	0x00
   81a54:	2100      	movs	r1, #0
   81a56:	4816      	ldr	r0, [pc, #88]	; (81ab0 <tunerstudio_burn_page_eeprom+0x74>)
   81a58:	e007      	b.n	81a6a <tunerstudio_burn_page_eeprom+0x2e>
   81a5a:	f241 3288 	movw	r2, #5000	; 0x1388
   81a5e:	2142      	movs	r1, #66	; 0x42
   81a60:	4814      	ldr	r0, [pc, #80]	; (81ab4 <tunerstudio_burn_page_eeprom+0x78>)
   81a62:	e020      	b.n	81aa6 <tunerstudio_burn_page_eeprom+0x6a>
   81a64:	4814      	ldr	r0, [pc, #80]	; (81ab8 <tunerstudio_burn_page_eeprom+0x7c>)
   81a66:	f44f 7110 	mov.w	r1, #576	; 0x240
   81a6a:	4b14      	ldr	r3, [pc, #80]	; (81abc <tunerstudio_burn_page_eeprom+0x80>)
   81a6c:	4718      	bx	r3
   81a6e:	f241 4250 	movw	r2, #5200	; 0x1450
   81a72:	2140      	movs	r1, #64	; 0x40
   81a74:	4812      	ldr	r0, [pc, #72]	; (81ac0 <tunerstudio_burn_page_eeprom+0x84>)
   81a76:	e016      	b.n	81aa6 <tunerstudio_burn_page_eeprom+0x6a>
   81a78:	f44f 7190 	mov.w	r1, #288	; 0x120
   81a7c:	4811      	ldr	r0, [pc, #68]	; (81ac4 <tunerstudio_burn_page_eeprom+0x88>)
   81a7e:	e7f4      	b.n	81a6a <tunerstudio_burn_page_eeprom+0x2e>
   81a80:	f241 5218 	movw	r2, #5400	; 0x1518
   81a84:	2140      	movs	r1, #64	; 0x40
   81a86:	4810      	ldr	r0, [pc, #64]	; (81ac8 <tunerstudio_burn_page_eeprom+0x8c>)
   81a88:	e00d      	b.n	81aa6 <tunerstudio_burn_page_eeprom+0x6a>
   81a8a:	f44f 52af 	mov.w	r2, #5600	; 0x15e0
   81a8e:	2140      	movs	r1, #64	; 0x40
   81a90:	480e      	ldr	r0, [pc, #56]	; (81acc <tunerstudio_burn_page_eeprom+0x90>)
   81a92:	e008      	b.n	81aa6 <tunerstudio_burn_page_eeprom+0x6a>
   81a94:	f241 62a8 	movw	r2, #5800	; 0x16a8
   81a98:	21a0      	movs	r1, #160	; 0xa0
   81a9a:	480d      	ldr	r0, [pc, #52]	; (81ad0 <tunerstudio_burn_page_eeprom+0x94>)
   81a9c:	e003      	b.n	81aa6 <tunerstudio_burn_page_eeprom+0x6a>
   81a9e:	f241 7270 	movw	r2, #6000	; 0x1770
   81aa2:	480c      	ldr	r0, [pc, #48]	; (81ad4 <tunerstudio_burn_page_eeprom+0x98>)
   81aa4:	21c0      	movs	r1, #192	; 0xc0
   81aa6:	4b0c      	ldr	r3, [pc, #48]	; (81ad8 <tunerstudio_burn_page_eeprom+0x9c>)
   81aa8:	4718      	bx	r3
   81aaa:	4770      	bx	lr
   81aac:	200709d8 	.word	0x200709d8
   81ab0:	20070e28 	.word	0x20070e28
   81ab4:	20070ef8 	.word	0x20070ef8
   81ab8:	20071c80 	.word	0x20071c80
   81abc:	000819d1 	.word	0x000819d1
   81ac0:	20070f3a 	.word	0x20070f3a
   81ac4:	20071c24 	.word	0x20071c24
   81ac8:	20070998 	.word	0x20070998
   81acc:	20071c3e 	.word	0x20071c3e
   81ad0:	2007209c 	.word	0x2007209c
   81ad4:	20070e38 	.word	0x20070e38
   81ad8:	00081989 	.word	0x00081989

00081adc <tunerstudio_update_calib_vect_helper>:
   81adc:	e92d 4ff8 	stmdb	sp!, {r3, r4, r5, r6, r7, r8, r9, sl, fp, lr}
   81ae0:	4680      	mov	r8, r0
   81ae2:	4689      	mov	r9, r1
   81ae4:	4e16      	ldr	r6, [pc, #88]	; (81b40 <tunerstudio_update_calib_vect_helper+0x64>)
   81ae6:	4f17      	ldr	r7, [pc, #92]	; (81b44 <tunerstudio_update_calib_vect_helper+0x68>)
   81ae8:	2400      	movs	r4, #0
   81aea:	f04f 0a09 	mov.w	sl, #9
   81aee:	47b0      	blx	r6
   81af0:	eb09 0504 	add.w	r5, r9, r4
   81af4:	f1b8 0f01 	cmp.w	r8, #1
   81af8:	b2ad      	uxth	r5, r5
   81afa:	4683      	mov	fp, r0
   81afc:	d101      	bne.n	81b02 <tunerstudio_update_calib_vect_helper+0x26>
   81afe:	b201      	sxth	r1, r0
   81b00:	e011      	b.n	81b26 <tunerstudio_update_calib_vect_helper+0x4a>
   81b02:	47b0      	blx	r6
   81b04:	ea4b 2000 	orr.w	r0, fp, r0, lsl #8
   81b08:	b201      	sxth	r1, r0
   81b0a:	f5a1 71a0 	sub.w	r1, r1, #320	; 0x140
   81b0e:	eb01 0181 	add.w	r1, r1, r1, lsl #2
   81b12:	fb91 f1fa 	sdiv	r1, r1, sl
   81b16:	230a      	movs	r3, #10
   81b18:	b209      	sxth	r1, r1
   81b1a:	fb91 f1f3 	sdiv	r1, r1, r3
   81b1e:	3128      	adds	r1, #40	; 0x28
   81b20:	b209      	sxth	r1, r1
   81b22:	29ff      	cmp	r1, #255	; 0xff
   81b24:	dc02      	bgt.n	81b2c <tunerstudio_update_calib_vect_helper+0x50>
   81b26:	ea21 71e1 	bic.w	r1, r1, r1, asr #31
   81b2a:	e000      	b.n	81b2e <tunerstudio_update_calib_vect_helper+0x52>
   81b2c:	21ff      	movs	r1, #255	; 0xff
   81b2e:	b2c9      	uxtb	r1, r1
   81b30:	4628      	mov	r0, r5
   81b32:	3401      	adds	r4, #1
   81b34:	47b8      	blx	r7
   81b36:	f5b4 6f80 	cmp.w	r4, #1024	; 0x400
   81b3a:	d1d8      	bne.n	81aee <tunerstudio_update_calib_vect_helper+0x12>
   81b3c:	e8bd 8ff8 	ldmia.w	sp!, {r3, r4, r5, r6, r7, r8, r9, sl, fp, pc}
   81b40:	00082095 	.word	0x00082095
   81b44:	00080199 	.word	0x00080199

00081b48 <tunerstudio_update_calib_vect>:
   81b48:	b570      	push	{r4, r5, r6, lr}
   81b4a:	4c12      	ldr	r4, [pc, #72]	; (81b94 <tunerstudio_update_calib_vect+0x4c>)
   81b4c:	4d12      	ldr	r5, [pc, #72]	; (81b98 <tunerstudio_update_calib_vect+0x50>)
   81b4e:	8822      	ldrh	r2, [r4, #0]
   81b50:	882b      	ldrh	r3, [r5, #0]
   81b52:	b292      	uxth	r2, r2
   81b54:	b29b      	uxth	r3, r3
   81b56:	429a      	cmp	r2, r3
   81b58:	d006      	beq.n	81b68 <tunerstudio_update_calib_vect+0x20>
   81b5a:	4b10      	ldr	r3, [pc, #64]	; (81b9c <tunerstudio_update_calib_vect+0x54>)
   81b5c:	4810      	ldr	r0, [pc, #64]	; (81ba0 <tunerstudio_update_calib_vect+0x58>)
   81b5e:	4798      	blx	r3
   81b60:	2300      	movs	r3, #0
   81b62:	802b      	strh	r3, [r5, #0]
   81b64:	8023      	strh	r3, [r4, #0]
   81b66:	bd70      	pop	{r4, r5, r6, pc}
   81b68:	4b0e      	ldr	r3, [pc, #56]	; (81ba4 <tunerstudio_update_calib_vect+0x5c>)
   81b6a:	4798      	blx	r3
   81b6c:	2801      	cmp	r0, #1
   81b6e:	d006      	beq.n	81b7e <tunerstudio_update_calib_vect+0x36>
   81b70:	d302      	bcc.n	81b78 <tunerstudio_update_calib_vect+0x30>
   81b72:	2802      	cmp	r0, #2
   81b74:	d007      	beq.n	81b86 <tunerstudio_update_calib_vect+0x3e>
   81b76:	bd70      	pop	{r4, r5, r6, pc}
   81b78:	f44f 7158 	mov.w	r1, #864	; 0x360
   81b7c:	e001      	b.n	81b82 <tunerstudio_update_calib_vect+0x3a>
   81b7e:	f44f 61ec 	mov.w	r1, #1888	; 0x760
   81b82:	2002      	movs	r0, #2
   81b84:	e002      	b.n	81b8c <tunerstudio_update_calib_vect+0x44>
   81b86:	f44f 6136 	mov.w	r1, #2912	; 0xb60
   81b8a:	2001      	movs	r0, #1
   81b8c:	4b06      	ldr	r3, [pc, #24]	; (81ba8 <tunerstudio_update_calib_vect+0x60>)
   81b8e:	e8bd 4070 	ldmia.w	sp!, {r4, r5, r6, lr}
   81b92:	4718      	bx	r3
   81b94:	200713aa 	.word	0x200713aa
   81b98:	200717ac 	.word	0x200717ac
   81b9c:	00081fd5 	.word	0x00081fd5
   81ba0:	000833f4 	.word	0x000833f4
   81ba4:	00082095 	.word	0x00082095
   81ba8:	00081add 	.word	0x00081add

00081bac <tunerstudio_debug_global_function>:
   81bac:	e92d 41f0 	stmdb	sp!, {r4, r5, r6, r7, r8, lr}
   81bb0:	f8df 810c 	ldr.w	r8, [pc, #268]	; 81cc0 <tunerstudio_debug_global_function+0x114>
   81bb4:	4e2d      	ldr	r6, [pc, #180]	; (81c6c <tunerstudio_debug_global_function+0xc0>)
   81bb6:	482e      	ldr	r0, [pc, #184]	; (81c70 <tunerstudio_debug_global_function+0xc4>)
   81bb8:	47b0      	blx	r6
   81bba:	f8b8 003e 	ldrh.w	r0, [r8, #62]	; 0x3e
   81bbe:	4d2d      	ldr	r5, [pc, #180]	; (81c74 <tunerstudio_debug_global_function+0xc8>)
   81bc0:	4c2d      	ldr	r4, [pc, #180]	; (81c78 <tunerstudio_debug_global_function+0xcc>)
   81bc2:	b280      	uxth	r0, r0
   81bc4:	47a8      	blx	r5
   81bc6:	47a0      	blx	r4
   81bc8:	482c      	ldr	r0, [pc, #176]	; (81c7c <tunerstudio_debug_global_function+0xd0>)
   81bca:	47b0      	blx	r6
   81bcc:	f898 003d 	ldrb.w	r0, [r8, #61]	; 0x3d
   81bd0:	47a8      	blx	r5
   81bd2:	47a0      	blx	r4
   81bd4:	482a      	ldr	r0, [pc, #168]	; (81c80 <tunerstudio_debug_global_function+0xd4>)
   81bd6:	47b0      	blx	r6
   81bd8:	f898 003c 	ldrb.w	r0, [r8, #60]	; 0x3c
   81bdc:	47a8      	blx	r5
   81bde:	47a0      	blx	r4
   81be0:	4828      	ldr	r0, [pc, #160]	; (81c84 <tunerstudio_debug_global_function+0xd8>)
   81be2:	4f29      	ldr	r7, [pc, #164]	; (81c88 <tunerstudio_debug_global_function+0xdc>)
   81be4:	47b0      	blx	r6
   81be6:	f898 003b 	ldrb.w	r0, [r8, #59]	; 0x3b
   81bea:	47a8      	blx	r5
   81bec:	47a0      	blx	r4
   81bee:	4827      	ldr	r0, [pc, #156]	; (81c8c <tunerstudio_debug_global_function+0xe0>)
   81bf0:	47b0      	blx	r6
   81bf2:	79f8      	ldrb	r0, [r7, #7]
   81bf4:	47a8      	blx	r5
   81bf6:	47a0      	blx	r4
   81bf8:	4825      	ldr	r0, [pc, #148]	; (81c90 <tunerstudio_debug_global_function+0xe4>)
   81bfa:	47b0      	blx	r6
   81bfc:	79b8      	ldrb	r0, [r7, #6]
   81bfe:	47a8      	blx	r5
   81c00:	47a0      	blx	r4
   81c02:	4824      	ldr	r0, [pc, #144]	; (81c94 <tunerstudio_debug_global_function+0xe8>)
   81c04:	47b0      	blx	r6
   81c06:	7ab8      	ldrb	r0, [r7, #10]
   81c08:	47a8      	blx	r5
   81c0a:	47a0      	blx	r4
   81c0c:	4822      	ldr	r0, [pc, #136]	; (81c98 <tunerstudio_debug_global_function+0xec>)
   81c0e:	47b0      	blx	r6
   81c10:	88b8      	ldrh	r0, [r7, #4]
   81c12:	b280      	uxth	r0, r0
   81c14:	47a8      	blx	r5
   81c16:	47a0      	blx	r4
   81c18:	4820      	ldr	r0, [pc, #128]	; (81c9c <tunerstudio_debug_global_function+0xf0>)
   81c1a:	47b0      	blx	r6
   81c1c:	7e38      	ldrb	r0, [r7, #24]
   81c1e:	47a8      	blx	r5
   81c20:	47a0      	blx	r4
   81c22:	481f      	ldr	r0, [pc, #124]	; (81ca0 <tunerstudio_debug_global_function+0xf4>)
   81c24:	47b0      	blx	r6
   81c26:	89f8      	ldrh	r0, [r7, #14]
   81c28:	b280      	uxth	r0, r0
   81c2a:	47a8      	blx	r5
   81c2c:	47a0      	blx	r4
   81c2e:	481d      	ldr	r0, [pc, #116]	; (81ca4 <tunerstudio_debug_global_function+0xf8>)
   81c30:	47b0      	blx	r6
   81c32:	7ff8      	ldrb	r0, [r7, #31]
   81c34:	47a8      	blx	r5
   81c36:	47a0      	blx	r4
   81c38:	481b      	ldr	r0, [pc, #108]	; (81ca8 <tunerstudio_debug_global_function+0xfc>)
   81c3a:	47b0      	blx	r6
   81c3c:	481b      	ldr	r0, [pc, #108]	; (81cac <tunerstudio_debug_global_function+0x100>)
   81c3e:	47a8      	blx	r5
   81c40:	47a0      	blx	r4
   81c42:	481b      	ldr	r0, [pc, #108]	; (81cb0 <tunerstudio_debug_global_function+0x104>)
   81c44:	47b0      	blx	r6
   81c46:	f898 0000 	ldrb.w	r0, [r8]
   81c4a:	47a8      	blx	r5
   81c4c:	47a0      	blx	r4
   81c4e:	4819      	ldr	r0, [pc, #100]	; (81cb4 <tunerstudio_debug_global_function+0x108>)
   81c50:	47b0      	blx	r6
   81c52:	f898 0001 	ldrb.w	r0, [r8, #1]
   81c56:	47a8      	blx	r5
   81c58:	47a0      	blx	r4
   81c5a:	4817      	ldr	r0, [pc, #92]	; (81cb8 <tunerstudio_debug_global_function+0x10c>)
   81c5c:	47b0      	blx	r6
   81c5e:	4b17      	ldr	r3, [pc, #92]	; (81cbc <tunerstudio_debug_global_function+0x110>)
   81c60:	6818      	ldr	r0, [r3, #0]
   81c62:	47a8      	blx	r5
   81c64:	4623      	mov	r3, r4
   81c66:	e8bd 41f0 	ldmia.w	sp!, {r4, r5, r6, r7, r8, lr}
   81c6a:	4718      	bx	r3
   81c6c:	00081fd5 	.word	0x00081fd5
   81c70:	0008340d 	.word	0x0008340d
   81c74:	00081f85 	.word	0x00081f85
   81c78:	00081fc9 	.word	0x00081fc9
   81c7c:	00083418 	.word	0x00083418
   81c80:	00083422 	.word	0x00083422
   81c84:	0008342d 	.word	0x0008342d
   81c88:	2007137a 	.word	0x2007137a
   81c8c:	00083437 	.word	0x00083437
   81c90:	0008343d 	.word	0x0008343d
   81c94:	00083443 	.word	0x00083443
   81c98:	00083449 	.word	0x00083449
   81c9c:	0008344f 	.word	0x0008344f
   81ca0:	00083455 	.word	0x00083455
   81ca4:	0008345b 	.word	0x0008345b
   81ca8:	00083466 	.word	0x00083466
   81cac:	00033ba8 	.word	0x00033ba8
   81cb0:	00083473 	.word	0x00083473
   81cb4:	00083489 	.word	0x00083489
   81cb8:	000834a2 	.word	0x000834a2
   81cbc:	20072150 	.word	0x20072150
   81cc0:	20070ef8 	.word	0x20070ef8

00081cc4 <tunerstudio_command>:
   81cc4:	b570      	push	{r4, r5, r6, lr}
   81cc6:	4a3b      	ldr	r2, [pc, #236]	; (81db4 <tunerstudio_command+0xf0>)
   81cc8:	7813      	ldrb	r3, [r2, #0]
   81cca:	b11b      	cbz	r3, 81cd4 <tunerstudio_command+0x10>
   81ccc:	4b3a      	ldr	r3, [pc, #232]	; (81db8 <tunerstudio_command+0xf4>)
   81cce:	7018      	strb	r0, [r3, #0]
   81cd0:	2300      	movs	r3, #0
   81cd2:	e057      	b.n	81d84 <tunerstudio_command+0xc0>
   81cd4:	4b39      	ldr	r3, [pc, #228]	; (81dbc <tunerstudio_command+0xf8>)
   81cd6:	7819      	ldrb	r1, [r3, #0]
   81cd8:	461e      	mov	r6, r3
   81cda:	b1e9      	cbz	r1, 81d18 <tunerstudio_command+0x54>
   81cdc:	4b38      	ldr	r3, [pc, #224]	; (81dc0 <tunerstudio_command+0xfc>)
   81cde:	781a      	ldrb	r2, [r3, #0]
   81ce0:	461d      	mov	r5, r3
   81ce2:	b912      	cbnz	r2, 81cea <tunerstudio_command+0x26>
   81ce4:	4a37      	ldr	r2, [pc, #220]	; (81dc4 <tunerstudio_command+0x100>)
   81ce6:	7010      	strb	r0, [r2, #0]
   81ce8:	e054      	b.n	81d94 <tunerstudio_command+0xd0>
   81cea:	4b33      	ldr	r3, [pc, #204]	; (81db8 <tunerstudio_command+0xf4>)
   81cec:	4c36      	ldr	r4, [pc, #216]	; (81dc8 <tunerstudio_command+0x104>)
   81cee:	781b      	ldrb	r3, [r3, #0]
   81cf0:	f003 01fd 	and.w	r1, r3, #253	; 0xfd
   81cf4:	2901      	cmp	r1, #1
   81cf6:	d001      	beq.n	81cfc <tunerstudio_command+0x38>
   81cf8:	2b05      	cmp	r3, #5
   81cfa:	d105      	bne.n	81d08 <tunerstudio_command+0x44>
   81cfc:	2a02      	cmp	r2, #2
   81cfe:	d003      	beq.n	81d08 <tunerstudio_command+0x44>
   81d00:	2302      	movs	r3, #2
   81d02:	7020      	strb	r0, [r4, #0]
   81d04:	702b      	strb	r3, [r5, #0]
   81d06:	bd70      	pop	{r4, r5, r6, pc}
   81d08:	4b30      	ldr	r3, [pc, #192]	; (81dcc <tunerstudio_command+0x108>)
   81d0a:	4798      	blx	r3
   81d0c:	2300      	movs	r3, #0
   81d0e:	7033      	strb	r3, [r6, #0]
   81d10:	702b      	strb	r3, [r5, #0]
   81d12:	7023      	strb	r3, [r4, #0]
   81d14:	4a2b      	ldr	r2, [pc, #172]	; (81dc4 <tunerstudio_command+0x100>)
   81d16:	e035      	b.n	81d84 <tunerstudio_command+0xc0>
   81d18:	2850      	cmp	r0, #80	; 0x50
   81d1a:	d032      	beq.n	81d82 <tunerstudio_command+0xbe>
   81d1c:	d80c      	bhi.n	81d38 <tunerstudio_command+0x74>
   81d1e:	2843      	cmp	r0, #67	; 0x43
   81d20:	d028      	beq.n	81d74 <tunerstudio_command+0xb0>
   81d22:	d804      	bhi.n	81d2e <tunerstudio_command+0x6a>
   81d24:	2841      	cmp	r0, #65	; 0x41
   81d26:	d014      	beq.n	81d52 <tunerstudio_command+0x8e>
   81d28:	2842      	cmp	r0, #66	; 0x42
   81d2a:	d021      	beq.n	81d70 <tunerstudio_command+0xac>
   81d2c:	bd70      	pop	{r4, r5, r6, pc}
   81d2e:	2844      	cmp	r0, #68	; 0x44
   81d30:	d03b      	beq.n	81daa <tunerstudio_command+0xe6>
   81d32:	2846      	cmp	r0, #70	; 0x46
   81d34:	d020      	beq.n	81d78 <tunerstudio_command+0xb4>
   81d36:	bd70      	pop	{r4, r5, r6, pc}
   81d38:	2856      	cmp	r0, #86	; 0x56
   81d3a:	d029      	beq.n	81d90 <tunerstudio_command+0xcc>
   81d3c:	d804      	bhi.n	81d48 <tunerstudio_command+0x84>
   81d3e:	2851      	cmp	r0, #81	; 0x51
   81d40:	d024      	beq.n	81d8c <tunerstudio_command+0xc8>
   81d42:	2853      	cmp	r0, #83	; 0x53
   81d44:	d020      	beq.n	81d88 <tunerstudio_command+0xc4>
   81d46:	bd70      	pop	{r4, r5, r6, pc}
   81d48:	2857      	cmp	r0, #87	; 0x57
   81d4a:	d023      	beq.n	81d94 <tunerstudio_command+0xd0>
   81d4c:	2874      	cmp	r0, #116	; 0x74
   81d4e:	d024      	beq.n	81d9a <tunerstudio_command+0xd6>
   81d50:	bd70      	pop	{r4, r5, r6, pc}
   81d52:	4b1f      	ldr	r3, [pc, #124]	; (81dd0 <tunerstudio_command+0x10c>)
   81d54:	f44f 727a 	mov.w	r2, #1000	; 0x3e8
   81d58:	681b      	ldr	r3, [r3, #0]
   81d5a:	481e      	ldr	r0, [pc, #120]	; (81dd4 <tunerstudio_command+0x110>)
   81d5c:	fbb3 f3f2 	udiv	r3, r3, r2
   81d60:	b2db      	uxtb	r3, r3
   81d62:	f880 3021 	strb.w	r3, [r0, #33]	; 0x21
   81d66:	2122      	movs	r1, #34	; 0x22
   81d68:	4b1b      	ldr	r3, [pc, #108]	; (81dd8 <tunerstudio_command+0x114>)
   81d6a:	e8bd 4070 	ldmia.w	sp!, {r4, r5, r6, lr}
   81d6e:	4718      	bx	r3
   81d70:	4b1a      	ldr	r3, [pc, #104]	; (81ddc <tunerstudio_command+0x118>)
   81d72:	e01b      	b.n	81dac <tunerstudio_command+0xe8>
   81d74:	2001      	movs	r0, #1
   81d76:	e000      	b.n	81d7a <tunerstudio_command+0xb6>
   81d78:	4819      	ldr	r0, [pc, #100]	; (81de0 <tunerstudio_command+0x11c>)
   81d7a:	4b1a      	ldr	r3, [pc, #104]	; (81de4 <tunerstudio_command+0x120>)
   81d7c:	e8bd 4070 	ldmia.w	sp!, {r4, r5, r6, lr}
   81d80:	4718      	bx	r3
   81d82:	2301      	movs	r3, #1
   81d84:	7013      	strb	r3, [r2, #0]
   81d86:	bd70      	pop	{r4, r5, r6, pc}
   81d88:	4817      	ldr	r0, [pc, #92]	; (81de8 <tunerstudio_command+0x124>)
   81d8a:	e7f6      	b.n	81d7a <tunerstudio_command+0xb6>
   81d8c:	4817      	ldr	r0, [pc, #92]	; (81dec <tunerstudio_command+0x128>)
   81d8e:	e7f4      	b.n	81d7a <tunerstudio_command+0xb6>
   81d90:	4b17      	ldr	r3, [pc, #92]	; (81df0 <tunerstudio_command+0x12c>)
   81d92:	e00b      	b.n	81dac <tunerstudio_command+0xe8>
   81d94:	2201      	movs	r2, #1
   81d96:	701a      	strb	r2, [r3, #0]
   81d98:	bd70      	pop	{r4, r5, r6, pc}
   81d9a:	4b16      	ldr	r3, [pc, #88]	; (81df4 <tunerstudio_command+0x130>)
   81d9c:	4798      	blx	r3
   81d9e:	4b16      	ldr	r3, [pc, #88]	; (81df8 <tunerstudio_command+0x134>)
   81da0:	4798      	blx	r3
   81da2:	e8bd 4070 	ldmia.w	sp!, {r4, r5, r6, lr}
   81da6:	4b15      	ldr	r3, [pc, #84]	; (81dfc <tunerstudio_command+0x138>)
   81da8:	4718      	bx	r3
   81daa:	4b15      	ldr	r3, [pc, #84]	; (81e00 <tunerstudio_command+0x13c>)
   81dac:	e8bd 4070 	ldmia.w	sp!, {r4, r5, r6, lr}
   81db0:	4718      	bx	r3
   81db2:	bf00      	nop
   81db4:	2007214d 	.word	0x2007214d
   81db8:	200709d8 	.word	0x200709d8
   81dbc:	2007098e 	.word	0x2007098e
   81dc0:	20071c22 	.word	0x20071c22
   81dc4:	20071c23 	.word	0x20071c23
   81dc8:	20071c34 	.word	0x20071c34
   81dcc:	000818d1 	.word	0x000818d1
   81dd0:	20072150 	.word	0x20072150
   81dd4:	2007137a 	.word	0x2007137a
   81dd8:	000820a9 	.word	0x000820a9
   81ddc:	00081a3d 	.word	0x00081a3d
   81de0:	000834ab 	.word	0x000834ab
   81de4:	00081e95 	.word	0x00081e95
   81de8:	000834af 	.word	0x000834af
   81dec:	000834d2 	.word	0x000834d2
   81df0:	00081819 	.word	0x00081819
   81df4:	00081f19 	.word	0x00081f19
   81df8:	00081b49 	.word	0x00081b49
   81dfc:	00081efd 	.word	0x00081efd
   81e00:	00081bad 	.word	0x00081bad

00081e04 <uart_init>:
   81e04:	4b0a      	ldr	r3, [pc, #40]	; (81e30 <uart_init+0x2c>)
   81e06:	f44f 7280 	mov.w	r2, #256	; 0x100
   81e0a:	611a      	str	r2, [r3, #16]
   81e0c:	2250      	movs	r2, #80	; 0x50
   81e0e:	f8c3 2200 	str.w	r2, [r3, #512]	; 0x200
   81e12:	f44f 6200 	mov.w	r2, #2048	; 0x800
   81e16:	f8c3 2204 	str.w	r2, [r3, #516]	; 0x204
   81e1a:	222d      	movs	r2, #45	; 0x2d
   81e1c:	f8c3 2220 	str.w	r2, [r3, #544]	; 0x220
   81e20:	f64f 72ff 	movw	r2, #65535	; 0xffff
   81e24:	f8c3 220c 	str.w	r2, [r3, #524]	; 0x20c
   81e28:	4a02      	ldr	r2, [pc, #8]	; (81e34 <uart_init+0x30>)
   81e2a:	4b03      	ldr	r3, [pc, #12]	; (81e38 <uart_init+0x34>)
   81e2c:	601a      	str	r2, [r3, #0]
   81e2e:	4770      	bx	lr
   81e30:	400e0600 	.word	0x400e0600
   81e34:	400e0900 	.word	0x400e0900
   81e38:	200713a4 	.word	0x200713a4

00081e3c <uart_tx_interrupt_init>:
   81e3c:	b510      	push	{r4, lr}
   81e3e:	210c      	movs	r1, #12
   81e40:	2008      	movs	r0, #8
   81e42:	4b0c      	ldr	r3, [pc, #48]	; (81e74 <uart_tx_interrupt_init+0x38>)
   81e44:	4798      	blx	r3
   81e46:	2300      	movs	r3, #0
   81e48:	4619      	mov	r1, r3
   81e4a:	4c0b      	ldr	r4, [pc, #44]	; (81e78 <uart_tx_interrupt_init+0x3c>)
   81e4c:	480b      	ldr	r0, [pc, #44]	; (81e7c <uart_tx_interrupt_init+0x40>)
   81e4e:	54e1      	strb	r1, [r4, r3]
   81e50:	54c1      	strb	r1, [r0, r3]
   81e52:	3301      	adds	r3, #1
   81e54:	f5b3 6f80 	cmp.w	r3, #1024	; 0x400
   81e58:	f04f 0200 	mov.w	r2, #0
   81e5c:	d1f7      	bne.n	81e4e <uart_tx_interrupt_init+0x12>
   81e5e:	4b08      	ldr	r3, [pc, #32]	; (81e80 <uart_tx_interrupt_init+0x44>)
   81e60:	801a      	strh	r2, [r3, #0]
   81e62:	4b08      	ldr	r3, [pc, #32]	; (81e84 <uart_tx_interrupt_init+0x48>)
   81e64:	801a      	strh	r2, [r3, #0]
   81e66:	4b08      	ldr	r3, [pc, #32]	; (81e88 <uart_tx_interrupt_init+0x4c>)
   81e68:	801a      	strh	r2, [r3, #0]
   81e6a:	4b08      	ldr	r3, [pc, #32]	; (81e8c <uart_tx_interrupt_init+0x50>)
   81e6c:	801a      	strh	r2, [r3, #0]
   81e6e:	4b08      	ldr	r3, [pc, #32]	; (81e90 <uart_tx_interrupt_init+0x54>)
   81e70:	701a      	strb	r2, [r3, #0]
   81e72:	bd10      	pop	{r4, pc}
   81e74:	00080fb5 	.word	0x00080fb5
   81e78:	200709e6 	.word	0x200709e6
   81e7c:	20070f7a 	.word	0x20070f7a
   81e80:	2007098c 	.word	0x2007098c
   81e84:	20070990 	.word	0x20070990
   81e88:	200713aa 	.word	0x200713aa
   81e8c:	200717ac 	.word	0x200717ac
   81e90:	200713a0 	.word	0x200713a0

00081e94 <uart_interrupt_transfer>:
   81e94:	b570      	push	{r4, r5, r6, lr}
   81e96:	490c      	ldr	r1, [pc, #48]	; (81ec8 <uart_interrupt_transfer+0x34>)
   81e98:	4e0c      	ldr	r6, [pc, #48]	; (81ecc <uart_interrupt_transfer+0x38>)
   81e9a:	2200      	movs	r2, #0
   81e9c:	b295      	uxth	r5, r2
   81e9e:	5d43      	ldrb	r3, [r0, r5]
   81ea0:	b16b      	cbz	r3, 81ebe <uart_interrupt_transfer+0x2a>
   81ea2:	880b      	ldrh	r3, [r1, #0]
   81ea4:	3201      	adds	r2, #1
   81ea6:	b29b      	uxth	r3, r3
   81ea8:	f5b3 6f80 	cmp.w	r3, #1024	; 0x400
   81eac:	d207      	bcs.n	81ebe <uart_interrupt_transfer+0x2a>
   81eae:	880b      	ldrh	r3, [r1, #0]
   81eb0:	b29b      	uxth	r3, r3
   81eb2:	1c5c      	adds	r4, r3, #1
   81eb4:	b2a4      	uxth	r4, r4
   81eb6:	800c      	strh	r4, [r1, #0]
   81eb8:	5d44      	ldrb	r4, [r0, r5]
   81eba:	54f4      	strb	r4, [r6, r3]
   81ebc:	e7ee      	b.n	81e9c <uart_interrupt_transfer+0x8>
   81ebe:	4b04      	ldr	r3, [pc, #16]	; (81ed0 <uart_interrupt_transfer+0x3c>)
   81ec0:	2202      	movs	r2, #2
   81ec2:	609a      	str	r2, [r3, #8]
   81ec4:	bd70      	pop	{r4, r5, r6, pc}
   81ec6:	bf00      	nop
   81ec8:	20070990 	.word	0x20070990
   81ecc:	200709e6 	.word	0x200709e6
   81ed0:	400e0800 	.word	0x400e0800

00081ed4 <uart_load_tx_buffer>:
   81ed4:	4904      	ldr	r1, [pc, #16]	; (81ee8 <uart_load_tx_buffer+0x14>)
   81ed6:	880b      	ldrh	r3, [r1, #0]
   81ed8:	b29b      	uxth	r3, r3
   81eda:	1c5a      	adds	r2, r3, #1
   81edc:	b292      	uxth	r2, r2
   81ede:	800a      	strh	r2, [r1, #0]
   81ee0:	4a02      	ldr	r2, [pc, #8]	; (81eec <uart_load_tx_buffer+0x18>)
   81ee2:	54d0      	strb	r0, [r2, r3]
   81ee4:	4770      	bx	lr
   81ee6:	bf00      	nop
   81ee8:	20070990 	.word	0x20070990
   81eec:	200709e6 	.word	0x200709e6

00081ef0 <uart_enable_tx_interrupt>:
   81ef0:	4b01      	ldr	r3, [pc, #4]	; (81ef8 <uart_enable_tx_interrupt+0x8>)
   81ef2:	2202      	movs	r2, #2
   81ef4:	609a      	str	r2, [r3, #8]
   81ef6:	4770      	bx	lr
   81ef8:	400e0800 	.word	0x400e0800

00081efc <uart_enable_rx_interrupt>:
   81efc:	b508      	push	{r3, lr}
   81efe:	210c      	movs	r1, #12
   81f00:	4b03      	ldr	r3, [pc, #12]	; (81f10 <uart_enable_rx_interrupt+0x14>)
   81f02:	2008      	movs	r0, #8
   81f04:	4798      	blx	r3
   81f06:	4b03      	ldr	r3, [pc, #12]	; (81f14 <uart_enable_rx_interrupt+0x18>)
   81f08:	2201      	movs	r2, #1
   81f0a:	609a      	str	r2, [r3, #8]
   81f0c:	bd08      	pop	{r3, pc}
   81f0e:	bf00      	nop
   81f10:	00080fb5 	.word	0x00080fb5
   81f14:	400e0800 	.word	0x400e0800

00081f18 <uart_disable_rx_interrupt>:
   81f18:	4b01      	ldr	r3, [pc, #4]	; (81f20 <uart_disable_rx_interrupt+0x8>)
   81f1a:	2201      	movs	r2, #1
   81f1c:	60da      	str	r2, [r3, #12]
   81f1e:	4770      	bx	lr
   81f20:	400e0800 	.word	0x400e0800

00081f24 <uart_rx_read_buffer>:
   81f24:	b510      	push	{r4, lr}
   81f26:	490e      	ldr	r1, [pc, #56]	; (81f60 <uart_rx_read_buffer+0x3c>)
   81f28:	4c0e      	ldr	r4, [pc, #56]	; (81f64 <uart_rx_read_buffer+0x40>)
   81f2a:	8822      	ldrh	r2, [r4, #0]
   81f2c:	880b      	ldrh	r3, [r1, #0]
   81f2e:	b292      	uxth	r2, r2
   81f30:	b29b      	uxth	r3, r3
   81f32:	429a      	cmp	r2, r3
   81f34:	d102      	bne.n	81f3c <uart_rx_read_buffer+0x18>
   81f36:	2300      	movs	r3, #0
   81f38:	800b      	strh	r3, [r1, #0]
   81f3a:	e00e      	b.n	81f5a <uart_rx_read_buffer+0x36>
   81f3c:	8823      	ldrh	r3, [r4, #0]
   81f3e:	b29b      	uxth	r3, r3
   81f40:	1c5a      	adds	r2, r3, #1
   81f42:	b292      	uxth	r2, r2
   81f44:	8022      	strh	r2, [r4, #0]
   81f46:	4a08      	ldr	r2, [pc, #32]	; (81f68 <uart_rx_read_buffer+0x44>)
   81f48:	5cd0      	ldrb	r0, [r2, r3]
   81f4a:	4b08      	ldr	r3, [pc, #32]	; (81f6c <uart_rx_read_buffer+0x48>)
   81f4c:	4798      	blx	r3
   81f4e:	8823      	ldrh	r3, [r4, #0]
   81f50:	b29b      	uxth	r3, r3
   81f52:	f5b3 6f80 	cmp.w	r3, #1024	; 0x400
   81f56:	d301      	bcc.n	81f5c <uart_rx_read_buffer+0x38>
   81f58:	2300      	movs	r3, #0
   81f5a:	8023      	strh	r3, [r4, #0]
   81f5c:	bd10      	pop	{r4, pc}
   81f5e:	bf00      	nop
   81f60:	200717ac 	.word	0x200717ac
   81f64:	200713aa 	.word	0x200713aa
   81f68:	20070f7a 	.word	0x20070f7a
   81f6c:	00081cc5 	.word	0x00081cc5

00081f70 <uart_transfer>:
   81f70:	4a03      	ldr	r2, [pc, #12]	; (81f80 <uart_transfer+0x10>)
   81f72:	6953      	ldr	r3, [r2, #20]
   81f74:	079b      	lsls	r3, r3, #30
   81f76:	d5fc      	bpl.n	81f72 <uart_transfer+0x2>
   81f78:	4b01      	ldr	r3, [pc, #4]	; (81f80 <uart_transfer+0x10>)
   81f7a:	61d8      	str	r0, [r3, #28]
   81f7c:	4770      	bx	lr
   81f7e:	bf00      	nop
   81f80:	400e0800 	.word	0x400e0800

00081f84 <uart_print_int>:
   81f84:	e92d 41f0 	stmdb	sp!, {r4, r5, r6, r7, r8, lr}
   81f88:	4605      	mov	r5, r0
   81f8a:	4c0d      	ldr	r4, [pc, #52]	; (81fc0 <uart_print_int+0x3c>)
   81f8c:	f8df 8034 	ldr.w	r8, [pc, #52]	; 81fc4 <uart_print_int+0x40>
   81f90:	2101      	movs	r1, #1
   81f92:	2300      	movs	r3, #0
   81f94:	270a      	movs	r7, #10
   81f96:	fbb5 f6f4 	udiv	r6, r5, r4
   81f9a:	f106 0030 	add.w	r0, r6, #48	; 0x30
   81f9e:	b2c0      	uxtb	r0, r0
   81fa0:	2830      	cmp	r0, #48	; 0x30
   81fa2:	d102      	bne.n	81faa <uart_print_int+0x26>
   81fa4:	b90b      	cbnz	r3, 81faa <uart_print_int+0x26>
   81fa6:	290a      	cmp	r1, #10
   81fa8:	d101      	bne.n	81fae <uart_print_int+0x2a>
   81faa:	47c0      	blx	r8
   81fac:	2301      	movs	r3, #1
   81fae:	3101      	adds	r1, #1
   81fb0:	290b      	cmp	r1, #11
   81fb2:	fb04 5516 	mls	r5, r4, r6, r5
   81fb6:	fbb4 f4f7 	udiv	r4, r4, r7
   81fba:	d1ec      	bne.n	81f96 <uart_print_int+0x12>
   81fbc:	e8bd 81f0 	ldmia.w	sp!, {r4, r5, r6, r7, r8, pc}
   81fc0:	3b9aca00 	.word	0x3b9aca00
   81fc4:	00081f71 	.word	0x00081f71

00081fc8 <uart_new_line>:
   81fc8:	200a      	movs	r0, #10
   81fca:	4b01      	ldr	r3, [pc, #4]	; (81fd0 <uart_new_line+0x8>)
   81fcc:	4718      	bx	r3
   81fce:	bf00      	nop
   81fd0:	00081f71 	.word	0x00081f71

00081fd4 <uart_print_string>:
   81fd4:	b570      	push	{r4, r5, r6, lr}
   81fd6:	4604      	mov	r4, r0
   81fd8:	4d07      	ldr	r5, [pc, #28]	; (81ff8 <uart_print_string+0x24>)
   81fda:	1e41      	subs	r1, r0, #1
   81fdc:	f811 0f01 	ldrb.w	r0, [r1, #1]!
   81fe0:	b108      	cbz	r0, 81fe6 <uart_print_string+0x12>
   81fe2:	47a8      	blx	r5
   81fe4:	e7fa      	b.n	81fdc <uart_print_string+0x8>
   81fe6:	1b0b      	subs	r3, r1, r4
   81fe8:	2b14      	cmp	r3, #20
   81fea:	dcfa      	bgt.n	81fe2 <uart_print_string+0xe>
   81fec:	e8bd 4070 	ldmia.w	sp!, {r4, r5, r6, lr}
   81ff0:	2020      	movs	r0, #32
   81ff2:	4b01      	ldr	r3, [pc, #4]	; (81ff8 <uart_print_string+0x24>)
   81ff4:	4718      	bx	r3
   81ff6:	bf00      	nop
   81ff8:	00081f71 	.word	0x00081f71

00081ffc <UART_Handler>:
   81ffc:	b530      	push	{r4, r5, lr}
   81ffe:	4a1e      	ldr	r2, [pc, #120]	; (82078 <UART_Handler+0x7c>)
   82000:	4c1e      	ldr	r4, [pc, #120]	; (8207c <UART_Handler+0x80>)
   82002:	6953      	ldr	r3, [r2, #20]
   82004:	8821      	ldrh	r1, [r4, #0]
   82006:	b289      	uxth	r1, r1
   82008:	b1b9      	cbz	r1, 8203a <UART_Handler+0x3e>
   8200a:	0798      	lsls	r0, r3, #30
   8200c:	d515      	bpl.n	8203a <UART_Handler+0x3e>
   8200e:	491c      	ldr	r1, [pc, #112]	; (82080 <UART_Handler+0x84>)
   82010:	4d1c      	ldr	r5, [pc, #112]	; (82084 <UART_Handler+0x88>)
   82012:	8808      	ldrh	r0, [r1, #0]
   82014:	b280      	uxth	r0, r0
   82016:	5c28      	ldrb	r0, [r5, r0]
   82018:	b2c0      	uxtb	r0, r0
   8201a:	61d0      	str	r0, [r2, #28]
   8201c:	8808      	ldrh	r0, [r1, #0]
   8201e:	3001      	adds	r0, #1
   82020:	b280      	uxth	r0, r0
   82022:	8008      	strh	r0, [r1, #0]
   82024:	880d      	ldrh	r5, [r1, #0]
   82026:	8820      	ldrh	r0, [r4, #0]
   82028:	b2ad      	uxth	r5, r5
   8202a:	b280      	uxth	r0, r0
   8202c:	4285      	cmp	r5, r0
   8202e:	d304      	bcc.n	8203a <UART_Handler+0x3e>
   82030:	2000      	movs	r0, #0
   82032:	8020      	strh	r0, [r4, #0]
   82034:	8008      	strh	r0, [r1, #0]
   82036:	2102      	movs	r1, #2
   82038:	60d1      	str	r1, [r2, #12]
   8203a:	07d9      	lsls	r1, r3, #31
   8203c:	d51a      	bpl.n	82074 <UART_Handler+0x78>
   8203e:	f013 03a0 	ands.w	r3, r3, #160	; 0xa0
   82042:	6990      	ldr	r0, [r2, #24]
   82044:	d004      	beq.n	82050 <UART_Handler+0x54>
   82046:	4b0c      	ldr	r3, [pc, #48]	; (82078 <UART_Handler+0x7c>)
   82048:	f44f 7280 	mov.w	r2, #256	; 0x100
   8204c:	601a      	str	r2, [r3, #0]
   8204e:	bd30      	pop	{r4, r5, pc}
   82050:	4a0d      	ldr	r2, [pc, #52]	; (82088 <UART_Handler+0x8c>)
   82052:	b2c0      	uxtb	r0, r0
   82054:	8811      	ldrh	r1, [r2, #0]
   82056:	b289      	uxth	r1, r1
   82058:	1c4c      	adds	r4, r1, #1
   8205a:	b2a4      	uxth	r4, r4
   8205c:	8014      	strh	r4, [r2, #0]
   8205e:	4c0b      	ldr	r4, [pc, #44]	; (8208c <UART_Handler+0x90>)
   82060:	5460      	strb	r0, [r4, r1]
   82062:	8811      	ldrh	r1, [r2, #0]
   82064:	b289      	uxth	r1, r1
   82066:	f5b1 6f80 	cmp.w	r1, #1024	; 0x400
   8206a:	bf28      	it	cs
   8206c:	8013      	strhcs	r3, [r2, #0]
   8206e:	4b08      	ldr	r3, [pc, #32]	; (82090 <UART_Handler+0x94>)
   82070:	2201      	movs	r2, #1
   82072:	701a      	strb	r2, [r3, #0]
   82074:	bd30      	pop	{r4, r5, pc}
   82076:	bf00      	nop
   82078:	400e0800 	.word	0x400e0800
   8207c:	20070990 	.word	0x20070990
   82080:	2007098c 	.word	0x2007098c
   82084:	200709e6 	.word	0x200709e6
   82088:	200717ac 	.word	0x200717ac
   8208c:	20070f7a 	.word	0x20070f7a
   82090:	200713a0 	.word	0x200713a0

00082094 <uart_receive>:
   82094:	4a03      	ldr	r2, [pc, #12]	; (820a4 <uart_receive+0x10>)
   82096:	6953      	ldr	r3, [r2, #20]
   82098:	07db      	lsls	r3, r3, #31
   8209a:	d5fc      	bpl.n	82096 <uart_receive+0x2>
   8209c:	4b01      	ldr	r3, [pc, #4]	; (820a4 <uart_receive+0x10>)
   8209e:	6998      	ldr	r0, [r3, #24]
   820a0:	b2c0      	uxtb	r0, r0
   820a2:	4770      	bx	lr
   820a4:	400e0800 	.word	0x400e0800

000820a8 <uart_load_pdc_tx_buffer>:
   820a8:	b510      	push	{r4, lr}
   820aa:	4b08      	ldr	r3, [pc, #32]	; (820cc <uart_load_pdc_tx_buffer+0x24>)
   820ac:	4c08      	ldr	r4, [pc, #32]	; (820d0 <uart_load_pdc_tx_buffer+0x28>)
   820ae:	e883 0003 	stmia.w	r3, {r0, r1}
   820b2:	2200      	movs	r2, #0
   820b4:	4619      	mov	r1, r3
   820b6:	6820      	ldr	r0, [r4, #0]
   820b8:	4b06      	ldr	r3, [pc, #24]	; (820d4 <uart_load_pdc_tx_buffer+0x2c>)
   820ba:	4798      	blx	r3
   820bc:	6820      	ldr	r0, [r4, #0]
   820be:	f44f 7180 	mov.w	r1, #256	; 0x100
   820c2:	4b05      	ldr	r3, [pc, #20]	; (820d8 <uart_load_pdc_tx_buffer+0x30>)
   820c4:	e8bd 4010 	ldmia.w	sp!, {r4, lr}
   820c8:	4718      	bx	r3
   820ca:	bf00      	nop
   820cc:	20072144 	.word	0x20072144
   820d0:	200713a4 	.word	0x200713a4
   820d4:	000803cd 	.word	0x000803cd
   820d8:	000803e3 	.word	0x000803e3

000820dc <main>:
   820dc:	e92d 41ff 	stmdb	sp!, {r0, r1, r2, r3, r4, r5, r6, r7, r8, lr}
   820e0:	4b58      	ldr	r3, [pc, #352]	; (82244 <main+0x168>)
   820e2:	4798      	blx	r3
   820e4:	4b58      	ldr	r3, [pc, #352]	; (82248 <main+0x16c>)
   820e6:	2400      	movs	r4, #0
   820e8:	4798      	blx	r3
   820ea:	4b58      	ldr	r3, [pc, #352]	; (8224c <main+0x170>)
   820ec:	200d      	movs	r0, #13
   820ee:	4798      	blx	r3
   820f0:	4d57      	ldr	r5, [pc, #348]	; (82250 <main+0x174>)
   820f2:	4623      	mov	r3, r4
   820f4:	4622      	mov	r2, r4
   820f6:	9400      	str	r4, [sp, #0]
   820f8:	f44f 2100 	mov.w	r1, #524288	; 0x80000
   820fc:	4855      	ldr	r0, [pc, #340]	; (82254 <main+0x178>)
   820fe:	47a8      	blx	r5
   82100:	4623      	mov	r3, r4
   82102:	4622      	mov	r2, r4
   82104:	9400      	str	r4, [sp, #0]
   82106:	f44f 0100 	mov.w	r1, #8388608	; 0x800000
   8210a:	4852      	ldr	r0, [pc, #328]	; (82254 <main+0x178>)
   8210c:	47a8      	blx	r5
   8210e:	4623      	mov	r3, r4
   82110:	4622      	mov	r2, r4
   82112:	9400      	str	r4, [sp, #0]
   82114:	f44f 3100 	mov.w	r1, #131072	; 0x20000
   82118:	484e      	ldr	r0, [pc, #312]	; (82254 <main+0x178>)
   8211a:	47a8      	blx	r5
   8211c:	4622      	mov	r2, r4
   8211e:	4623      	mov	r3, r4
   82120:	9400      	str	r4, [sp, #0]
   82122:	f04f 7100 	mov.w	r1, #33554432	; 0x2000000
   82126:	484b      	ldr	r0, [pc, #300]	; (82254 <main+0x178>)
   82128:	47a8      	blx	r5
   8212a:	4d4b      	ldr	r5, [pc, #300]	; (82258 <main+0x17c>)
   8212c:	f44f 2100 	mov.w	r1, #524288	; 0x80000
   82130:	4848      	ldr	r0, [pc, #288]	; (82254 <main+0x178>)
   82132:	47a8      	blx	r5
   82134:	f44f 0100 	mov.w	r1, #8388608	; 0x800000
   82138:	4846      	ldr	r0, [pc, #280]	; (82254 <main+0x178>)
   8213a:	47a8      	blx	r5
   8213c:	f44f 3100 	mov.w	r1, #131072	; 0x20000
   82140:	4844      	ldr	r0, [pc, #272]	; (82254 <main+0x178>)
   82142:	47a8      	blx	r5
   82144:	f04f 7100 	mov.w	r1, #33554432	; 0x2000000
   82148:	4842      	ldr	r0, [pc, #264]	; (82254 <main+0x178>)
   8214a:	47a8      	blx	r5
   8214c:	4b43      	ldr	r3, [pc, #268]	; (8225c <main+0x180>)
   8214e:	4798      	blx	r3
   82150:	4b43      	ldr	r3, [pc, #268]	; (82260 <main+0x184>)
   82152:	4798      	blx	r3
   82154:	4b43      	ldr	r3, [pc, #268]	; (82264 <main+0x188>)
   82156:	4798      	blx	r3
   82158:	f8df 816c 	ldr.w	r8, [pc, #364]	; 822c8 <main+0x1ec>
   8215c:	4842      	ldr	r0, [pc, #264]	; (82268 <main+0x18c>)
   8215e:	4f43      	ldr	r7, [pc, #268]	; (8226c <main+0x190>)
   82160:	47c0      	blx	r8
   82162:	47b8      	blx	r7
   82164:	4b42      	ldr	r3, [pc, #264]	; (82270 <main+0x194>)
   82166:	4798      	blx	r3
   82168:	4b42      	ldr	r3, [pc, #264]	; (82274 <main+0x198>)
   8216a:	4798      	blx	r3
   8216c:	4b42      	ldr	r3, [pc, #264]	; (82278 <main+0x19c>)
   8216e:	4798      	blx	r3
   82170:	4b42      	ldr	r3, [pc, #264]	; (8227c <main+0x1a0>)
   82172:	2101      	movs	r1, #1
   82174:	6818      	ldr	r0, [r3, #0]
   82176:	889a      	ldrh	r2, [r3, #4]
   82178:	799b      	ldrb	r3, [r3, #6]
   8217a:	9002      	str	r0, [sp, #8]
   8217c:	f8ad 200c 	strh.w	r2, [sp, #12]
   82180:	f88d 300e 	strb.w	r3, [sp, #14]
   82184:	220a      	movs	r2, #10
   82186:	a802      	add	r0, sp, #8
   82188:	4b3d      	ldr	r3, [pc, #244]	; (82280 <main+0x1a4>)
   8218a:	4798      	blx	r3
   8218c:	483d      	ldr	r0, [pc, #244]	; (82284 <main+0x1a8>)
   8218e:	4b3e      	ldr	r3, [pc, #248]	; (82288 <main+0x1ac>)
   82190:	4798      	blx	r3
   82192:	4d3e      	ldr	r5, [pc, #248]	; (8228c <main+0x1b0>)
   82194:	2309      	movs	r3, #9
   82196:	2215      	movs	r2, #21
   82198:	f248 0102 	movw	r1, #32770	; 0x8002
   8219c:	2008      	movs	r0, #8
   8219e:	47a8      	blx	r5
   821a0:	4b3b      	ldr	r3, [pc, #236]	; (82290 <main+0x1b4>)
   821a2:	4a3c      	ldr	r2, [pc, #240]	; (82294 <main+0x1b8>)
   821a4:	881b      	ldrh	r3, [r3, #0]
   821a6:	2102      	movs	r1, #2
   821a8:	fb92 f2f3 	sdiv	r2, r2, r3
   821ac:	483a      	ldr	r0, [pc, #232]	; (82298 <main+0x1bc>)
   821ae:	4b3b      	ldr	r3, [pc, #236]	; (8229c <main+0x1c0>)
   821b0:	4798      	blx	r3
   821b2:	f640 2241 	movw	r2, #2625	; 0xa41
   821b6:	2102      	movs	r1, #2
   821b8:	4837      	ldr	r0, [pc, #220]	; (82298 <main+0x1bc>)
   821ba:	4b39      	ldr	r3, [pc, #228]	; (822a0 <main+0x1c4>)
   821bc:	4798      	blx	r3
   821be:	4b39      	ldr	r3, [pc, #228]	; (822a4 <main+0x1c8>)
   821c0:	4798      	blx	r3
   821c2:	4b39      	ldr	r3, [pc, #228]	; (822a8 <main+0x1cc>)
   821c4:	4798      	blx	r3
   821c6:	4e39      	ldr	r6, [pc, #228]	; (822ac <main+0x1d0>)
   821c8:	4622      	mov	r2, r4
   821ca:	2301      	movs	r3, #1
   821cc:	2180      	movs	r1, #128	; 0x80
   821ce:	200b      	movs	r0, #11
   821d0:	47b0      	blx	r6
   821d2:	4622      	mov	r2, r4
   821d4:	2302      	movs	r3, #2
   821d6:	2180      	movs	r1, #128	; 0x80
   821d8:	200b      	movs	r0, #11
   821da:	47b0      	blx	r6
   821dc:	4622      	mov	r2, r4
   821de:	2302      	movs	r3, #2
   821e0:	f44f 4100 	mov.w	r1, #32768	; 0x8000
   821e4:	200b      	movs	r0, #11
   821e6:	47b0      	blx	r6
   821e8:	4620      	mov	r0, r4
   821ea:	2301      	movs	r3, #1
   821ec:	221d      	movs	r2, #29
   821ee:	f248 4102 	movw	r1, #33794	; 0x8402
   821f2:	47a8      	blx	r5
   821f4:	2302      	movs	r3, #2
   821f6:	221d      	movs	r2, #29
   821f8:	f248 4102 	movw	r1, #33794	; 0x8402
   821fc:	2001      	movs	r0, #1
   821fe:	47a8      	blx	r5
   82200:	2303      	movs	r3, #3
   82202:	221d      	movs	r2, #29
   82204:	f248 4102 	movw	r1, #33794	; 0x8402
   82208:	2002      	movs	r0, #2
   8220a:	47a8      	blx	r5
   8220c:	2304      	movs	r3, #4
   8220e:	221d      	movs	r2, #29
   82210:	f248 4102 	movw	r1, #33794	; 0x8402
   82214:	2003      	movs	r0, #3
   82216:	47a8      	blx	r5
   82218:	4825      	ldr	r0, [pc, #148]	; (822b0 <main+0x1d4>)
   8221a:	47c0      	blx	r8
   8221c:	47b8      	blx	r7
   8221e:	4d25      	ldr	r5, [pc, #148]	; (822b4 <main+0x1d8>)
   82220:	4c25      	ldr	r4, [pc, #148]	; (822b8 <main+0x1dc>)
   82222:	4e26      	ldr	r6, [pc, #152]	; (822bc <main+0x1e0>)
   82224:	47a8      	blx	r5
   82226:	7823      	ldrb	r3, [r4, #0]
   82228:	b113      	cbz	r3, 82230 <main+0x154>
   8222a:	2300      	movs	r3, #0
   8222c:	7023      	strb	r3, [r4, #0]
   8222e:	47b0      	blx	r6
   82230:	4b23      	ldr	r3, [pc, #140]	; (822c0 <main+0x1e4>)
   82232:	781a      	ldrb	r2, [r3, #0]
   82234:	2a00      	cmp	r2, #0
   82236:	d0f5      	beq.n	82224 <main+0x148>
   82238:	2200      	movs	r2, #0
   8223a:	701a      	strb	r2, [r3, #0]
   8223c:	4b21      	ldr	r3, [pc, #132]	; (822c4 <main+0x1e8>)
   8223e:	4798      	blx	r3
   82240:	e7ef      	b.n	82222 <main+0x146>
   82242:	bf00      	nop
   82244:	000802e1 	.word	0x000802e1
   82248:	00080349 	.word	0x00080349
   8224c:	00080695 	.word	0x00080695
   82250:	0008045b 	.word	0x0008045b
   82254:	400e1200 	.word	0x400e1200
   82258:	000803ef 	.word	0x000803ef
   8225c:	00081e05 	.word	0x00081e05
   82260:	00081efd 	.word	0x00081efd
   82264:	00081e3d 	.word	0x00081e3d
   82268:	000834e3 	.word	0x000834e3
   8226c:	00081fc9 	.word	0x00081fc9
   82270:	00080d19 	.word	0x00080d19
   82274:	00080df1 	.word	0x00080df1
   82278:	00080a91 	.word	0x00080a91
   8227c:	000834dc 	.word	0x000834dc
   82280:	00080b29 	.word	0x00080b29
   82284:	400c0000 	.word	0x400c0000
   82288:	000802c3 	.word	0x000802c3
   8228c:	00081581 	.word	0x00081581
   82290:	20071820 	.word	0x20071820
   82294:	00280de8 	.word	0x00280de8
   82298:	40088000 	.word	0x40088000
   8229c:	000806fb 	.word	0x000806fb
   822a0:	00080703 	.word	0x00080703
   822a4:	00081349 	.word	0x00081349
   822a8:	00081781 	.word	0x00081781
   822ac:	00081009 	.word	0x00081009
   822b0:	000834ee 	.word	0x000834ee
   822b4:	00080bcd 	.word	0x00080bcd
   822b8:	20071c91 	.word	0x20071c91
   822bc:	00081399 	.word	0x00081399
   822c0:	200713a0 	.word	0x200713a0
   822c4:	00081f25 	.word	0x00081f25
   822c8:	00081fd5 	.word	0x00081fd5

000822cc <__aeabi_drsub>:
   822cc:	f081 4100 	eor.w	r1, r1, #2147483648	; 0x80000000
   822d0:	e002      	b.n	822d8 <__adddf3>
   822d2:	bf00      	nop

000822d4 <__aeabi_dsub>:
   822d4:	f083 4300 	eor.w	r3, r3, #2147483648	; 0x80000000

000822d8 <__adddf3>:
   822d8:	b530      	push	{r4, r5, lr}
   822da:	ea4f 0441 	mov.w	r4, r1, lsl #1
   822de:	ea4f 0543 	mov.w	r5, r3, lsl #1
   822e2:	ea94 0f05 	teq	r4, r5
   822e6:	bf08      	it	eq
   822e8:	ea90 0f02 	teqeq	r0, r2
   822ec:	bf1f      	itttt	ne
   822ee:	ea54 0c00 	orrsne.w	ip, r4, r0
   822f2:	ea55 0c02 	orrsne.w	ip, r5, r2
   822f6:	ea7f 5c64 	mvnsne.w	ip, r4, asr #21
   822fa:	ea7f 5c65 	mvnsne.w	ip, r5, asr #21
   822fe:	f000 80e2 	beq.w	824c6 <__adddf3+0x1ee>
   82302:	ea4f 5454 	mov.w	r4, r4, lsr #21
   82306:	ebd4 5555 	rsbs	r5, r4, r5, lsr #21
   8230a:	bfb8      	it	lt
   8230c:	426d      	neglt	r5, r5
   8230e:	dd0c      	ble.n	8232a <__adddf3+0x52>
   82310:	442c      	add	r4, r5
   82312:	ea80 0202 	eor.w	r2, r0, r2
   82316:	ea81 0303 	eor.w	r3, r1, r3
   8231a:	ea82 0000 	eor.w	r0, r2, r0
   8231e:	ea83 0101 	eor.w	r1, r3, r1
   82322:	ea80 0202 	eor.w	r2, r0, r2
   82326:	ea81 0303 	eor.w	r3, r1, r3
   8232a:	2d36      	cmp	r5, #54	; 0x36
   8232c:	bf88      	it	hi
   8232e:	bd30      	pophi	{r4, r5, pc}
   82330:	f011 4f00 	tst.w	r1, #2147483648	; 0x80000000
   82334:	ea4f 3101 	mov.w	r1, r1, lsl #12
   82338:	f44f 1c80 	mov.w	ip, #1048576	; 0x100000
   8233c:	ea4c 3111 	orr.w	r1, ip, r1, lsr #12
   82340:	d002      	beq.n	82348 <__adddf3+0x70>
   82342:	4240      	negs	r0, r0
   82344:	eb61 0141 	sbc.w	r1, r1, r1, lsl #1
   82348:	f013 4f00 	tst.w	r3, #2147483648	; 0x80000000
   8234c:	ea4f 3303 	mov.w	r3, r3, lsl #12
   82350:	ea4c 3313 	orr.w	r3, ip, r3, lsr #12
   82354:	d002      	beq.n	8235c <__adddf3+0x84>
   82356:	4252      	negs	r2, r2
   82358:	eb63 0343 	sbc.w	r3, r3, r3, lsl #1
   8235c:	ea94 0f05 	teq	r4, r5
   82360:	f000 80a7 	beq.w	824b2 <__adddf3+0x1da>
   82364:	f1a4 0401 	sub.w	r4, r4, #1
   82368:	f1d5 0e20 	rsbs	lr, r5, #32
   8236c:	db0d      	blt.n	8238a <__adddf3+0xb2>
   8236e:	fa02 fc0e 	lsl.w	ip, r2, lr
   82372:	fa22 f205 	lsr.w	r2, r2, r5
   82376:	1880      	adds	r0, r0, r2
   82378:	f141 0100 	adc.w	r1, r1, #0
   8237c:	fa03 f20e 	lsl.w	r2, r3, lr
   82380:	1880      	adds	r0, r0, r2
   82382:	fa43 f305 	asr.w	r3, r3, r5
   82386:	4159      	adcs	r1, r3
   82388:	e00e      	b.n	823a8 <__adddf3+0xd0>
   8238a:	f1a5 0520 	sub.w	r5, r5, #32
   8238e:	f10e 0e20 	add.w	lr, lr, #32
   82392:	2a01      	cmp	r2, #1
   82394:	fa03 fc0e 	lsl.w	ip, r3, lr
   82398:	bf28      	it	cs
   8239a:	f04c 0c02 	orrcs.w	ip, ip, #2
   8239e:	fa43 f305 	asr.w	r3, r3, r5
   823a2:	18c0      	adds	r0, r0, r3
   823a4:	eb51 71e3 	adcs.w	r1, r1, r3, asr #31
   823a8:	f001 4500 	and.w	r5, r1, #2147483648	; 0x80000000
   823ac:	d507      	bpl.n	823be <__adddf3+0xe6>
   823ae:	f04f 0e00 	mov.w	lr, #0
   823b2:	f1dc 0c00 	rsbs	ip, ip, #0
   823b6:	eb7e 0000 	sbcs.w	r0, lr, r0
   823ba:	eb6e 0101 	sbc.w	r1, lr, r1
   823be:	f5b1 1f80 	cmp.w	r1, #1048576	; 0x100000
   823c2:	d31b      	bcc.n	823fc <__adddf3+0x124>
   823c4:	f5b1 1f00 	cmp.w	r1, #2097152	; 0x200000
   823c8:	d30c      	bcc.n	823e4 <__adddf3+0x10c>
   823ca:	0849      	lsrs	r1, r1, #1
   823cc:	ea5f 0030 	movs.w	r0, r0, rrx
   823d0:	ea4f 0c3c 	mov.w	ip, ip, rrx
   823d4:	f104 0401 	add.w	r4, r4, #1
   823d8:	ea4f 5244 	mov.w	r2, r4, lsl #21
   823dc:	f512 0f80 	cmn.w	r2, #4194304	; 0x400000
   823e0:	f080 809a 	bcs.w	82518 <__adddf3+0x240>
   823e4:	f1bc 4f00 	cmp.w	ip, #2147483648	; 0x80000000
   823e8:	bf08      	it	eq
   823ea:	ea5f 0c50 	movseq.w	ip, r0, lsr #1
   823ee:	f150 0000 	adcs.w	r0, r0, #0
   823f2:	eb41 5104 	adc.w	r1, r1, r4, lsl #20
   823f6:	ea41 0105 	orr.w	r1, r1, r5
   823fa:	bd30      	pop	{r4, r5, pc}
   823fc:	ea5f 0c4c 	movs.w	ip, ip, lsl #1
   82400:	4140      	adcs	r0, r0
   82402:	eb41 0101 	adc.w	r1, r1, r1
   82406:	f411 1f80 	tst.w	r1, #1048576	; 0x100000
   8240a:	f1a4 0401 	sub.w	r4, r4, #1
   8240e:	d1e9      	bne.n	823e4 <__adddf3+0x10c>
   82410:	f091 0f00 	teq	r1, #0
   82414:	bf04      	itt	eq
   82416:	4601      	moveq	r1, r0
   82418:	2000      	moveq	r0, #0
   8241a:	fab1 f381 	clz	r3, r1
   8241e:	bf08      	it	eq
   82420:	3320      	addeq	r3, #32
   82422:	f1a3 030b 	sub.w	r3, r3, #11
   82426:	f1b3 0220 	subs.w	r2, r3, #32
   8242a:	da0c      	bge.n	82446 <__adddf3+0x16e>
   8242c:	320c      	adds	r2, #12
   8242e:	dd08      	ble.n	82442 <__adddf3+0x16a>
   82430:	f102 0c14 	add.w	ip, r2, #20
   82434:	f1c2 020c 	rsb	r2, r2, #12
   82438:	fa01 f00c 	lsl.w	r0, r1, ip
   8243c:	fa21 f102 	lsr.w	r1, r1, r2
   82440:	e00c      	b.n	8245c <__adddf3+0x184>
   82442:	f102 0214 	add.w	r2, r2, #20
   82446:	bfd8      	it	le
   82448:	f1c2 0c20 	rsble	ip, r2, #32
   8244c:	fa01 f102 	lsl.w	r1, r1, r2
   82450:	fa20 fc0c 	lsr.w	ip, r0, ip
   82454:	bfdc      	itt	le
   82456:	ea41 010c 	orrle.w	r1, r1, ip
   8245a:	4090      	lslle	r0, r2
   8245c:	1ae4      	subs	r4, r4, r3
   8245e:	bfa2      	ittt	ge
   82460:	eb01 5104 	addge.w	r1, r1, r4, lsl #20
   82464:	4329      	orrge	r1, r5
   82466:	bd30      	popge	{r4, r5, pc}
   82468:	ea6f 0404 	mvn.w	r4, r4
   8246c:	3c1f      	subs	r4, #31
   8246e:	da1c      	bge.n	824aa <__adddf3+0x1d2>
   82470:	340c      	adds	r4, #12
   82472:	dc0e      	bgt.n	82492 <__adddf3+0x1ba>
   82474:	f104 0414 	add.w	r4, r4, #20
   82478:	f1c4 0220 	rsb	r2, r4, #32
   8247c:	fa20 f004 	lsr.w	r0, r0, r4
   82480:	fa01 f302 	lsl.w	r3, r1, r2
   82484:	ea40 0003 	orr.w	r0, r0, r3
   82488:	fa21 f304 	lsr.w	r3, r1, r4
   8248c:	ea45 0103 	orr.w	r1, r5, r3
   82490:	bd30      	pop	{r4, r5, pc}
   82492:	f1c4 040c 	rsb	r4, r4, #12
   82496:	f1c4 0220 	rsb	r2, r4, #32
   8249a:	fa20 f002 	lsr.w	r0, r0, r2
   8249e:	fa01 f304 	lsl.w	r3, r1, r4
   824a2:	ea40 0003 	orr.w	r0, r0, r3
   824a6:	4629      	mov	r1, r5
   824a8:	bd30      	pop	{r4, r5, pc}
   824aa:	fa21 f004 	lsr.w	r0, r1, r4
   824ae:	4629      	mov	r1, r5
   824b0:	bd30      	pop	{r4, r5, pc}
   824b2:	f094 0f00 	teq	r4, #0
   824b6:	f483 1380 	eor.w	r3, r3, #1048576	; 0x100000
   824ba:	bf06      	itte	eq
   824bc:	f481 1180 	eoreq.w	r1, r1, #1048576	; 0x100000
   824c0:	3401      	addeq	r4, #1
   824c2:	3d01      	subne	r5, #1
   824c4:	e74e      	b.n	82364 <__adddf3+0x8c>
   824c6:	ea7f 5c64 	mvns.w	ip, r4, asr #21
   824ca:	bf18      	it	ne
   824cc:	ea7f 5c65 	mvnsne.w	ip, r5, asr #21
   824d0:	d029      	beq.n	82526 <__adddf3+0x24e>
   824d2:	ea94 0f05 	teq	r4, r5
   824d6:	bf08      	it	eq
   824d8:	ea90 0f02 	teqeq	r0, r2
   824dc:	d005      	beq.n	824ea <__adddf3+0x212>
   824de:	ea54 0c00 	orrs.w	ip, r4, r0
   824e2:	bf04      	itt	eq
   824e4:	4619      	moveq	r1, r3
   824e6:	4610      	moveq	r0, r2
   824e8:	bd30      	pop	{r4, r5, pc}
   824ea:	ea91 0f03 	teq	r1, r3
   824ee:	bf1e      	ittt	ne
   824f0:	2100      	movne	r1, #0
   824f2:	2000      	movne	r0, #0
   824f4:	bd30      	popne	{r4, r5, pc}
   824f6:	ea5f 5c54 	movs.w	ip, r4, lsr #21
   824fa:	d105      	bne.n	82508 <__adddf3+0x230>
   824fc:	0040      	lsls	r0, r0, #1
   824fe:	4149      	adcs	r1, r1
   82500:	bf28      	it	cs
   82502:	f041 4100 	orrcs.w	r1, r1, #2147483648	; 0x80000000
   82506:	bd30      	pop	{r4, r5, pc}
   82508:	f514 0480 	adds.w	r4, r4, #4194304	; 0x400000
   8250c:	bf3c      	itt	cc
   8250e:	f501 1180 	addcc.w	r1, r1, #1048576	; 0x100000
   82512:	bd30      	popcc	{r4, r5, pc}
   82514:	f001 4500 	and.w	r5, r1, #2147483648	; 0x80000000
   82518:	f045 41fe 	orr.w	r1, r5, #2130706432	; 0x7f000000
   8251c:	f441 0170 	orr.w	r1, r1, #15728640	; 0xf00000
   82520:	f04f 0000 	mov.w	r0, #0
   82524:	bd30      	pop	{r4, r5, pc}
   82526:	ea7f 5c64 	mvns.w	ip, r4, asr #21
   8252a:	bf1a      	itte	ne
   8252c:	4619      	movne	r1, r3
   8252e:	4610      	movne	r0, r2
   82530:	ea7f 5c65 	mvnseq.w	ip, r5, asr #21
   82534:	bf1c      	itt	ne
   82536:	460b      	movne	r3, r1
   82538:	4602      	movne	r2, r0
   8253a:	ea50 3401 	orrs.w	r4, r0, r1, lsl #12
   8253e:	bf06      	itte	eq
   82540:	ea52 3503 	orrseq.w	r5, r2, r3, lsl #12
   82544:	ea91 0f03 	teqeq	r1, r3
   82548:	f441 2100 	orrne.w	r1, r1, #524288	; 0x80000
   8254c:	bd30      	pop	{r4, r5, pc}
   8254e:	bf00      	nop

00082550 <__aeabi_ui2d>:
   82550:	f090 0f00 	teq	r0, #0
   82554:	bf04      	itt	eq
   82556:	2100      	moveq	r1, #0
   82558:	4770      	bxeq	lr
   8255a:	b530      	push	{r4, r5, lr}
   8255c:	f44f 6480 	mov.w	r4, #1024	; 0x400
   82560:	f104 0432 	add.w	r4, r4, #50	; 0x32
   82564:	f04f 0500 	mov.w	r5, #0
   82568:	f04f 0100 	mov.w	r1, #0
   8256c:	e750      	b.n	82410 <__adddf3+0x138>
   8256e:	bf00      	nop

00082570 <__aeabi_i2d>:
   82570:	f090 0f00 	teq	r0, #0
   82574:	bf04      	itt	eq
   82576:	2100      	moveq	r1, #0
   82578:	4770      	bxeq	lr
   8257a:	b530      	push	{r4, r5, lr}
   8257c:	f44f 6480 	mov.w	r4, #1024	; 0x400
   82580:	f104 0432 	add.w	r4, r4, #50	; 0x32
   82584:	f010 4500 	ands.w	r5, r0, #2147483648	; 0x80000000
   82588:	bf48      	it	mi
   8258a:	4240      	negmi	r0, r0
   8258c:	f04f 0100 	mov.w	r1, #0
   82590:	e73e      	b.n	82410 <__adddf3+0x138>
   82592:	bf00      	nop

00082594 <__aeabi_f2d>:
   82594:	0042      	lsls	r2, r0, #1
   82596:	ea4f 01e2 	mov.w	r1, r2, asr #3
   8259a:	ea4f 0131 	mov.w	r1, r1, rrx
   8259e:	ea4f 7002 	mov.w	r0, r2, lsl #28
   825a2:	bf1f      	itttt	ne
   825a4:	f012 437f 	andsne.w	r3, r2, #4278190080	; 0xff000000
   825a8:	f093 4f7f 	teqne	r3, #4278190080	; 0xff000000
   825ac:	f081 5160 	eorne.w	r1, r1, #939524096	; 0x38000000
   825b0:	4770      	bxne	lr
   825b2:	f092 0f00 	teq	r2, #0
   825b6:	bf14      	ite	ne
   825b8:	f093 4f7f 	teqne	r3, #4278190080	; 0xff000000
   825bc:	4770      	bxeq	lr
   825be:	b530      	push	{r4, r5, lr}
   825c0:	f44f 7460 	mov.w	r4, #896	; 0x380
   825c4:	f001 4500 	and.w	r5, r1, #2147483648	; 0x80000000
   825c8:	f021 4100 	bic.w	r1, r1, #2147483648	; 0x80000000
   825cc:	e720      	b.n	82410 <__adddf3+0x138>
   825ce:	bf00      	nop

000825d0 <__aeabi_ul2d>:
   825d0:	ea50 0201 	orrs.w	r2, r0, r1
   825d4:	bf08      	it	eq
   825d6:	4770      	bxeq	lr
   825d8:	b530      	push	{r4, r5, lr}
   825da:	f04f 0500 	mov.w	r5, #0
   825de:	e00a      	b.n	825f6 <__aeabi_l2d+0x16>

000825e0 <__aeabi_l2d>:
   825e0:	ea50 0201 	orrs.w	r2, r0, r1
   825e4:	bf08      	it	eq
   825e6:	4770      	bxeq	lr
   825e8:	b530      	push	{r4, r5, lr}
   825ea:	f011 4500 	ands.w	r5, r1, #2147483648	; 0x80000000
   825ee:	d502      	bpl.n	825f6 <__aeabi_l2d+0x16>
   825f0:	4240      	negs	r0, r0
   825f2:	eb61 0141 	sbc.w	r1, r1, r1, lsl #1
   825f6:	f44f 6480 	mov.w	r4, #1024	; 0x400
   825fa:	f104 0432 	add.w	r4, r4, #50	; 0x32
   825fe:	ea5f 5c91 	movs.w	ip, r1, lsr #22
   82602:	f43f aedc 	beq.w	823be <__adddf3+0xe6>
   82606:	f04f 0203 	mov.w	r2, #3
   8260a:	ea5f 0cdc 	movs.w	ip, ip, lsr #3
   8260e:	bf18      	it	ne
   82610:	3203      	addne	r2, #3
   82612:	ea5f 0cdc 	movs.w	ip, ip, lsr #3
   82616:	bf18      	it	ne
   82618:	3203      	addne	r2, #3
   8261a:	eb02 02dc 	add.w	r2, r2, ip, lsr #3
   8261e:	f1c2 0320 	rsb	r3, r2, #32
   82622:	fa00 fc03 	lsl.w	ip, r0, r3
   82626:	fa20 f002 	lsr.w	r0, r0, r2
   8262a:	fa01 fe03 	lsl.w	lr, r1, r3
   8262e:	ea40 000e 	orr.w	r0, r0, lr
   82632:	fa21 f102 	lsr.w	r1, r1, r2
   82636:	4414      	add	r4, r2
   82638:	e6c1      	b.n	823be <__adddf3+0xe6>
   8263a:	bf00      	nop

0008263c <__aeabi_dmul>:
   8263c:	b570      	push	{r4, r5, r6, lr}
   8263e:	f04f 0cff 	mov.w	ip, #255	; 0xff
   82642:	f44c 6ce0 	orr.w	ip, ip, #1792	; 0x700
   82646:	ea1c 5411 	ands.w	r4, ip, r1, lsr #20
   8264a:	bf1d      	ittte	ne
   8264c:	ea1c 5513 	andsne.w	r5, ip, r3, lsr #20
   82650:	ea94 0f0c 	teqne	r4, ip
   82654:	ea95 0f0c 	teqne	r5, ip
   82658:	f000 f8de 	bleq	82818 <__aeabi_dmul+0x1dc>
   8265c:	442c      	add	r4, r5
   8265e:	ea81 0603 	eor.w	r6, r1, r3
   82662:	ea21 514c 	bic.w	r1, r1, ip, lsl #21
   82666:	ea23 534c 	bic.w	r3, r3, ip, lsl #21
   8266a:	ea50 3501 	orrs.w	r5, r0, r1, lsl #12
   8266e:	bf18      	it	ne
   82670:	ea52 3503 	orrsne.w	r5, r2, r3, lsl #12
   82674:	f441 1180 	orr.w	r1, r1, #1048576	; 0x100000
   82678:	f443 1380 	orr.w	r3, r3, #1048576	; 0x100000
   8267c:	d038      	beq.n	826f0 <__aeabi_dmul+0xb4>
   8267e:	fba0 ce02 	umull	ip, lr, r0, r2
   82682:	f04f 0500 	mov.w	r5, #0
   82686:	fbe1 e502 	umlal	lr, r5, r1, r2
   8268a:	f006 4200 	and.w	r2, r6, #2147483648	; 0x80000000
   8268e:	fbe0 e503 	umlal	lr, r5, r0, r3
   82692:	f04f 0600 	mov.w	r6, #0
   82696:	fbe1 5603 	umlal	r5, r6, r1, r3
   8269a:	f09c 0f00 	teq	ip, #0
   8269e:	bf18      	it	ne
   826a0:	f04e 0e01 	orrne.w	lr, lr, #1
   826a4:	f1a4 04ff 	sub.w	r4, r4, #255	; 0xff
   826a8:	f5b6 7f00 	cmp.w	r6, #512	; 0x200
   826ac:	f564 7440 	sbc.w	r4, r4, #768	; 0x300
   826b0:	d204      	bcs.n	826bc <__aeabi_dmul+0x80>
   826b2:	ea5f 0e4e 	movs.w	lr, lr, lsl #1
   826b6:	416d      	adcs	r5, r5
   826b8:	eb46 0606 	adc.w	r6, r6, r6
   826bc:	ea42 21c6 	orr.w	r1, r2, r6, lsl #11
   826c0:	ea41 5155 	orr.w	r1, r1, r5, lsr #21
   826c4:	ea4f 20c5 	mov.w	r0, r5, lsl #11
   826c8:	ea40 505e 	orr.w	r0, r0, lr, lsr #21
   826cc:	ea4f 2ece 	mov.w	lr, lr, lsl #11
   826d0:	f1b4 0cfd 	subs.w	ip, r4, #253	; 0xfd
   826d4:	bf88      	it	hi
   826d6:	f5bc 6fe0 	cmphi.w	ip, #1792	; 0x700
   826da:	d81e      	bhi.n	8271a <__aeabi_dmul+0xde>
   826dc:	f1be 4f00 	cmp.w	lr, #2147483648	; 0x80000000
   826e0:	bf08      	it	eq
   826e2:	ea5f 0e50 	movseq.w	lr, r0, lsr #1
   826e6:	f150 0000 	adcs.w	r0, r0, #0
   826ea:	eb41 5104 	adc.w	r1, r1, r4, lsl #20
   826ee:	bd70      	pop	{r4, r5, r6, pc}
   826f0:	f006 4600 	and.w	r6, r6, #2147483648	; 0x80000000
   826f4:	ea46 0101 	orr.w	r1, r6, r1
   826f8:	ea40 0002 	orr.w	r0, r0, r2
   826fc:	ea81 0103 	eor.w	r1, r1, r3
   82700:	ebb4 045c 	subs.w	r4, r4, ip, lsr #1
   82704:	bfc2      	ittt	gt
   82706:	ebd4 050c 	rsbsgt	r5, r4, ip
   8270a:	ea41 5104 	orrgt.w	r1, r1, r4, lsl #20
   8270e:	bd70      	popgt	{r4, r5, r6, pc}
   82710:	f441 1180 	orr.w	r1, r1, #1048576	; 0x100000
   82714:	f04f 0e00 	mov.w	lr, #0
   82718:	3c01      	subs	r4, #1
   8271a:	f300 80ab 	bgt.w	82874 <__aeabi_dmul+0x238>
   8271e:	f114 0f36 	cmn.w	r4, #54	; 0x36
   82722:	bfde      	ittt	le
   82724:	2000      	movle	r0, #0
   82726:	f001 4100 	andle.w	r1, r1, #2147483648	; 0x80000000
   8272a:	bd70      	pople	{r4, r5, r6, pc}
   8272c:	f1c4 0400 	rsb	r4, r4, #0
   82730:	3c20      	subs	r4, #32
   82732:	da35      	bge.n	827a0 <__aeabi_dmul+0x164>
   82734:	340c      	adds	r4, #12
   82736:	dc1b      	bgt.n	82770 <__aeabi_dmul+0x134>
   82738:	f104 0414 	add.w	r4, r4, #20
   8273c:	f1c4 0520 	rsb	r5, r4, #32
   82740:	fa00 f305 	lsl.w	r3, r0, r5
   82744:	fa20 f004 	lsr.w	r0, r0, r4
   82748:	fa01 f205 	lsl.w	r2, r1, r5
   8274c:	ea40 0002 	orr.w	r0, r0, r2
   82750:	f001 4200 	and.w	r2, r1, #2147483648	; 0x80000000
   82754:	f021 4100 	bic.w	r1, r1, #2147483648	; 0x80000000
   82758:	eb10 70d3 	adds.w	r0, r0, r3, lsr #31
   8275c:	fa21 f604 	lsr.w	r6, r1, r4
   82760:	eb42 0106 	adc.w	r1, r2, r6
   82764:	ea5e 0e43 	orrs.w	lr, lr, r3, lsl #1
   82768:	bf08      	it	eq
   8276a:	ea20 70d3 	biceq.w	r0, r0, r3, lsr #31
   8276e:	bd70      	pop	{r4, r5, r6, pc}
   82770:	f1c4 040c 	rsb	r4, r4, #12
   82774:	f1c4 0520 	rsb	r5, r4, #32
   82778:	fa00 f304 	lsl.w	r3, r0, r4
   8277c:	fa20 f005 	lsr.w	r0, r0, r5
   82780:	fa01 f204 	lsl.w	r2, r1, r4
   82784:	ea40 0002 	orr.w	r0, r0, r2
   82788:	f001 4100 	and.w	r1, r1, #2147483648	; 0x80000000
   8278c:	eb10 70d3 	adds.w	r0, r0, r3, lsr #31
   82790:	f141 0100 	adc.w	r1, r1, #0
   82794:	ea5e 0e43 	orrs.w	lr, lr, r3, lsl #1
   82798:	bf08      	it	eq
   8279a:	ea20 70d3 	biceq.w	r0, r0, r3, lsr #31
   8279e:	bd70      	pop	{r4, r5, r6, pc}
   827a0:	f1c4 0520 	rsb	r5, r4, #32
   827a4:	fa00 f205 	lsl.w	r2, r0, r5
   827a8:	ea4e 0e02 	orr.w	lr, lr, r2
   827ac:	fa20 f304 	lsr.w	r3, r0, r4
   827b0:	fa01 f205 	lsl.w	r2, r1, r5
   827b4:	ea43 0302 	orr.w	r3, r3, r2
   827b8:	fa21 f004 	lsr.w	r0, r1, r4
   827bc:	f001 4100 	and.w	r1, r1, #2147483648	; 0x80000000
   827c0:	fa21 f204 	lsr.w	r2, r1, r4
   827c4:	ea20 0002 	bic.w	r0, r0, r2
   827c8:	eb00 70d3 	add.w	r0, r0, r3, lsr #31
   827cc:	ea5e 0e43 	orrs.w	lr, lr, r3, lsl #1
   827d0:	bf08      	it	eq
   827d2:	ea20 70d3 	biceq.w	r0, r0, r3, lsr #31
   827d6:	bd70      	pop	{r4, r5, r6, pc}
   827d8:	f094 0f00 	teq	r4, #0
   827dc:	d10f      	bne.n	827fe <__aeabi_dmul+0x1c2>
   827de:	f001 4600 	and.w	r6, r1, #2147483648	; 0x80000000
   827e2:	0040      	lsls	r0, r0, #1
   827e4:	eb41 0101 	adc.w	r1, r1, r1
   827e8:	f411 1f80 	tst.w	r1, #1048576	; 0x100000
   827ec:	bf08      	it	eq
   827ee:	3c01      	subeq	r4, #1
   827f0:	d0f7      	beq.n	827e2 <__aeabi_dmul+0x1a6>
   827f2:	ea41 0106 	orr.w	r1, r1, r6
   827f6:	f095 0f00 	teq	r5, #0
   827fa:	bf18      	it	ne
   827fc:	4770      	bxne	lr
   827fe:	f003 4600 	and.w	r6, r3, #2147483648	; 0x80000000
   82802:	0052      	lsls	r2, r2, #1
   82804:	eb43 0303 	adc.w	r3, r3, r3
   82808:	f413 1f80 	tst.w	r3, #1048576	; 0x100000
   8280c:	bf08      	it	eq
   8280e:	3d01      	subeq	r5, #1
   82810:	d0f7      	beq.n	82802 <__aeabi_dmul+0x1c6>
   82812:	ea43 0306 	orr.w	r3, r3, r6
   82816:	4770      	bx	lr
   82818:	ea94 0f0c 	teq	r4, ip
   8281c:	ea0c 5513 	and.w	r5, ip, r3, lsr #20
   82820:	bf18      	it	ne
   82822:	ea95 0f0c 	teqne	r5, ip
   82826:	d00c      	beq.n	82842 <__aeabi_dmul+0x206>
   82828:	ea50 0641 	orrs.w	r6, r0, r1, lsl #1
   8282c:	bf18      	it	ne
   8282e:	ea52 0643 	orrsne.w	r6, r2, r3, lsl #1
   82832:	d1d1      	bne.n	827d8 <__aeabi_dmul+0x19c>
   82834:	ea81 0103 	eor.w	r1, r1, r3
   82838:	f001 4100 	and.w	r1, r1, #2147483648	; 0x80000000
   8283c:	f04f 0000 	mov.w	r0, #0
   82840:	bd70      	pop	{r4, r5, r6, pc}
   82842:	ea50 0641 	orrs.w	r6, r0, r1, lsl #1
   82846:	bf06      	itte	eq
   82848:	4610      	moveq	r0, r2
   8284a:	4619      	moveq	r1, r3
   8284c:	ea52 0643 	orrsne.w	r6, r2, r3, lsl #1
   82850:	d019      	beq.n	82886 <__aeabi_dmul+0x24a>
   82852:	ea94 0f0c 	teq	r4, ip
   82856:	d102      	bne.n	8285e <__aeabi_dmul+0x222>
   82858:	ea50 3601 	orrs.w	r6, r0, r1, lsl #12
   8285c:	d113      	bne.n	82886 <__aeabi_dmul+0x24a>
   8285e:	ea95 0f0c 	teq	r5, ip
   82862:	d105      	bne.n	82870 <__aeabi_dmul+0x234>
   82864:	ea52 3603 	orrs.w	r6, r2, r3, lsl #12
   82868:	bf1c      	itt	ne
   8286a:	4610      	movne	r0, r2
   8286c:	4619      	movne	r1, r3
   8286e:	d10a      	bne.n	82886 <__aeabi_dmul+0x24a>
   82870:	ea81 0103 	eor.w	r1, r1, r3
   82874:	f001 4100 	and.w	r1, r1, #2147483648	; 0x80000000
   82878:	f041 41fe 	orr.w	r1, r1, #2130706432	; 0x7f000000
   8287c:	f441 0170 	orr.w	r1, r1, #15728640	; 0xf00000
   82880:	f04f 0000 	mov.w	r0, #0
   82884:	bd70      	pop	{r4, r5, r6, pc}
   82886:	f041 41fe 	orr.w	r1, r1, #2130706432	; 0x7f000000
   8288a:	f441 0178 	orr.w	r1, r1, #16252928	; 0xf80000
   8288e:	bd70      	pop	{r4, r5, r6, pc}

00082890 <__aeabi_ddiv>:
   82890:	b570      	push	{r4, r5, r6, lr}
   82892:	f04f 0cff 	mov.w	ip, #255	; 0xff
   82896:	f44c 6ce0 	orr.w	ip, ip, #1792	; 0x700
   8289a:	ea1c 5411 	ands.w	r4, ip, r1, lsr #20
   8289e:	bf1d      	ittte	ne
   828a0:	ea1c 5513 	andsne.w	r5, ip, r3, lsr #20
   828a4:	ea94 0f0c 	teqne	r4, ip
   828a8:	ea95 0f0c 	teqne	r5, ip
   828ac:	f000 f8a7 	bleq	829fe <__aeabi_ddiv+0x16e>
   828b0:	eba4 0405 	sub.w	r4, r4, r5
   828b4:	ea81 0e03 	eor.w	lr, r1, r3
   828b8:	ea52 3503 	orrs.w	r5, r2, r3, lsl #12
   828bc:	ea4f 3101 	mov.w	r1, r1, lsl #12
   828c0:	f000 8088 	beq.w	829d4 <__aeabi_ddiv+0x144>
   828c4:	ea4f 3303 	mov.w	r3, r3, lsl #12
   828c8:	f04f 5580 	mov.w	r5, #268435456	; 0x10000000
   828cc:	ea45 1313 	orr.w	r3, r5, r3, lsr #4
   828d0:	ea43 6312 	orr.w	r3, r3, r2, lsr #24
   828d4:	ea4f 2202 	mov.w	r2, r2, lsl #8
   828d8:	ea45 1511 	orr.w	r5, r5, r1, lsr #4
   828dc:	ea45 6510 	orr.w	r5, r5, r0, lsr #24
   828e0:	ea4f 2600 	mov.w	r6, r0, lsl #8
   828e4:	f00e 4100 	and.w	r1, lr, #2147483648	; 0x80000000
   828e8:	429d      	cmp	r5, r3
   828ea:	bf08      	it	eq
   828ec:	4296      	cmpeq	r6, r2
   828ee:	f144 04fd 	adc.w	r4, r4, #253	; 0xfd
   828f2:	f504 7440 	add.w	r4, r4, #768	; 0x300
   828f6:	d202      	bcs.n	828fe <__aeabi_ddiv+0x6e>
   828f8:	085b      	lsrs	r3, r3, #1
   828fa:	ea4f 0232 	mov.w	r2, r2, rrx
   828fe:	1ab6      	subs	r6, r6, r2
   82900:	eb65 0503 	sbc.w	r5, r5, r3
   82904:	085b      	lsrs	r3, r3, #1
   82906:	ea4f 0232 	mov.w	r2, r2, rrx
   8290a:	f44f 1080 	mov.w	r0, #1048576	; 0x100000
   8290e:	f44f 2c00 	mov.w	ip, #524288	; 0x80000
   82912:	ebb6 0e02 	subs.w	lr, r6, r2
   82916:	eb75 0e03 	sbcs.w	lr, r5, r3
   8291a:	bf22      	ittt	cs
   8291c:	1ab6      	subcs	r6, r6, r2
   8291e:	4675      	movcs	r5, lr
   82920:	ea40 000c 	orrcs.w	r0, r0, ip
   82924:	085b      	lsrs	r3, r3, #1
   82926:	ea4f 0232 	mov.w	r2, r2, rrx
   8292a:	ebb6 0e02 	subs.w	lr, r6, r2
   8292e:	eb75 0e03 	sbcs.w	lr, r5, r3
   82932:	bf22      	ittt	cs
   82934:	1ab6      	subcs	r6, r6, r2
   82936:	4675      	movcs	r5, lr
   82938:	ea40 005c 	orrcs.w	r0, r0, ip, lsr #1
   8293c:	085b      	lsrs	r3, r3, #1
   8293e:	ea4f 0232 	mov.w	r2, r2, rrx
   82942:	ebb6 0e02 	subs.w	lr, r6, r2
   82946:	eb75 0e03 	sbcs.w	lr, r5, r3
   8294a:	bf22      	ittt	cs
   8294c:	1ab6      	subcs	r6, r6, r2
   8294e:	4675      	movcs	r5, lr
   82950:	ea40 009c 	orrcs.w	r0, r0, ip, lsr #2
   82954:	085b      	lsrs	r3, r3, #1
   82956:	ea4f 0232 	mov.w	r2, r2, rrx
   8295a:	ebb6 0e02 	subs.w	lr, r6, r2
   8295e:	eb75 0e03 	sbcs.w	lr, r5, r3
   82962:	bf22      	ittt	cs
   82964:	1ab6      	subcs	r6, r6, r2
   82966:	4675      	movcs	r5, lr
   82968:	ea40 00dc 	orrcs.w	r0, r0, ip, lsr #3
   8296c:	ea55 0e06 	orrs.w	lr, r5, r6
   82970:	d018      	beq.n	829a4 <__aeabi_ddiv+0x114>
   82972:	ea4f 1505 	mov.w	r5, r5, lsl #4
   82976:	ea45 7516 	orr.w	r5, r5, r6, lsr #28
   8297a:	ea4f 1606 	mov.w	r6, r6, lsl #4
   8297e:	ea4f 03c3 	mov.w	r3, r3, lsl #3
   82982:	ea43 7352 	orr.w	r3, r3, r2, lsr #29
   82986:	ea4f 02c2 	mov.w	r2, r2, lsl #3
   8298a:	ea5f 1c1c 	movs.w	ip, ip, lsr #4
   8298e:	d1c0      	bne.n	82912 <__aeabi_ddiv+0x82>
   82990:	f411 1f80 	tst.w	r1, #1048576	; 0x100000
   82994:	d10b      	bne.n	829ae <__aeabi_ddiv+0x11e>
   82996:	ea41 0100 	orr.w	r1, r1, r0
   8299a:	f04f 0000 	mov.w	r0, #0
   8299e:	f04f 4c00 	mov.w	ip, #2147483648	; 0x80000000
   829a2:	e7b6      	b.n	82912 <__aeabi_ddiv+0x82>
   829a4:	f411 1f80 	tst.w	r1, #1048576	; 0x100000
   829a8:	bf04      	itt	eq
   829aa:	4301      	orreq	r1, r0
   829ac:	2000      	moveq	r0, #0
   829ae:	f1b4 0cfd 	subs.w	ip, r4, #253	; 0xfd
   829b2:	bf88      	it	hi
   829b4:	f5bc 6fe0 	cmphi.w	ip, #1792	; 0x700
   829b8:	f63f aeaf 	bhi.w	8271a <__aeabi_dmul+0xde>
   829bc:	ebb5 0c03 	subs.w	ip, r5, r3
   829c0:	bf04      	itt	eq
   829c2:	ebb6 0c02 	subseq.w	ip, r6, r2
   829c6:	ea5f 0c50 	movseq.w	ip, r0, lsr #1
   829ca:	f150 0000 	adcs.w	r0, r0, #0
   829ce:	eb41 5104 	adc.w	r1, r1, r4, lsl #20
   829d2:	bd70      	pop	{r4, r5, r6, pc}
   829d4:	f00e 4e00 	and.w	lr, lr, #2147483648	; 0x80000000
   829d8:	ea4e 3111 	orr.w	r1, lr, r1, lsr #12
   829dc:	eb14 045c 	adds.w	r4, r4, ip, lsr #1
   829e0:	bfc2      	ittt	gt
   829e2:	ebd4 050c 	rsbsgt	r5, r4, ip
   829e6:	ea41 5104 	orrgt.w	r1, r1, r4, lsl #20
   829ea:	bd70      	popgt	{r4, r5, r6, pc}
   829ec:	f441 1180 	orr.w	r1, r1, #1048576	; 0x100000
   829f0:	f04f 0e00 	mov.w	lr, #0
   829f4:	3c01      	subs	r4, #1
   829f6:	e690      	b.n	8271a <__aeabi_dmul+0xde>
   829f8:	ea45 0e06 	orr.w	lr, r5, r6
   829fc:	e68d      	b.n	8271a <__aeabi_dmul+0xde>
   829fe:	ea0c 5513 	and.w	r5, ip, r3, lsr #20
   82a02:	ea94 0f0c 	teq	r4, ip
   82a06:	bf08      	it	eq
   82a08:	ea95 0f0c 	teqeq	r5, ip
   82a0c:	f43f af3b 	beq.w	82886 <__aeabi_dmul+0x24a>
   82a10:	ea94 0f0c 	teq	r4, ip
   82a14:	d10a      	bne.n	82a2c <__aeabi_ddiv+0x19c>
   82a16:	ea50 3401 	orrs.w	r4, r0, r1, lsl #12
   82a1a:	f47f af34 	bne.w	82886 <__aeabi_dmul+0x24a>
   82a1e:	ea95 0f0c 	teq	r5, ip
   82a22:	f47f af25 	bne.w	82870 <__aeabi_dmul+0x234>
   82a26:	4610      	mov	r0, r2
   82a28:	4619      	mov	r1, r3
   82a2a:	e72c      	b.n	82886 <__aeabi_dmul+0x24a>
   82a2c:	ea95 0f0c 	teq	r5, ip
   82a30:	d106      	bne.n	82a40 <__aeabi_ddiv+0x1b0>
   82a32:	ea52 3503 	orrs.w	r5, r2, r3, lsl #12
   82a36:	f43f aefd 	beq.w	82834 <__aeabi_dmul+0x1f8>
   82a3a:	4610      	mov	r0, r2
   82a3c:	4619      	mov	r1, r3
   82a3e:	e722      	b.n	82886 <__aeabi_dmul+0x24a>
   82a40:	ea50 0641 	orrs.w	r6, r0, r1, lsl #1
   82a44:	bf18      	it	ne
   82a46:	ea52 0643 	orrsne.w	r6, r2, r3, lsl #1
   82a4a:	f47f aec5 	bne.w	827d8 <__aeabi_dmul+0x19c>
   82a4e:	ea50 0441 	orrs.w	r4, r0, r1, lsl #1
   82a52:	f47f af0d 	bne.w	82870 <__aeabi_dmul+0x234>
   82a56:	ea52 0543 	orrs.w	r5, r2, r3, lsl #1
   82a5a:	f47f aeeb 	bne.w	82834 <__aeabi_dmul+0x1f8>
   82a5e:	e712      	b.n	82886 <__aeabi_dmul+0x24a>

00082a60 <__aeabi_d2uiz>:
   82a60:	004a      	lsls	r2, r1, #1
   82a62:	d211      	bcs.n	82a88 <__aeabi_d2uiz+0x28>
   82a64:	f512 1200 	adds.w	r2, r2, #2097152	; 0x200000
   82a68:	d211      	bcs.n	82a8e <__aeabi_d2uiz+0x2e>
   82a6a:	d50d      	bpl.n	82a88 <__aeabi_d2uiz+0x28>
   82a6c:	f46f 7378 	mvn.w	r3, #992	; 0x3e0
   82a70:	ebb3 5262 	subs.w	r2, r3, r2, asr #21
   82a74:	d40e      	bmi.n	82a94 <__aeabi_d2uiz+0x34>
   82a76:	ea4f 23c1 	mov.w	r3, r1, lsl #11
   82a7a:	f043 4300 	orr.w	r3, r3, #2147483648	; 0x80000000
   82a7e:	ea43 5350 	orr.w	r3, r3, r0, lsr #21
   82a82:	fa23 f002 	lsr.w	r0, r3, r2
   82a86:	4770      	bx	lr
   82a88:	f04f 0000 	mov.w	r0, #0
   82a8c:	4770      	bx	lr
   82a8e:	ea50 3001 	orrs.w	r0, r0, r1, lsl #12
   82a92:	d102      	bne.n	82a9a <__aeabi_d2uiz+0x3a>
   82a94:	f04f 30ff 	mov.w	r0, #4294967295
   82a98:	4770      	bx	lr
   82a9a:	f04f 0000 	mov.w	r0, #0
   82a9e:	4770      	bx	lr

00082aa0 <__libc_init_array>:
   82aa0:	b570      	push	{r4, r5, r6, lr}
   82aa2:	4e0f      	ldr	r6, [pc, #60]	; (82ae0 <__libc_init_array+0x40>)
   82aa4:	4d0f      	ldr	r5, [pc, #60]	; (82ae4 <__libc_init_array+0x44>)
   82aa6:	1b76      	subs	r6, r6, r5
   82aa8:	10b6      	asrs	r6, r6, #2
   82aaa:	bf18      	it	ne
   82aac:	2400      	movne	r4, #0
   82aae:	d005      	beq.n	82abc <__libc_init_array+0x1c>
   82ab0:	3401      	adds	r4, #1
   82ab2:	f855 3b04 	ldr.w	r3, [r5], #4
   82ab6:	4798      	blx	r3
   82ab8:	42a6      	cmp	r6, r4
   82aba:	d1f9      	bne.n	82ab0 <__libc_init_array+0x10>
   82abc:	4e0a      	ldr	r6, [pc, #40]	; (82ae8 <__libc_init_array+0x48>)
   82abe:	4d0b      	ldr	r5, [pc, #44]	; (82aec <__libc_init_array+0x4c>)
   82ac0:	f000 fd1e 	bl	83500 <_init>
   82ac4:	1b76      	subs	r6, r6, r5
   82ac6:	10b6      	asrs	r6, r6, #2
   82ac8:	bf18      	it	ne
   82aca:	2400      	movne	r4, #0
   82acc:	d006      	beq.n	82adc <__libc_init_array+0x3c>
   82ace:	3401      	adds	r4, #1
   82ad0:	f855 3b04 	ldr.w	r3, [r5], #4
   82ad4:	4798      	blx	r3
   82ad6:	42a6      	cmp	r6, r4
   82ad8:	d1f9      	bne.n	82ace <__libc_init_array+0x2e>
   82ada:	bd70      	pop	{r4, r5, r6, pc}
   82adc:	bd70      	pop	{r4, r5, r6, pc}
   82ade:	bf00      	nop
   82ae0:	0008350c 	.word	0x0008350c
   82ae4:	0008350c 	.word	0x0008350c
   82ae8:	00083514 	.word	0x00083514
   82aec:	0008350c 	.word	0x0008350c

00082af0 <malloc>:
   82af0:	4b02      	ldr	r3, [pc, #8]	; (82afc <malloc+0xc>)
   82af2:	4601      	mov	r1, r0
   82af4:	6818      	ldr	r0, [r3, #0]
   82af6:	f000 b803 	b.w	82b00 <_malloc_r>
   82afa:	bf00      	nop
   82afc:	20070518 	.word	0x20070518

00082b00 <_malloc_r>:
   82b00:	e92d 4ff0 	stmdb	sp!, {r4, r5, r6, r7, r8, r9, sl, fp, lr}
   82b04:	f101 050b 	add.w	r5, r1, #11
   82b08:	2d16      	cmp	r5, #22
   82b0a:	b083      	sub	sp, #12
   82b0c:	4606      	mov	r6, r0
   82b0e:	f240 80a0 	bls.w	82c52 <_malloc_r+0x152>
   82b12:	f035 0507 	bics.w	r5, r5, #7
   82b16:	f100 80c0 	bmi.w	82c9a <_malloc_r+0x19a>
   82b1a:	42a9      	cmp	r1, r5
   82b1c:	f200 80bd 	bhi.w	82c9a <_malloc_r+0x19a>
   82b20:	f000 fa9a 	bl	83058 <__malloc_lock>
   82b24:	f5b5 7ffc 	cmp.w	r5, #504	; 0x1f8
   82b28:	f0c0 8290 	bcc.w	8304c <_malloc_r+0x54c>
   82b2c:	0a6b      	lsrs	r3, r5, #9
   82b2e:	f000 80bb 	beq.w	82ca8 <_malloc_r+0x1a8>
   82b32:	2b04      	cmp	r3, #4
   82b34:	f200 8177 	bhi.w	82e26 <_malloc_r+0x326>
   82b38:	09a8      	lsrs	r0, r5, #6
   82b3a:	f100 0e39 	add.w	lr, r0, #57	; 0x39
   82b3e:	ea4f 014e 	mov.w	r1, lr, lsl #1
   82b42:	3038      	adds	r0, #56	; 0x38
   82b44:	4fbe      	ldr	r7, [pc, #760]	; (82e40 <_malloc_r+0x340>)
   82b46:	eb07 0181 	add.w	r1, r7, r1, lsl #2
   82b4a:	684c      	ldr	r4, [r1, #4]
   82b4c:	3908      	subs	r1, #8
   82b4e:	42a1      	cmp	r1, r4
   82b50:	d107      	bne.n	82b62 <_malloc_r+0x62>
   82b52:	e0ae      	b.n	82cb2 <_malloc_r+0x1b2>
   82b54:	2a00      	cmp	r2, #0
   82b56:	f280 80ae 	bge.w	82cb6 <_malloc_r+0x1b6>
   82b5a:	68e4      	ldr	r4, [r4, #12]
   82b5c:	42a1      	cmp	r1, r4
   82b5e:	f000 80a8 	beq.w	82cb2 <_malloc_r+0x1b2>
   82b62:	6863      	ldr	r3, [r4, #4]
   82b64:	f023 0303 	bic.w	r3, r3, #3
   82b68:	1b5a      	subs	r2, r3, r5
   82b6a:	2a0f      	cmp	r2, #15
   82b6c:	ddf2      	ble.n	82b54 <_malloc_r+0x54>
   82b6e:	49b4      	ldr	r1, [pc, #720]	; (82e40 <_malloc_r+0x340>)
   82b70:	693c      	ldr	r4, [r7, #16]
   82b72:	f101 0e08 	add.w	lr, r1, #8
   82b76:	4574      	cmp	r4, lr
   82b78:	f000 81a8 	beq.w	82ecc <_malloc_r+0x3cc>
   82b7c:	6863      	ldr	r3, [r4, #4]
   82b7e:	f023 0303 	bic.w	r3, r3, #3
   82b82:	1b5a      	subs	r2, r3, r5
   82b84:	2a0f      	cmp	r2, #15
   82b86:	f300 818e 	bgt.w	82ea6 <_malloc_r+0x3a6>
   82b8a:	2a00      	cmp	r2, #0
   82b8c:	f8c1 e014 	str.w	lr, [r1, #20]
   82b90:	f8c1 e010 	str.w	lr, [r1, #16]
   82b94:	f280 8093 	bge.w	82cbe <_malloc_r+0x1be>
   82b98:	f5b3 7f00 	cmp.w	r3, #512	; 0x200
   82b9c:	f080 815c 	bcs.w	82e58 <_malloc_r+0x358>
   82ba0:	08db      	lsrs	r3, r3, #3
   82ba2:	684a      	ldr	r2, [r1, #4]
   82ba4:	ea4f 09a3 	mov.w	r9, r3, asr #2
   82ba8:	f04f 0c01 	mov.w	ip, #1
   82bac:	3301      	adds	r3, #1
   82bae:	f851 8033 	ldr.w	r8, [r1, r3, lsl #3]
   82bb2:	fa0c f909 	lsl.w	r9, ip, r9
   82bb6:	eb01 0cc3 	add.w	ip, r1, r3, lsl #3
   82bba:	ea49 0202 	orr.w	r2, r9, r2
   82bbe:	f1ac 0c08 	sub.w	ip, ip, #8
   82bc2:	f8c4 c00c 	str.w	ip, [r4, #12]
   82bc6:	f8c4 8008 	str.w	r8, [r4, #8]
   82bca:	604a      	str	r2, [r1, #4]
   82bcc:	f841 4033 	str.w	r4, [r1, r3, lsl #3]
   82bd0:	f8c8 400c 	str.w	r4, [r8, #12]
   82bd4:	1083      	asrs	r3, r0, #2
   82bd6:	2401      	movs	r4, #1
   82bd8:	409c      	lsls	r4, r3
   82bda:	4294      	cmp	r4, r2
   82bdc:	d87c      	bhi.n	82cd8 <_malloc_r+0x1d8>
   82bde:	4214      	tst	r4, r2
   82be0:	d106      	bne.n	82bf0 <_malloc_r+0xf0>
   82be2:	f020 0003 	bic.w	r0, r0, #3
   82be6:	0064      	lsls	r4, r4, #1
   82be8:	4214      	tst	r4, r2
   82bea:	f100 0004 	add.w	r0, r0, #4
   82bee:	d0fa      	beq.n	82be6 <_malloc_r+0xe6>
   82bf0:	eb07 09c0 	add.w	r9, r7, r0, lsl #3
   82bf4:	46cc      	mov	ip, r9
   82bf6:	4680      	mov	r8, r0
   82bf8:	f8dc 100c 	ldr.w	r1, [ip, #12]
   82bfc:	458c      	cmp	ip, r1
   82bfe:	d107      	bne.n	82c10 <_malloc_r+0x110>
   82c00:	e166      	b.n	82ed0 <_malloc_r+0x3d0>
   82c02:	2a00      	cmp	r2, #0
   82c04:	f280 8174 	bge.w	82ef0 <_malloc_r+0x3f0>
   82c08:	68c9      	ldr	r1, [r1, #12]
   82c0a:	458c      	cmp	ip, r1
   82c0c:	f000 8160 	beq.w	82ed0 <_malloc_r+0x3d0>
   82c10:	684b      	ldr	r3, [r1, #4]
   82c12:	f023 0303 	bic.w	r3, r3, #3
   82c16:	1b5a      	subs	r2, r3, r5
   82c18:	2a0f      	cmp	r2, #15
   82c1a:	ddf2      	ble.n	82c02 <_malloc_r+0x102>
   82c1c:	460c      	mov	r4, r1
   82c1e:	68cb      	ldr	r3, [r1, #12]
   82c20:	f854 cf08 	ldr.w	ip, [r4, #8]!
   82c24:	f045 0801 	orr.w	r8, r5, #1
   82c28:	f8c1 8004 	str.w	r8, [r1, #4]
   82c2c:	440d      	add	r5, r1
   82c2e:	f042 0101 	orr.w	r1, r2, #1
   82c32:	f8cc 300c 	str.w	r3, [ip, #12]
   82c36:	4630      	mov	r0, r6
   82c38:	f8c3 c008 	str.w	ip, [r3, #8]
   82c3c:	617d      	str	r5, [r7, #20]
   82c3e:	613d      	str	r5, [r7, #16]
   82c40:	f8c5 e00c 	str.w	lr, [r5, #12]
   82c44:	f8c5 e008 	str.w	lr, [r5, #8]
   82c48:	6069      	str	r1, [r5, #4]
   82c4a:	50aa      	str	r2, [r5, r2]
   82c4c:	f000 fa06 	bl	8305c <__malloc_unlock>
   82c50:	e01f      	b.n	82c92 <_malloc_r+0x192>
   82c52:	2910      	cmp	r1, #16
   82c54:	d821      	bhi.n	82c9a <_malloc_r+0x19a>
   82c56:	f000 f9ff 	bl	83058 <__malloc_lock>
   82c5a:	2510      	movs	r5, #16
   82c5c:	2306      	movs	r3, #6
   82c5e:	2002      	movs	r0, #2
   82c60:	4f77      	ldr	r7, [pc, #476]	; (82e40 <_malloc_r+0x340>)
   82c62:	eb07 0383 	add.w	r3, r7, r3, lsl #2
   82c66:	685c      	ldr	r4, [r3, #4]
   82c68:	f1a3 0208 	sub.w	r2, r3, #8
   82c6c:	4294      	cmp	r4, r2
   82c6e:	f000 8138 	beq.w	82ee2 <_malloc_r+0x3e2>
   82c72:	6863      	ldr	r3, [r4, #4]
   82c74:	68e1      	ldr	r1, [r4, #12]
   82c76:	f023 0303 	bic.w	r3, r3, #3
   82c7a:	4423      	add	r3, r4
   82c7c:	685a      	ldr	r2, [r3, #4]
   82c7e:	68a5      	ldr	r5, [r4, #8]
   82c80:	f042 0201 	orr.w	r2, r2, #1
   82c84:	60e9      	str	r1, [r5, #12]
   82c86:	4630      	mov	r0, r6
   82c88:	608d      	str	r5, [r1, #8]
   82c8a:	605a      	str	r2, [r3, #4]
   82c8c:	f000 f9e6 	bl	8305c <__malloc_unlock>
   82c90:	3408      	adds	r4, #8
   82c92:	4620      	mov	r0, r4
   82c94:	b003      	add	sp, #12
   82c96:	e8bd 8ff0 	ldmia.w	sp!, {r4, r5, r6, r7, r8, r9, sl, fp, pc}
   82c9a:	2400      	movs	r4, #0
   82c9c:	4620      	mov	r0, r4
   82c9e:	230c      	movs	r3, #12
   82ca0:	6033      	str	r3, [r6, #0]
   82ca2:	b003      	add	sp, #12
   82ca4:	e8bd 8ff0 	ldmia.w	sp!, {r4, r5, r6, r7, r8, r9, sl, fp, pc}
   82ca8:	2180      	movs	r1, #128	; 0x80
   82caa:	f04f 0e40 	mov.w	lr, #64	; 0x40
   82cae:	203f      	movs	r0, #63	; 0x3f
   82cb0:	e748      	b.n	82b44 <_malloc_r+0x44>
   82cb2:	4670      	mov	r0, lr
   82cb4:	e75b      	b.n	82b6e <_malloc_r+0x6e>
   82cb6:	4423      	add	r3, r4
   82cb8:	685a      	ldr	r2, [r3, #4]
   82cba:	68e1      	ldr	r1, [r4, #12]
   82cbc:	e7df      	b.n	82c7e <_malloc_r+0x17e>
   82cbe:	4423      	add	r3, r4
   82cc0:	685a      	ldr	r2, [r3, #4]
   82cc2:	4630      	mov	r0, r6
   82cc4:	f042 0201 	orr.w	r2, r2, #1
   82cc8:	605a      	str	r2, [r3, #4]
   82cca:	3408      	adds	r4, #8
   82ccc:	f000 f9c6 	bl	8305c <__malloc_unlock>
   82cd0:	4620      	mov	r0, r4
   82cd2:	b003      	add	sp, #12
   82cd4:	e8bd 8ff0 	ldmia.w	sp!, {r4, r5, r6, r7, r8, r9, sl, fp, pc}
   82cd8:	68bc      	ldr	r4, [r7, #8]
   82cda:	6863      	ldr	r3, [r4, #4]
   82cdc:	f023 0803 	bic.w	r8, r3, #3
   82ce0:	45a8      	cmp	r8, r5
   82ce2:	d304      	bcc.n	82cee <_malloc_r+0x1ee>
   82ce4:	ebc5 0308 	rsb	r3, r5, r8
   82ce8:	2b0f      	cmp	r3, #15
   82cea:	f300 808c 	bgt.w	82e06 <_malloc_r+0x306>
   82cee:	4b55      	ldr	r3, [pc, #340]	; (82e44 <_malloc_r+0x344>)
   82cf0:	f8df 9160 	ldr.w	r9, [pc, #352]	; 82e54 <_malloc_r+0x354>
   82cf4:	681a      	ldr	r2, [r3, #0]
   82cf6:	f8d9 3000 	ldr.w	r3, [r9]
   82cfa:	442a      	add	r2, r5
   82cfc:	3301      	adds	r3, #1
   82cfe:	eb04 0a08 	add.w	sl, r4, r8
   82d02:	f000 8160 	beq.w	82fc6 <_malloc_r+0x4c6>
   82d06:	f502 5280 	add.w	r2, r2, #4096	; 0x1000
   82d0a:	320f      	adds	r2, #15
   82d0c:	f422 627f 	bic.w	r2, r2, #4080	; 0xff0
   82d10:	f022 020f 	bic.w	r2, r2, #15
   82d14:	4611      	mov	r1, r2
   82d16:	4630      	mov	r0, r6
   82d18:	9201      	str	r2, [sp, #4]
   82d1a:	f000 f9a1 	bl	83060 <_sbrk_r>
   82d1e:	f1b0 3fff 	cmp.w	r0, #4294967295
   82d22:	4683      	mov	fp, r0
   82d24:	9a01      	ldr	r2, [sp, #4]
   82d26:	f000 8158 	beq.w	82fda <_malloc_r+0x4da>
   82d2a:	4582      	cmp	sl, r0
   82d2c:	f200 80fc 	bhi.w	82f28 <_malloc_r+0x428>
   82d30:	4b45      	ldr	r3, [pc, #276]	; (82e48 <_malloc_r+0x348>)
   82d32:	45da      	cmp	sl, fp
   82d34:	6819      	ldr	r1, [r3, #0]
   82d36:	4411      	add	r1, r2
   82d38:	6019      	str	r1, [r3, #0]
   82d3a:	f000 8153 	beq.w	82fe4 <_malloc_r+0x4e4>
   82d3e:	f8d9 0000 	ldr.w	r0, [r9]
   82d42:	f8df e110 	ldr.w	lr, [pc, #272]	; 82e54 <_malloc_r+0x354>
   82d46:	3001      	adds	r0, #1
   82d48:	bf1b      	ittet	ne
   82d4a:	ebca 0a0b 	rsbne	sl, sl, fp
   82d4e:	4451      	addne	r1, sl
   82d50:	f8ce b000 	streq.w	fp, [lr]
   82d54:	6019      	strne	r1, [r3, #0]
   82d56:	f01b 0107 	ands.w	r1, fp, #7
   82d5a:	f000 8117 	beq.w	82f8c <_malloc_r+0x48c>
   82d5e:	f1c1 0008 	rsb	r0, r1, #8
   82d62:	f5c1 5180 	rsb	r1, r1, #4096	; 0x1000
   82d66:	4483      	add	fp, r0
   82d68:	3108      	adds	r1, #8
   82d6a:	445a      	add	r2, fp
   82d6c:	f3c2 020b 	ubfx	r2, r2, #0, #12
   82d70:	ebc2 0901 	rsb	r9, r2, r1
   82d74:	4649      	mov	r1, r9
   82d76:	4630      	mov	r0, r6
   82d78:	9301      	str	r3, [sp, #4]
   82d7a:	f000 f971 	bl	83060 <_sbrk_r>
   82d7e:	1c43      	adds	r3, r0, #1
   82d80:	9b01      	ldr	r3, [sp, #4]
   82d82:	f000 813f 	beq.w	83004 <_malloc_r+0x504>
   82d86:	ebcb 0200 	rsb	r2, fp, r0
   82d8a:	444a      	add	r2, r9
   82d8c:	f042 0201 	orr.w	r2, r2, #1
   82d90:	6819      	ldr	r1, [r3, #0]
   82d92:	42bc      	cmp	r4, r7
   82d94:	4449      	add	r1, r9
   82d96:	f8c7 b008 	str.w	fp, [r7, #8]
   82d9a:	6019      	str	r1, [r3, #0]
   82d9c:	f8cb 2004 	str.w	r2, [fp, #4]
   82da0:	f8df 90a4 	ldr.w	r9, [pc, #164]	; 82e48 <_malloc_r+0x348>
   82da4:	d016      	beq.n	82dd4 <_malloc_r+0x2d4>
   82da6:	f1b8 0f0f 	cmp.w	r8, #15
   82daa:	f240 80fd 	bls.w	82fa8 <_malloc_r+0x4a8>
   82dae:	6862      	ldr	r2, [r4, #4]
   82db0:	f1a8 030c 	sub.w	r3, r8, #12
   82db4:	f023 0307 	bic.w	r3, r3, #7
   82db8:	f002 0201 	and.w	r2, r2, #1
   82dbc:	18e0      	adds	r0, r4, r3
   82dbe:	f04f 0e05 	mov.w	lr, #5
   82dc2:	431a      	orrs	r2, r3
   82dc4:	2b0f      	cmp	r3, #15
   82dc6:	6062      	str	r2, [r4, #4]
   82dc8:	f8c0 e004 	str.w	lr, [r0, #4]
   82dcc:	f8c0 e008 	str.w	lr, [r0, #8]
   82dd0:	f200 811c 	bhi.w	8300c <_malloc_r+0x50c>
   82dd4:	4b1d      	ldr	r3, [pc, #116]	; (82e4c <_malloc_r+0x34c>)
   82dd6:	68bc      	ldr	r4, [r7, #8]
   82dd8:	681a      	ldr	r2, [r3, #0]
   82dda:	4291      	cmp	r1, r2
   82ddc:	bf88      	it	hi
   82dde:	6019      	strhi	r1, [r3, #0]
   82de0:	4b1b      	ldr	r3, [pc, #108]	; (82e50 <_malloc_r+0x350>)
   82de2:	681a      	ldr	r2, [r3, #0]
   82de4:	4291      	cmp	r1, r2
   82de6:	6862      	ldr	r2, [r4, #4]
   82de8:	bf88      	it	hi
   82dea:	6019      	strhi	r1, [r3, #0]
   82dec:	f022 0203 	bic.w	r2, r2, #3
   82df0:	4295      	cmp	r5, r2
   82df2:	eba2 0305 	sub.w	r3, r2, r5
   82df6:	d801      	bhi.n	82dfc <_malloc_r+0x2fc>
   82df8:	2b0f      	cmp	r3, #15
   82dfa:	dc04      	bgt.n	82e06 <_malloc_r+0x306>
   82dfc:	4630      	mov	r0, r6
   82dfe:	f000 f92d 	bl	8305c <__malloc_unlock>
   82e02:	2400      	movs	r4, #0
   82e04:	e745      	b.n	82c92 <_malloc_r+0x192>
   82e06:	f045 0201 	orr.w	r2, r5, #1
   82e0a:	f043 0301 	orr.w	r3, r3, #1
   82e0e:	4425      	add	r5, r4
   82e10:	6062      	str	r2, [r4, #4]
   82e12:	4630      	mov	r0, r6
   82e14:	60bd      	str	r5, [r7, #8]
   82e16:	3408      	adds	r4, #8
   82e18:	606b      	str	r3, [r5, #4]
   82e1a:	f000 f91f 	bl	8305c <__malloc_unlock>
   82e1e:	4620      	mov	r0, r4
   82e20:	b003      	add	sp, #12
   82e22:	e8bd 8ff0 	ldmia.w	sp!, {r4, r5, r6, r7, r8, r9, sl, fp, pc}
   82e26:	2b14      	cmp	r3, #20
   82e28:	d971      	bls.n	82f0e <_malloc_r+0x40e>
   82e2a:	2b54      	cmp	r3, #84	; 0x54
   82e2c:	f200 80a4 	bhi.w	82f78 <_malloc_r+0x478>
   82e30:	0b28      	lsrs	r0, r5, #12
   82e32:	f100 0e6f 	add.w	lr, r0, #111	; 0x6f
   82e36:	ea4f 014e 	mov.w	r1, lr, lsl #1
   82e3a:	306e      	adds	r0, #110	; 0x6e
   82e3c:	e682      	b.n	82b44 <_malloc_r+0x44>
   82e3e:	bf00      	nop
   82e40:	2007051c 	.word	0x2007051c
   82e44:	20070954 	.word	0x20070954
   82e48:	20070958 	.word	0x20070958
   82e4c:	20070950 	.word	0x20070950
   82e50:	2007094c 	.word	0x2007094c
   82e54:	20070928 	.word	0x20070928
   82e58:	0a5a      	lsrs	r2, r3, #9
   82e5a:	2a04      	cmp	r2, #4
   82e5c:	d95e      	bls.n	82f1c <_malloc_r+0x41c>
   82e5e:	2a14      	cmp	r2, #20
   82e60:	f200 80b3 	bhi.w	82fca <_malloc_r+0x4ca>
   82e64:	f102 015c 	add.w	r1, r2, #92	; 0x5c
   82e68:	0049      	lsls	r1, r1, #1
   82e6a:	325b      	adds	r2, #91	; 0x5b
   82e6c:	eb07 0c81 	add.w	ip, r7, r1, lsl #2
   82e70:	f857 1021 	ldr.w	r1, [r7, r1, lsl #2]
   82e74:	f1ac 0c08 	sub.w	ip, ip, #8
   82e78:	458c      	cmp	ip, r1
   82e7a:	f8df 81d8 	ldr.w	r8, [pc, #472]	; 83054 <_malloc_r+0x554>
   82e7e:	f000 8088 	beq.w	82f92 <_malloc_r+0x492>
   82e82:	684a      	ldr	r2, [r1, #4]
   82e84:	f022 0203 	bic.w	r2, r2, #3
   82e88:	4293      	cmp	r3, r2
   82e8a:	d202      	bcs.n	82e92 <_malloc_r+0x392>
   82e8c:	6889      	ldr	r1, [r1, #8]
   82e8e:	458c      	cmp	ip, r1
   82e90:	d1f7      	bne.n	82e82 <_malloc_r+0x382>
   82e92:	f8d1 c00c 	ldr.w	ip, [r1, #12]
   82e96:	687a      	ldr	r2, [r7, #4]
   82e98:	f8c4 c00c 	str.w	ip, [r4, #12]
   82e9c:	60a1      	str	r1, [r4, #8]
   82e9e:	f8cc 4008 	str.w	r4, [ip, #8]
   82ea2:	60cc      	str	r4, [r1, #12]
   82ea4:	e696      	b.n	82bd4 <_malloc_r+0xd4>
   82ea6:	f045 0701 	orr.w	r7, r5, #1
   82eaa:	f042 0301 	orr.w	r3, r2, #1
   82eae:	4425      	add	r5, r4
   82eb0:	6067      	str	r7, [r4, #4]
   82eb2:	4630      	mov	r0, r6
   82eb4:	614d      	str	r5, [r1, #20]
   82eb6:	610d      	str	r5, [r1, #16]
   82eb8:	f8c5 e00c 	str.w	lr, [r5, #12]
   82ebc:	f8c5 e008 	str.w	lr, [r5, #8]
   82ec0:	606b      	str	r3, [r5, #4]
   82ec2:	50aa      	str	r2, [r5, r2]
   82ec4:	3408      	adds	r4, #8
   82ec6:	f000 f8c9 	bl	8305c <__malloc_unlock>
   82eca:	e6e2      	b.n	82c92 <_malloc_r+0x192>
   82ecc:	684a      	ldr	r2, [r1, #4]
   82ece:	e681      	b.n	82bd4 <_malloc_r+0xd4>
   82ed0:	f108 0801 	add.w	r8, r8, #1
   82ed4:	f018 0f03 	tst.w	r8, #3
   82ed8:	f10c 0c08 	add.w	ip, ip, #8
   82edc:	f47f ae8c 	bne.w	82bf8 <_malloc_r+0xf8>
   82ee0:	e030      	b.n	82f44 <_malloc_r+0x444>
   82ee2:	68dc      	ldr	r4, [r3, #12]
   82ee4:	42a3      	cmp	r3, r4
   82ee6:	bf08      	it	eq
   82ee8:	3002      	addeq	r0, #2
   82eea:	f43f ae40 	beq.w	82b6e <_malloc_r+0x6e>
   82eee:	e6c0      	b.n	82c72 <_malloc_r+0x172>
   82ef0:	460c      	mov	r4, r1
   82ef2:	440b      	add	r3, r1
   82ef4:	685a      	ldr	r2, [r3, #4]
   82ef6:	68c9      	ldr	r1, [r1, #12]
   82ef8:	f854 5f08 	ldr.w	r5, [r4, #8]!
   82efc:	f042 0201 	orr.w	r2, r2, #1
   82f00:	605a      	str	r2, [r3, #4]
   82f02:	4630      	mov	r0, r6
   82f04:	60e9      	str	r1, [r5, #12]
   82f06:	608d      	str	r5, [r1, #8]
   82f08:	f000 f8a8 	bl	8305c <__malloc_unlock>
   82f0c:	e6c1      	b.n	82c92 <_malloc_r+0x192>
   82f0e:	f103 0e5c 	add.w	lr, r3, #92	; 0x5c
   82f12:	f103 005b 	add.w	r0, r3, #91	; 0x5b
   82f16:	ea4f 014e 	mov.w	r1, lr, lsl #1
   82f1a:	e613      	b.n	82b44 <_malloc_r+0x44>
   82f1c:	099a      	lsrs	r2, r3, #6
   82f1e:	f102 0139 	add.w	r1, r2, #57	; 0x39
   82f22:	0049      	lsls	r1, r1, #1
   82f24:	3238      	adds	r2, #56	; 0x38
   82f26:	e7a1      	b.n	82e6c <_malloc_r+0x36c>
   82f28:	42bc      	cmp	r4, r7
   82f2a:	4b4a      	ldr	r3, [pc, #296]	; (83054 <_malloc_r+0x554>)
   82f2c:	f43f af00 	beq.w	82d30 <_malloc_r+0x230>
   82f30:	689c      	ldr	r4, [r3, #8]
   82f32:	6862      	ldr	r2, [r4, #4]
   82f34:	f022 0203 	bic.w	r2, r2, #3
   82f38:	e75a      	b.n	82df0 <_malloc_r+0x2f0>
   82f3a:	f859 3908 	ldr.w	r3, [r9], #-8
   82f3e:	4599      	cmp	r9, r3
   82f40:	f040 8082 	bne.w	83048 <_malloc_r+0x548>
   82f44:	f010 0f03 	tst.w	r0, #3
   82f48:	f100 30ff 	add.w	r0, r0, #4294967295
   82f4c:	d1f5      	bne.n	82f3a <_malloc_r+0x43a>
   82f4e:	687b      	ldr	r3, [r7, #4]
   82f50:	ea23 0304 	bic.w	r3, r3, r4
   82f54:	607b      	str	r3, [r7, #4]
   82f56:	0064      	lsls	r4, r4, #1
   82f58:	429c      	cmp	r4, r3
   82f5a:	f63f aebd 	bhi.w	82cd8 <_malloc_r+0x1d8>
   82f5e:	2c00      	cmp	r4, #0
   82f60:	f43f aeba 	beq.w	82cd8 <_malloc_r+0x1d8>
   82f64:	421c      	tst	r4, r3
   82f66:	4640      	mov	r0, r8
   82f68:	f47f ae42 	bne.w	82bf0 <_malloc_r+0xf0>
   82f6c:	0064      	lsls	r4, r4, #1
   82f6e:	421c      	tst	r4, r3
   82f70:	f100 0004 	add.w	r0, r0, #4
   82f74:	d0fa      	beq.n	82f6c <_malloc_r+0x46c>
   82f76:	e63b      	b.n	82bf0 <_malloc_r+0xf0>
   82f78:	f5b3 7faa 	cmp.w	r3, #340	; 0x154
   82f7c:	d818      	bhi.n	82fb0 <_malloc_r+0x4b0>
   82f7e:	0be8      	lsrs	r0, r5, #15
   82f80:	f100 0e78 	add.w	lr, r0, #120	; 0x78
   82f84:	ea4f 014e 	mov.w	r1, lr, lsl #1
   82f88:	3077      	adds	r0, #119	; 0x77
   82f8a:	e5db      	b.n	82b44 <_malloc_r+0x44>
   82f8c:	f44f 5180 	mov.w	r1, #4096	; 0x1000
   82f90:	e6eb      	b.n	82d6a <_malloc_r+0x26a>
   82f92:	2101      	movs	r1, #1
   82f94:	f8d8 3004 	ldr.w	r3, [r8, #4]
   82f98:	1092      	asrs	r2, r2, #2
   82f9a:	fa01 f202 	lsl.w	r2, r1, r2
   82f9e:	431a      	orrs	r2, r3
   82fa0:	f8c8 2004 	str.w	r2, [r8, #4]
   82fa4:	4661      	mov	r1, ip
   82fa6:	e777      	b.n	82e98 <_malloc_r+0x398>
   82fa8:	2301      	movs	r3, #1
   82faa:	f8cb 3004 	str.w	r3, [fp, #4]
   82fae:	e725      	b.n	82dfc <_malloc_r+0x2fc>
   82fb0:	f240 5254 	movw	r2, #1364	; 0x554
   82fb4:	4293      	cmp	r3, r2
   82fb6:	d820      	bhi.n	82ffa <_malloc_r+0x4fa>
   82fb8:	0ca8      	lsrs	r0, r5, #18
   82fba:	f100 0e7d 	add.w	lr, r0, #125	; 0x7d
   82fbe:	ea4f 014e 	mov.w	r1, lr, lsl #1
   82fc2:	307c      	adds	r0, #124	; 0x7c
   82fc4:	e5be      	b.n	82b44 <_malloc_r+0x44>
   82fc6:	3210      	adds	r2, #16
   82fc8:	e6a4      	b.n	82d14 <_malloc_r+0x214>
   82fca:	2a54      	cmp	r2, #84	; 0x54
   82fcc:	d826      	bhi.n	8301c <_malloc_r+0x51c>
   82fce:	0b1a      	lsrs	r2, r3, #12
   82fd0:	f102 016f 	add.w	r1, r2, #111	; 0x6f
   82fd4:	0049      	lsls	r1, r1, #1
   82fd6:	326e      	adds	r2, #110	; 0x6e
   82fd8:	e748      	b.n	82e6c <_malloc_r+0x36c>
   82fda:	68bc      	ldr	r4, [r7, #8]
   82fdc:	6862      	ldr	r2, [r4, #4]
   82fde:	f022 0203 	bic.w	r2, r2, #3
   82fe2:	e705      	b.n	82df0 <_malloc_r+0x2f0>
   82fe4:	f3ca 000b 	ubfx	r0, sl, #0, #12
   82fe8:	2800      	cmp	r0, #0
   82fea:	f47f aea8 	bne.w	82d3e <_malloc_r+0x23e>
   82fee:	4442      	add	r2, r8
   82ff0:	68bb      	ldr	r3, [r7, #8]
   82ff2:	f042 0201 	orr.w	r2, r2, #1
   82ff6:	605a      	str	r2, [r3, #4]
   82ff8:	e6ec      	b.n	82dd4 <_malloc_r+0x2d4>
   82ffa:	21fe      	movs	r1, #254	; 0xfe
   82ffc:	f04f 0e7f 	mov.w	lr, #127	; 0x7f
   83000:	207e      	movs	r0, #126	; 0x7e
   83002:	e59f      	b.n	82b44 <_malloc_r+0x44>
   83004:	2201      	movs	r2, #1
   83006:	f04f 0900 	mov.w	r9, #0
   8300a:	e6c1      	b.n	82d90 <_malloc_r+0x290>
   8300c:	f104 0108 	add.w	r1, r4, #8
   83010:	4630      	mov	r0, r6
   83012:	f000 f8a9 	bl	83168 <_free_r>
   83016:	f8d9 1000 	ldr.w	r1, [r9]
   8301a:	e6db      	b.n	82dd4 <_malloc_r+0x2d4>
   8301c:	f5b2 7faa 	cmp.w	r2, #340	; 0x154
   83020:	d805      	bhi.n	8302e <_malloc_r+0x52e>
   83022:	0bda      	lsrs	r2, r3, #15
   83024:	f102 0178 	add.w	r1, r2, #120	; 0x78
   83028:	0049      	lsls	r1, r1, #1
   8302a:	3277      	adds	r2, #119	; 0x77
   8302c:	e71e      	b.n	82e6c <_malloc_r+0x36c>
   8302e:	f240 5154 	movw	r1, #1364	; 0x554
   83032:	428a      	cmp	r2, r1
   83034:	d805      	bhi.n	83042 <_malloc_r+0x542>
   83036:	0c9a      	lsrs	r2, r3, #18
   83038:	f102 017d 	add.w	r1, r2, #125	; 0x7d
   8303c:	0049      	lsls	r1, r1, #1
   8303e:	327c      	adds	r2, #124	; 0x7c
   83040:	e714      	b.n	82e6c <_malloc_r+0x36c>
   83042:	21fe      	movs	r1, #254	; 0xfe
   83044:	227e      	movs	r2, #126	; 0x7e
   83046:	e711      	b.n	82e6c <_malloc_r+0x36c>
   83048:	687b      	ldr	r3, [r7, #4]
   8304a:	e784      	b.n	82f56 <_malloc_r+0x456>
   8304c:	08e8      	lsrs	r0, r5, #3
   8304e:	1c43      	adds	r3, r0, #1
   83050:	005b      	lsls	r3, r3, #1
   83052:	e605      	b.n	82c60 <_malloc_r+0x160>
   83054:	2007051c 	.word	0x2007051c

00083058 <__malloc_lock>:
   83058:	4770      	bx	lr
   8305a:	bf00      	nop

0008305c <__malloc_unlock>:
   8305c:	4770      	bx	lr
   8305e:	bf00      	nop

00083060 <_sbrk_r>:
   83060:	b538      	push	{r3, r4, r5, lr}
   83062:	4c07      	ldr	r4, [pc, #28]	; (83080 <_sbrk_r+0x20>)
   83064:	2300      	movs	r3, #0
   83066:	4605      	mov	r5, r0
   83068:	4608      	mov	r0, r1
   8306a:	6023      	str	r3, [r4, #0]
   8306c:	f7fd fcfa 	bl	80a64 <_sbrk>
   83070:	1c43      	adds	r3, r0, #1
   83072:	d000      	beq.n	83076 <_sbrk_r+0x16>
   83074:	bd38      	pop	{r3, r4, r5, pc}
   83076:	6823      	ldr	r3, [r4, #0]
   83078:	2b00      	cmp	r3, #0
   8307a:	d0fb      	beq.n	83074 <_sbrk_r+0x14>
   8307c:	602b      	str	r3, [r5, #0]
   8307e:	bd38      	pop	{r3, r4, r5, pc}
   83080:	2007215c 	.word	0x2007215c

00083084 <register_fini>:
   83084:	4b02      	ldr	r3, [pc, #8]	; (83090 <register_fini+0xc>)
   83086:	b113      	cbz	r3, 8308e <register_fini+0xa>
   83088:	4802      	ldr	r0, [pc, #8]	; (83094 <register_fini+0x10>)
   8308a:	f000 b805 	b.w	83098 <atexit>
   8308e:	4770      	bx	lr
   83090:	00000000 	.word	0x00000000
   83094:	000830a5 	.word	0x000830a5

00083098 <atexit>:
   83098:	2300      	movs	r3, #0
   8309a:	4601      	mov	r1, r0
   8309c:	461a      	mov	r2, r3
   8309e:	4618      	mov	r0, r3
   830a0:	f000 b94a 	b.w	83338 <__register_exitproc>

000830a4 <__libc_fini_array>:
   830a4:	b538      	push	{r3, r4, r5, lr}
   830a6:	4d07      	ldr	r5, [pc, #28]	; (830c4 <__libc_fini_array+0x20>)
   830a8:	4c07      	ldr	r4, [pc, #28]	; (830c8 <__libc_fini_array+0x24>)
   830aa:	1b2c      	subs	r4, r5, r4
   830ac:	10a4      	asrs	r4, r4, #2
   830ae:	d005      	beq.n	830bc <__libc_fini_array+0x18>
   830b0:	3c01      	subs	r4, #1
   830b2:	f855 3d04 	ldr.w	r3, [r5, #-4]!
   830b6:	4798      	blx	r3
   830b8:	2c00      	cmp	r4, #0
   830ba:	d1f9      	bne.n	830b0 <__libc_fini_array+0xc>
   830bc:	e8bd 4038 	ldmia.w	sp!, {r3, r4, r5, lr}
   830c0:	f000 ba28 	b.w	83514 <_fini>
   830c4:	00083524 	.word	0x00083524
   830c8:	00083520 	.word	0x00083520

000830cc <_malloc_trim_r>:
   830cc:	b5f8      	push	{r3, r4, r5, r6, r7, lr}
   830ce:	460c      	mov	r4, r1
   830d0:	4f22      	ldr	r7, [pc, #136]	; (8315c <_malloc_trim_r+0x90>)
   830d2:	4606      	mov	r6, r0
   830d4:	f7ff ffc0 	bl	83058 <__malloc_lock>
   830d8:	68bb      	ldr	r3, [r7, #8]
   830da:	685d      	ldr	r5, [r3, #4]
   830dc:	f025 0503 	bic.w	r5, r5, #3
   830e0:	1b29      	subs	r1, r5, r4
   830e2:	f601 71ef 	addw	r1, r1, #4079	; 0xfef
   830e6:	f421 617f 	bic.w	r1, r1, #4080	; 0xff0
   830ea:	f021 010f 	bic.w	r1, r1, #15
   830ee:	f5a1 5480 	sub.w	r4, r1, #4096	; 0x1000
   830f2:	f5b4 5f80 	cmp.w	r4, #4096	; 0x1000
   830f6:	db07      	blt.n	83108 <_malloc_trim_r+0x3c>
   830f8:	2100      	movs	r1, #0
   830fa:	4630      	mov	r0, r6
   830fc:	f7ff ffb0 	bl	83060 <_sbrk_r>
   83100:	68bb      	ldr	r3, [r7, #8]
   83102:	442b      	add	r3, r5
   83104:	4298      	cmp	r0, r3
   83106:	d004      	beq.n	83112 <_malloc_trim_r+0x46>
   83108:	4630      	mov	r0, r6
   8310a:	f7ff ffa7 	bl	8305c <__malloc_unlock>
   8310e:	2000      	movs	r0, #0
   83110:	bdf8      	pop	{r3, r4, r5, r6, r7, pc}
   83112:	4261      	negs	r1, r4
   83114:	4630      	mov	r0, r6
   83116:	f7ff ffa3 	bl	83060 <_sbrk_r>
   8311a:	3001      	adds	r0, #1
   8311c:	d00d      	beq.n	8313a <_malloc_trim_r+0x6e>
   8311e:	4b10      	ldr	r3, [pc, #64]	; (83160 <_malloc_trim_r+0x94>)
   83120:	68ba      	ldr	r2, [r7, #8]
   83122:	6819      	ldr	r1, [r3, #0]
   83124:	1b2d      	subs	r5, r5, r4
   83126:	f045 0501 	orr.w	r5, r5, #1
   8312a:	4630      	mov	r0, r6
   8312c:	1b09      	subs	r1, r1, r4
   8312e:	6055      	str	r5, [r2, #4]
   83130:	6019      	str	r1, [r3, #0]
   83132:	f7ff ff93 	bl	8305c <__malloc_unlock>
   83136:	2001      	movs	r0, #1
   83138:	bdf8      	pop	{r3, r4, r5, r6, r7, pc}
   8313a:	2100      	movs	r1, #0
   8313c:	4630      	mov	r0, r6
   8313e:	f7ff ff8f 	bl	83060 <_sbrk_r>
   83142:	68ba      	ldr	r2, [r7, #8]
   83144:	1a83      	subs	r3, r0, r2
   83146:	2b0f      	cmp	r3, #15
   83148:	ddde      	ble.n	83108 <_malloc_trim_r+0x3c>
   8314a:	4c06      	ldr	r4, [pc, #24]	; (83164 <_malloc_trim_r+0x98>)
   8314c:	4904      	ldr	r1, [pc, #16]	; (83160 <_malloc_trim_r+0x94>)
   8314e:	6824      	ldr	r4, [r4, #0]
   83150:	f043 0301 	orr.w	r3, r3, #1
   83154:	1b00      	subs	r0, r0, r4
   83156:	6053      	str	r3, [r2, #4]
   83158:	6008      	str	r0, [r1, #0]
   8315a:	e7d5      	b.n	83108 <_malloc_trim_r+0x3c>
   8315c:	2007051c 	.word	0x2007051c
   83160:	20070958 	.word	0x20070958
   83164:	20070928 	.word	0x20070928

00083168 <_free_r>:
   83168:	2900      	cmp	r1, #0
   8316a:	d045      	beq.n	831f8 <_free_r+0x90>
   8316c:	e92d 41f0 	stmdb	sp!, {r4, r5, r6, r7, r8, lr}
   83170:	460d      	mov	r5, r1
   83172:	4680      	mov	r8, r0
   83174:	f7ff ff70 	bl	83058 <__malloc_lock>
   83178:	f855 7c04 	ldr.w	r7, [r5, #-4]
   8317c:	496a      	ldr	r1, [pc, #424]	; (83328 <_free_r+0x1c0>)
   8317e:	f1a5 0408 	sub.w	r4, r5, #8
   83182:	f027 0301 	bic.w	r3, r7, #1
   83186:	18e2      	adds	r2, r4, r3
   83188:	688e      	ldr	r6, [r1, #8]
   8318a:	6850      	ldr	r0, [r2, #4]
   8318c:	42b2      	cmp	r2, r6
   8318e:	f020 0003 	bic.w	r0, r0, #3
   83192:	d062      	beq.n	8325a <_free_r+0xf2>
   83194:	07fe      	lsls	r6, r7, #31
   83196:	6050      	str	r0, [r2, #4]
   83198:	d40b      	bmi.n	831b2 <_free_r+0x4a>
   8319a:	f855 7c08 	ldr.w	r7, [r5, #-8]
   8319e:	f101 0e08 	add.w	lr, r1, #8
   831a2:	1be4      	subs	r4, r4, r7
   831a4:	68a5      	ldr	r5, [r4, #8]
   831a6:	443b      	add	r3, r7
   831a8:	4575      	cmp	r5, lr
   831aa:	d06f      	beq.n	8328c <_free_r+0x124>
   831ac:	68e7      	ldr	r7, [r4, #12]
   831ae:	60ef      	str	r7, [r5, #12]
   831b0:	60bd      	str	r5, [r7, #8]
   831b2:	1815      	adds	r5, r2, r0
   831b4:	686d      	ldr	r5, [r5, #4]
   831b6:	07ed      	lsls	r5, r5, #31
   831b8:	d542      	bpl.n	83240 <_free_r+0xd8>
   831ba:	f043 0201 	orr.w	r2, r3, #1
   831be:	6062      	str	r2, [r4, #4]
   831c0:	50e3      	str	r3, [r4, r3]
   831c2:	f5b3 7f00 	cmp.w	r3, #512	; 0x200
   831c6:	d218      	bcs.n	831fa <_free_r+0x92>
   831c8:	08db      	lsrs	r3, r3, #3
   831ca:	6848      	ldr	r0, [r1, #4]
   831cc:	109d      	asrs	r5, r3, #2
   831ce:	2201      	movs	r2, #1
   831d0:	3301      	adds	r3, #1
   831d2:	f851 7033 	ldr.w	r7, [r1, r3, lsl #3]
   831d6:	fa02 f505 	lsl.w	r5, r2, r5
   831da:	eb01 02c3 	add.w	r2, r1, r3, lsl #3
   831de:	4328      	orrs	r0, r5
   831e0:	3a08      	subs	r2, #8
   831e2:	60e2      	str	r2, [r4, #12]
   831e4:	60a7      	str	r7, [r4, #8]
   831e6:	6048      	str	r0, [r1, #4]
   831e8:	f841 4033 	str.w	r4, [r1, r3, lsl #3]
   831ec:	60fc      	str	r4, [r7, #12]
   831ee:	4640      	mov	r0, r8
   831f0:	e8bd 41f0 	ldmia.w	sp!, {r4, r5, r6, r7, r8, lr}
   831f4:	f7ff bf32 	b.w	8305c <__malloc_unlock>
   831f8:	4770      	bx	lr
   831fa:	0a5a      	lsrs	r2, r3, #9
   831fc:	2a04      	cmp	r2, #4
   831fe:	d853      	bhi.n	832a8 <_free_r+0x140>
   83200:	099a      	lsrs	r2, r3, #6
   83202:	f102 0739 	add.w	r7, r2, #57	; 0x39
   83206:	007f      	lsls	r7, r7, #1
   83208:	f102 0538 	add.w	r5, r2, #56	; 0x38
   8320c:	eb01 0087 	add.w	r0, r1, r7, lsl #2
   83210:	f851 2027 	ldr.w	r2, [r1, r7, lsl #2]
   83214:	3808      	subs	r0, #8
   83216:	4290      	cmp	r0, r2
   83218:	4943      	ldr	r1, [pc, #268]	; (83328 <_free_r+0x1c0>)
   8321a:	d04d      	beq.n	832b8 <_free_r+0x150>
   8321c:	6851      	ldr	r1, [r2, #4]
   8321e:	f021 0103 	bic.w	r1, r1, #3
   83222:	428b      	cmp	r3, r1
   83224:	d202      	bcs.n	8322c <_free_r+0xc4>
   83226:	6892      	ldr	r2, [r2, #8]
   83228:	4290      	cmp	r0, r2
   8322a:	d1f7      	bne.n	8321c <_free_r+0xb4>
   8322c:	68d0      	ldr	r0, [r2, #12]
   8322e:	60e0      	str	r0, [r4, #12]
   83230:	60a2      	str	r2, [r4, #8]
   83232:	6084      	str	r4, [r0, #8]
   83234:	60d4      	str	r4, [r2, #12]
   83236:	4640      	mov	r0, r8
   83238:	e8bd 41f0 	ldmia.w	sp!, {r4, r5, r6, r7, r8, lr}
   8323c:	f7ff bf0e 	b.w	8305c <__malloc_unlock>
   83240:	6895      	ldr	r5, [r2, #8]
   83242:	4f3a      	ldr	r7, [pc, #232]	; (8332c <_free_r+0x1c4>)
   83244:	4403      	add	r3, r0
   83246:	42bd      	cmp	r5, r7
   83248:	d03f      	beq.n	832ca <_free_r+0x162>
   8324a:	68d0      	ldr	r0, [r2, #12]
   8324c:	f043 0201 	orr.w	r2, r3, #1
   83250:	60e8      	str	r0, [r5, #12]
   83252:	6085      	str	r5, [r0, #8]
   83254:	6062      	str	r2, [r4, #4]
   83256:	50e3      	str	r3, [r4, r3]
   83258:	e7b3      	b.n	831c2 <_free_r+0x5a>
   8325a:	07ff      	lsls	r7, r7, #31
   8325c:	4403      	add	r3, r0
   8325e:	d407      	bmi.n	83270 <_free_r+0x108>
   83260:	f855 5c08 	ldr.w	r5, [r5, #-8]
   83264:	1b64      	subs	r4, r4, r5
   83266:	68e2      	ldr	r2, [r4, #12]
   83268:	68a0      	ldr	r0, [r4, #8]
   8326a:	442b      	add	r3, r5
   8326c:	60c2      	str	r2, [r0, #12]
   8326e:	6090      	str	r0, [r2, #8]
   83270:	4a2f      	ldr	r2, [pc, #188]	; (83330 <_free_r+0x1c8>)
   83272:	f043 0001 	orr.w	r0, r3, #1
   83276:	6812      	ldr	r2, [r2, #0]
   83278:	6060      	str	r0, [r4, #4]
   8327a:	4293      	cmp	r3, r2
   8327c:	608c      	str	r4, [r1, #8]
   8327e:	d3b6      	bcc.n	831ee <_free_r+0x86>
   83280:	4b2c      	ldr	r3, [pc, #176]	; (83334 <_free_r+0x1cc>)
   83282:	4640      	mov	r0, r8
   83284:	6819      	ldr	r1, [r3, #0]
   83286:	f7ff ff21 	bl	830cc <_malloc_trim_r>
   8328a:	e7b0      	b.n	831ee <_free_r+0x86>
   8328c:	1811      	adds	r1, r2, r0
   8328e:	6849      	ldr	r1, [r1, #4]
   83290:	07c9      	lsls	r1, r1, #31
   83292:	d444      	bmi.n	8331e <_free_r+0x1b6>
   83294:	6891      	ldr	r1, [r2, #8]
   83296:	4403      	add	r3, r0
   83298:	68d2      	ldr	r2, [r2, #12]
   8329a:	f043 0001 	orr.w	r0, r3, #1
   8329e:	60ca      	str	r2, [r1, #12]
   832a0:	6091      	str	r1, [r2, #8]
   832a2:	6060      	str	r0, [r4, #4]
   832a4:	50e3      	str	r3, [r4, r3]
   832a6:	e7a2      	b.n	831ee <_free_r+0x86>
   832a8:	2a14      	cmp	r2, #20
   832aa:	d817      	bhi.n	832dc <_free_r+0x174>
   832ac:	f102 075c 	add.w	r7, r2, #92	; 0x5c
   832b0:	007f      	lsls	r7, r7, #1
   832b2:	f102 055b 	add.w	r5, r2, #91	; 0x5b
   832b6:	e7a9      	b.n	8320c <_free_r+0xa4>
   832b8:	10aa      	asrs	r2, r5, #2
   832ba:	684b      	ldr	r3, [r1, #4]
   832bc:	2501      	movs	r5, #1
   832be:	fa05 f202 	lsl.w	r2, r5, r2
   832c2:	4313      	orrs	r3, r2
   832c4:	604b      	str	r3, [r1, #4]
   832c6:	4602      	mov	r2, r0
   832c8:	e7b1      	b.n	8322e <_free_r+0xc6>
   832ca:	f043 0201 	orr.w	r2, r3, #1
   832ce:	614c      	str	r4, [r1, #20]
   832d0:	610c      	str	r4, [r1, #16]
   832d2:	60e5      	str	r5, [r4, #12]
   832d4:	60a5      	str	r5, [r4, #8]
   832d6:	6062      	str	r2, [r4, #4]
   832d8:	50e3      	str	r3, [r4, r3]
   832da:	e788      	b.n	831ee <_free_r+0x86>
   832dc:	2a54      	cmp	r2, #84	; 0x54
   832de:	d806      	bhi.n	832ee <_free_r+0x186>
   832e0:	0b1a      	lsrs	r2, r3, #12
   832e2:	f102 076f 	add.w	r7, r2, #111	; 0x6f
   832e6:	007f      	lsls	r7, r7, #1
   832e8:	f102 056e 	add.w	r5, r2, #110	; 0x6e
   832ec:	e78e      	b.n	8320c <_free_r+0xa4>
   832ee:	f5b2 7faa 	cmp.w	r2, #340	; 0x154
   832f2:	d806      	bhi.n	83302 <_free_r+0x19a>
   832f4:	0bda      	lsrs	r2, r3, #15
   832f6:	f102 0778 	add.w	r7, r2, #120	; 0x78
   832fa:	007f      	lsls	r7, r7, #1
   832fc:	f102 0577 	add.w	r5, r2, #119	; 0x77
   83300:	e784      	b.n	8320c <_free_r+0xa4>
   83302:	f240 5054 	movw	r0, #1364	; 0x554
   83306:	4282      	cmp	r2, r0
   83308:	d806      	bhi.n	83318 <_free_r+0x1b0>
   8330a:	0c9a      	lsrs	r2, r3, #18
   8330c:	f102 077d 	add.w	r7, r2, #125	; 0x7d
   83310:	007f      	lsls	r7, r7, #1
   83312:	f102 057c 	add.w	r5, r2, #124	; 0x7c
   83316:	e779      	b.n	8320c <_free_r+0xa4>
   83318:	27fe      	movs	r7, #254	; 0xfe
   8331a:	257e      	movs	r5, #126	; 0x7e
   8331c:	e776      	b.n	8320c <_free_r+0xa4>
   8331e:	f043 0201 	orr.w	r2, r3, #1
   83322:	6062      	str	r2, [r4, #4]
   83324:	50e3      	str	r3, [r4, r3]
   83326:	e762      	b.n	831ee <_free_r+0x86>
   83328:	2007051c 	.word	0x2007051c
   8332c:	20070524 	.word	0x20070524
   83330:	20070924 	.word	0x20070924
   83334:	20070954 	.word	0x20070954

00083338 <__register_exitproc>:
   83338:	e92d 47f0 	stmdb	sp!, {r4, r5, r6, r7, r8, r9, sl, lr}
   8333c:	4c25      	ldr	r4, [pc, #148]	; (833d4 <__register_exitproc+0x9c>)
   8333e:	4606      	mov	r6, r0
   83340:	6825      	ldr	r5, [r4, #0]
   83342:	4688      	mov	r8, r1
   83344:	f8d5 4148 	ldr.w	r4, [r5, #328]	; 0x148
   83348:	4692      	mov	sl, r2
   8334a:	4699      	mov	r9, r3
   8334c:	b3c4      	cbz	r4, 833c0 <__register_exitproc+0x88>
   8334e:	6860      	ldr	r0, [r4, #4]
   83350:	281f      	cmp	r0, #31
   83352:	dc17      	bgt.n	83384 <__register_exitproc+0x4c>
   83354:	1c41      	adds	r1, r0, #1
   83356:	b176      	cbz	r6, 83376 <__register_exitproc+0x3e>
   83358:	eb04 0380 	add.w	r3, r4, r0, lsl #2
   8335c:	f8c3 a088 	str.w	sl, [r3, #136]	; 0x88
   83360:	f8d4 5188 	ldr.w	r5, [r4, #392]	; 0x188
   83364:	2201      	movs	r2, #1
   83366:	4082      	lsls	r2, r0
   83368:	4315      	orrs	r5, r2
   8336a:	2e02      	cmp	r6, #2
   8336c:	f8c4 5188 	str.w	r5, [r4, #392]	; 0x188
   83370:	f8c3 9108 	str.w	r9, [r3, #264]	; 0x108
   83374:	d01e      	beq.n	833b4 <__register_exitproc+0x7c>
   83376:	1c83      	adds	r3, r0, #2
   83378:	6061      	str	r1, [r4, #4]
   8337a:	2000      	movs	r0, #0
   8337c:	f844 8023 	str.w	r8, [r4, r3, lsl #2]
   83380:	e8bd 87f0 	ldmia.w	sp!, {r4, r5, r6, r7, r8, r9, sl, pc}
   83384:	4b14      	ldr	r3, [pc, #80]	; (833d8 <__register_exitproc+0xa0>)
   83386:	b303      	cbz	r3, 833ca <__register_exitproc+0x92>
   83388:	f44f 70c8 	mov.w	r0, #400	; 0x190
   8338c:	f7ff fbb0 	bl	82af0 <malloc>
   83390:	4604      	mov	r4, r0
   83392:	b1d0      	cbz	r0, 833ca <__register_exitproc+0x92>
   83394:	f8d5 3148 	ldr.w	r3, [r5, #328]	; 0x148
   83398:	2700      	movs	r7, #0
   8339a:	e884 0088 	stmia.w	r4, {r3, r7}
   8339e:	4638      	mov	r0, r7
   833a0:	f8c5 4148 	str.w	r4, [r5, #328]	; 0x148
   833a4:	2101      	movs	r1, #1
   833a6:	f8c4 7188 	str.w	r7, [r4, #392]	; 0x188
   833aa:	f8c4 718c 	str.w	r7, [r4, #396]	; 0x18c
   833ae:	2e00      	cmp	r6, #0
   833b0:	d0e1      	beq.n	83376 <__register_exitproc+0x3e>
   833b2:	e7d1      	b.n	83358 <__register_exitproc+0x20>
   833b4:	f8d4 318c 	ldr.w	r3, [r4, #396]	; 0x18c
   833b8:	431a      	orrs	r2, r3
   833ba:	f8c4 218c 	str.w	r2, [r4, #396]	; 0x18c
   833be:	e7da      	b.n	83376 <__register_exitproc+0x3e>
   833c0:	f505 74a6 	add.w	r4, r5, #332	; 0x14c
   833c4:	f8c5 4148 	str.w	r4, [r5, #328]	; 0x148
   833c8:	e7c1      	b.n	8334e <__register_exitproc+0x16>
   833ca:	f04f 30ff 	mov.w	r0, #4294967295
   833ce:	e8bd 87f0 	ldmia.w	sp!, {r4, r5, r6, r7, r8, r9, sl, pc}
   833d2:	bf00      	nop
   833d4:	000834fc 	.word	0x000834fc
   833d8:	00082af1 	.word	0x00082af1
   833dc:	46697754 	.word	0x46697754
   833e0:	746c7561 	.word	0x746c7561
   833e4:	203a      	.short	0x203a
   833e6:	00          	.byte	0x00
   833e7:	45          	.byte	0x45
   833e8:	4f525045 	.word	0x4f525045
   833ec:	6146204d 	.word	0x6146204d
   833f0:	00746c75 	.word	0x00746c75
   833f4:	4f525245 	.word	0x4f525245
   833f8:	61632052 	.word	0x61632052
   833fc:	7262696c 	.word	0x7262696c
   83400:	6f697461 	.word	0x6f697461
   83404:	6576206e 	.word	0x6576206e
   83408:	726f7463 	.word	0x726f7463
   8340c:	50414d00 	.word	0x50414d00
   83410:	67694820 	.word	0x67694820
   83414:	00203a68 	.word	0x00203a68
   83418:	2050414d 	.word	0x2050414d
   8341c:	3a776f4c 	.word	0x3a776f4c
   83420:	50540020 	.word	0x50540020
   83424:	69482053 	.word	0x69482053
   83428:	203a6867 	.word	0x203a6867
   8342c:	53505400 	.word	0x53505400
   83430:	776f4c20 	.word	0x776f4c20
   83434:	4300203a 	.word	0x4300203a
   83438:	203a544c 	.word	0x203a544c
   8343c:	54414900 	.word	0x54414900
   83440:	4100203a 	.word	0x4100203a
   83444:	203a5246 	.word	0x203a5246
   83448:	50414d00 	.word	0x50414d00
   8344c:	5400203a 	.word	0x5400203a
   83450:	203a5350 	.word	0x203a5350
   83454:	4d505200 	.word	0x4d505200
   83458:	5400203a 	.word	0x5400203a
   8345c:	61464957 	.word	0x61464957
   83460:	3a746c75 	.word	0x3a746c75
   83464:	75460020 	.word	0x75460020
   83468:	43206c65 	.word	0x43206c65
   8346c:	74736e6f 	.word	0x74736e6f
   83470:	4100203a 	.word	0x4100203a
   83474:	72657466 	.word	0x72657466
   83478:	72617453 	.word	0x72617453
   8347c:	726e4574 	.word	0x726e4574
   83480:	50686369 	.word	0x50686369
   83484:	203a7463 	.word	0x203a7463
   83488:	74664100 	.word	0x74664100
   8348c:	74537265 	.word	0x74537265
   83490:	45747261 	.word	0x45747261
   83494:	6369726e 	.word	0x6369726e
   83498:	63794368 	.word	0x63794368
   8349c:	3a73656c 	.word	0x3a73656c
   834a0:	696d0020 	.word	0x696d0020
   834a4:	73696c6c 	.word	0x73696c6c
   834a8:	3000203a 	.word	0x3000203a
   834ac:	52003130 	.word	0x52003130
   834b0:	6c687455 	.word	0x6c687455
   834b4:	20737365 	.word	0x20737365
   834b8:	302e3156 	.word	0x302e3156
   834bc:	726f4620 	.word	0x726f4620
   834c0:	616c756d 	.word	0x616c756d
   834c4:	75745320 	.word	0x75745320
   834c8:	746e6564 	.word	0x746e6564
   834cc:	31303220 	.word	0x31303220
   834d0:	70730037 	.word	0x70730037
   834d4:	75646565 	.word	0x75646565
   834d8:	006f6e69 	.word	0x006f6e69
   834dc:	07050604 	.word	0x07050604
   834e0:	0c00      	.short	0x0c00
   834e2:	05          	.byte	0x05
   834e3:	49          	.byte	0x49
   834e4:	2074696e 	.word	0x2074696e
   834e8:	69676562 	.word	0x69676562
   834ec:	6e49006e 	.word	0x6e49006e
   834f0:	64207469 	.word	0x64207469
   834f4:	00656e6f 	.word	0x00656e6f
   834f8:	00000043 	.word	0x00000043

000834fc <_global_impure_ptr>:
   834fc:	200700f0                                ... 

00083500 <_init>:
   83500:	b5f8      	push	{r3, r4, r5, r6, r7, lr}
   83502:	bf00      	nop
   83504:	bcf8      	pop	{r3, r4, r5, r6, r7}
   83506:	bc08      	pop	{r3}
   83508:	469e      	mov	lr, r3
   8350a:	4770      	bx	lr

0008350c <__init_array_start>:
   8350c:	00083085 	.word	0x00083085

00083510 <__frame_dummy_init_array_entry>:
   83510:	00080119                                ....

00083514 <_fini>:
   83514:	b5f8      	push	{r3, r4, r5, r6, r7, lr}
   83516:	bf00      	nop
   83518:	bcf8      	pop	{r3, r4, r5, r6, r7}
   8351a:	bc08      	pop	{r3}
   8351c:	469e      	mov	lr, r3
   8351e:	4770      	bx	lr

00083520 <__fini_array_start>:
   83520:	000800f5 	.word	0x000800f5

Disassembly of section .relocate:

20070000 <SystemInit>:
20070000:	4a1a      	ldr	r2, [pc, #104]	; (2007006c <SystemInit+0x6c>)
20070002:	f44f 6380 	mov.w	r3, #1024	; 0x400
20070006:	6013      	str	r3, [r2, #0]
20070008:	f8c2 3200 	str.w	r3, [r2, #512]	; 0x200
2007000c:	4b18      	ldr	r3, [pc, #96]	; (20070070 <SystemInit+0x70>)
2007000e:	6a1a      	ldr	r2, [r3, #32]
20070010:	01d1      	lsls	r1, r2, #7
20070012:	d502      	bpl.n	2007001a <SystemInit+0x1a>
20070014:	4a17      	ldr	r2, [pc, #92]	; (20070074 <SystemInit+0x74>)
20070016:	621a      	str	r2, [r3, #32]
20070018:	e005      	b.n	20070026 <SystemInit+0x26>
2007001a:	4a17      	ldr	r2, [pc, #92]	; (20070078 <SystemInit+0x78>)
2007001c:	621a      	str	r2, [r3, #32]
2007001e:	6e9a      	ldr	r2, [r3, #104]	; 0x68
20070020:	07d2      	lsls	r2, r2, #31
20070022:	d5fc      	bpl.n	2007001e <SystemInit+0x1e>
20070024:	e7f6      	b.n	20070014 <SystemInit+0x14>
20070026:	6e9a      	ldr	r2, [r3, #104]	; 0x68
20070028:	4911      	ldr	r1, [pc, #68]	; (20070070 <SystemInit+0x70>)
2007002a:	03d0      	lsls	r0, r2, #15
2007002c:	d5fb      	bpl.n	20070026 <SystemInit+0x26>
2007002e:	6b0a      	ldr	r2, [r1, #48]	; 0x30
20070030:	f022 0203 	bic.w	r2, r2, #3
20070034:	f042 0201 	orr.w	r2, r2, #1
20070038:	630a      	str	r2, [r1, #48]	; 0x30
2007003a:	6e9a      	ldr	r2, [r3, #104]	; 0x68
2007003c:	0712      	lsls	r2, r2, #28
2007003e:	d5fc      	bpl.n	2007003a <SystemInit+0x3a>
20070040:	490e      	ldr	r1, [pc, #56]	; (2007007c <SystemInit+0x7c>)
20070042:	4a0b      	ldr	r2, [pc, #44]	; (20070070 <SystemInit+0x70>)
20070044:	6291      	str	r1, [r2, #40]	; 0x28
20070046:	6e9a      	ldr	r2, [r3, #104]	; 0x68
20070048:	0790      	lsls	r0, r2, #30
2007004a:	d5fc      	bpl.n	20070046 <SystemInit+0x46>
2007004c:	4a08      	ldr	r2, [pc, #32]	; (20070070 <SystemInit+0x70>)
2007004e:	2111      	movs	r1, #17
20070050:	6311      	str	r1, [r2, #48]	; 0x30
20070052:	6e9a      	ldr	r2, [r3, #104]	; 0x68
20070054:	0711      	lsls	r1, r2, #28
20070056:	d5fc      	bpl.n	20070052 <SystemInit+0x52>
20070058:	4a05      	ldr	r2, [pc, #20]	; (20070070 <SystemInit+0x70>)
2007005a:	2112      	movs	r1, #18
2007005c:	6311      	str	r1, [r2, #48]	; 0x30
2007005e:	6e9a      	ldr	r2, [r3, #104]	; 0x68
20070060:	0712      	lsls	r2, r2, #28
20070062:	d5fc      	bpl.n	2007005e <SystemInit+0x5e>
20070064:	4a06      	ldr	r2, [pc, #24]	; (20070080 <SystemInit+0x80>)
20070066:	4b07      	ldr	r3, [pc, #28]	; (20070084 <SystemInit+0x84>)
20070068:	601a      	str	r2, [r3, #0]
2007006a:	4770      	bx	lr
2007006c:	400e0a00 	.word	0x400e0a00
20070070:	400e0600 	.word	0x400e0600
20070074:	01370809 	.word	0x01370809
20070078:	00370809 	.word	0x00370809
2007007c:	200d3f01 	.word	0x200d3f01
20070080:	0501bd00 	.word	0x0501bd00
20070084:	200700ec 	.word	0x200700ec

20070088 <system_init_flash>:
20070088:	4b11      	ldr	r3, [pc, #68]	; (200700d0 <system_init_flash+0x48>)
2007008a:	4a12      	ldr	r2, [pc, #72]	; (200700d4 <system_init_flash+0x4c>)
2007008c:	4298      	cmp	r0, r3
2007008e:	4b12      	ldr	r3, [pc, #72]	; (200700d8 <system_init_flash+0x50>)
20070090:	d801      	bhi.n	20070096 <system_init_flash+0xe>
20070092:	2100      	movs	r1, #0
20070094:	e018      	b.n	200700c8 <system_init_flash+0x40>
20070096:	4911      	ldr	r1, [pc, #68]	; (200700dc <system_init_flash+0x54>)
20070098:	4288      	cmp	r0, r1
2007009a:	d802      	bhi.n	200700a2 <system_init_flash+0x1a>
2007009c:	f44f 7180 	mov.w	r1, #256	; 0x100
200700a0:	e012      	b.n	200700c8 <system_init_flash+0x40>
200700a2:	490f      	ldr	r1, [pc, #60]	; (200700e0 <system_init_flash+0x58>)
200700a4:	4288      	cmp	r0, r1
200700a6:	d802      	bhi.n	200700ae <system_init_flash+0x26>
200700a8:	f44f 7100 	mov.w	r1, #512	; 0x200
200700ac:	e00c      	b.n	200700c8 <system_init_flash+0x40>
200700ae:	490d      	ldr	r1, [pc, #52]	; (200700e4 <system_init_flash+0x5c>)
200700b0:	4288      	cmp	r0, r1
200700b2:	d802      	bhi.n	200700ba <system_init_flash+0x32>
200700b4:	f44f 7140 	mov.w	r1, #768	; 0x300
200700b8:	e006      	b.n	200700c8 <system_init_flash+0x40>
200700ba:	490b      	ldr	r1, [pc, #44]	; (200700e8 <system_init_flash+0x60>)
200700bc:	4288      	cmp	r0, r1
200700be:	bf94      	ite	ls
200700c0:	f44f 6180 	movls.w	r1, #1024	; 0x400
200700c4:	f44f 61a0 	movhi.w	r1, #1280	; 0x500
200700c8:	6011      	str	r1, [r2, #0]
200700ca:	6019      	str	r1, [r3, #0]
200700cc:	4770      	bx	lr
200700ce:	bf00      	nop
200700d0:	0121eabf 	.word	0x0121eabf
200700d4:	400e0a00 	.word	0x400e0a00
200700d8:	400e0c00 	.word	0x400e0c00
200700dc:	02faf07f 	.word	0x02faf07f
200700e0:	03d08fff 	.word	0x03d08fff
200700e4:	04c4b3ff 	.word	0x04c4b3ff
200700e8:	055d4a7f 	.word	0x055d4a7f

200700ec <SystemCoreClock>:
200700ec:	003d0900                                ..=.

200700f0 <impure_data>:
200700f0:	00000000 200703dc 20070444 200704ac     ....... D.. ... 
	...
20070124:	000834f8 00000000 00000000 00000000     .4..............
	...
20070198:	00000001 00000000 abcd330e e66d1234     .........3..4.m.
200701a8:	0005deec 0000000b 00000000 00000000     ................
	...

20070518 <_impure_ptr>:
20070518:	200700f0                                ... 

2007051c <__malloc_av_>:
	...
20070524:	2007051c 2007051c 20070524 20070524     ... ... $.. $.. 
20070534:	2007052c 2007052c 20070534 20070534     ,.. ,.. 4.. 4.. 
20070544:	2007053c 2007053c 20070544 20070544     <.. <.. D.. D.. 
20070554:	2007054c 2007054c 20070554 20070554     L.. L.. T.. T.. 
20070564:	2007055c 2007055c 20070564 20070564     \.. \.. d.. d.. 
20070574:	2007056c 2007056c 20070574 20070574     l.. l.. t.. t.. 
20070584:	2007057c 2007057c 20070584 20070584     |.. |.. ... ... 
20070594:	2007058c 2007058c 20070594 20070594     ... ... ... ... 
200705a4:	2007059c 2007059c 200705a4 200705a4     ... ... ... ... 
200705b4:	200705ac 200705ac 200705b4 200705b4     ... ... ... ... 
200705c4:	200705bc 200705bc 200705c4 200705c4     ... ... ... ... 
200705d4:	200705cc 200705cc 200705d4 200705d4     ... ... ... ... 
200705e4:	200705dc 200705dc 200705e4 200705e4     ... ... ... ... 
200705f4:	200705ec 200705ec 200705f4 200705f4     ... ... ... ... 
20070604:	200705fc 200705fc 20070604 20070604     ... ... ... ... 
20070614:	2007060c 2007060c 20070614 20070614     ... ... ... ... 
20070624:	2007061c 2007061c 20070624 20070624     ... ... $.. $.. 
20070634:	2007062c 2007062c 20070634 20070634     ,.. ,.. 4.. 4.. 
20070644:	2007063c 2007063c 20070644 20070644     <.. <.. D.. D.. 
20070654:	2007064c 2007064c 20070654 20070654     L.. L.. T.. T.. 
20070664:	2007065c 2007065c 20070664 20070664     \.. \.. d.. d.. 
20070674:	2007066c 2007066c 20070674 20070674     l.. l.. t.. t.. 
20070684:	2007067c 2007067c 20070684 20070684     |.. |.. ... ... 
20070694:	2007068c 2007068c 20070694 20070694     ... ... ... ... 
200706a4:	2007069c 2007069c 200706a4 200706a4     ... ... ... ... 
200706b4:	200706ac 200706ac 200706b4 200706b4     ... ... ... ... 
200706c4:	200706bc 200706bc 200706c4 200706c4     ... ... ... ... 
200706d4:	200706cc 200706cc 200706d4 200706d4     ... ... ... ... 
200706e4:	200706dc 200706dc 200706e4 200706e4     ... ... ... ... 
200706f4:	200706ec 200706ec 200706f4 200706f4     ... ... ... ... 
20070704:	200706fc 200706fc 20070704 20070704     ... ... ... ... 
20070714:	2007070c 2007070c 20070714 20070714     ... ... ... ... 
20070724:	2007071c 2007071c 20070724 20070724     ... ... $.. $.. 
20070734:	2007072c 2007072c 20070734 20070734     ,.. ,.. 4.. 4.. 
20070744:	2007073c 2007073c 20070744 20070744     <.. <.. D.. D.. 
20070754:	2007074c 2007074c 20070754 20070754     L.. L.. T.. T.. 
20070764:	2007075c 2007075c 20070764 20070764     \.. \.. d.. d.. 
20070774:	2007076c 2007076c 20070774 20070774     l.. l.. t.. t.. 
20070784:	2007077c 2007077c 20070784 20070784     |.. |.. ... ... 
20070794:	2007078c 2007078c 20070794 20070794     ... ... ... ... 
200707a4:	2007079c 2007079c 200707a4 200707a4     ... ... ... ... 
200707b4:	200707ac 200707ac 200707b4 200707b4     ... ... ... ... 
200707c4:	200707bc 200707bc 200707c4 200707c4     ... ... ... ... 
200707d4:	200707cc 200707cc 200707d4 200707d4     ... ... ... ... 
200707e4:	200707dc 200707dc 200707e4 200707e4     ... ... ... ... 
200707f4:	200707ec 200707ec 200707f4 200707f4     ... ... ... ... 
20070804:	200707fc 200707fc 20070804 20070804     ... ... ... ... 
20070814:	2007080c 2007080c 20070814 20070814     ... ... ... ... 
20070824:	2007081c 2007081c 20070824 20070824     ... ... $.. $.. 
20070834:	2007082c 2007082c 20070834 20070834     ,.. ,.. 4.. 4.. 
20070844:	2007083c 2007083c 20070844 20070844     <.. <.. D.. D.. 
20070854:	2007084c 2007084c 20070854 20070854     L.. L.. T.. T.. 
20070864:	2007085c 2007085c 20070864 20070864     \.. \.. d.. d.. 
20070874:	2007086c 2007086c 20070874 20070874     l.. l.. t.. t.. 
20070884:	2007087c 2007087c 20070884 20070884     |.. |.. ... ... 
20070894:	2007088c 2007088c 20070894 20070894     ... ... ... ... 
200708a4:	2007089c 2007089c 200708a4 200708a4     ... ... ... ... 
200708b4:	200708ac 200708ac 200708b4 200708b4     ... ... ... ... 
200708c4:	200708bc 200708bc 200708c4 200708c4     ... ... ... ... 
200708d4:	200708cc 200708cc 200708d4 200708d4     ... ... ... ... 
200708e4:	200708dc 200708dc 200708e4 200708e4     ... ... ... ... 
200708f4:	200708ec 200708ec 200708f4 200708f4     ... ... ... ... 
20070904:	200708fc 200708fc 20070904 20070904     ... ... ... ... 
20070914:	2007090c 2007090c 20070914 20070914     ... ... ... ... 

20070924 <__malloc_trim_threshold>:
20070924:	00020000                                ....

20070928 <__malloc_sbrk_base>:
20070928:	ffffffff                                ....
