
RUthless_ECU.elf:     file format elf32-littlearm

Sections:
Idx Name          Size      VMA       LMA       File off  Algn
  0 .text         00004534  00080000  00080000  00010000  2**2
                  CONTENTS, ALLOC, LOAD, READONLY, CODE
  1 .ARM.exidx    00000008  00084534  00084534  00014534  2**2
                  CONTENTS, ALLOC, LOAD, READONLY, DATA
  2 .relocate     00000970  20070000  0008453c  00020000  2**3
                  CONTENTS, ALLOC, LOAD, CODE
  3 .bss          00001ae8  20070970  00084eac  00020970  2**2
                  ALLOC
  4 .stack        00002000  20072458  00086994  00020970  2**0
                  ALLOC
  5 .ARM.attributes 00000029  00000000  00000000  00020970  2**0
                  CONTENTS, READONLY
  6 .comment      00000059  00000000  00000000  00020999  2**0
                  CONTENTS, READONLY
  7 .debug_info   000381b3  00000000  00000000  000209f2  2**0
                  CONTENTS, READONLY, DEBUGGING
  8 .debug_abbrev 00004f1c  00000000  00000000  00058ba5  2**0
                  CONTENTS, READONLY, DEBUGGING
  9 .debug_loc    00006bed  00000000  00000000  0005dac1  2**0
                  CONTENTS, READONLY, DEBUGGING
 10 .debug_aranges 00000cd0  00000000  00000000  000646ae  2**0
                  CONTENTS, READONLY, DEBUGGING
 11 .debug_ranges 00000c38  00000000  00000000  0006537e  2**0
                  CONTENTS, READONLY, DEBUGGING
 12 .debug_macro  0001ebb1  00000000  00000000  00065fb6  2**0
                  CONTENTS, READONLY, DEBUGGING
 13 .debug_line   00019d1a  00000000  00000000  00084b67  2**0
                  CONTENTS, READONLY, DEBUGGING
 14 .debug_str    00066e27  00000000  00000000  0009e881  2**0
                  CONTENTS, READONLY, DEBUGGING
 15 .debug_frame  0000204c  00000000  00000000  001056a8  2**2
                  CONTENTS, READONLY, DEBUGGING

Disassembly of section .text:

00080000 <exception_table>:
   80000:	58 44 07 20 ed 09 08 00 e9 09 08 00 e9 09 08 00     XD. ............
   80010:	e9 09 08 00 e9 09 08 00 e9 09 08 00 00 00 00 00     ................
	...
   8002c:	e9 09 08 00 e9 09 08 00 00 00 00 00 e9 09 08 00     ................
   8003c:	e9 09 08 00 e9 09 08 00 e9 09 08 00 e9 09 08 00     ................
   8004c:	e9 09 08 00 e9 09 08 00 e9 09 08 00 e9 09 08 00     ................
   8005c:	e9 09 08 00 09 2c 08 00 e9 09 08 00 00 00 00 00     .....,..........
   8006c:	d1 19 08 00 e9 09 08 00 e9 09 08 00 e9 09 08 00     ................
	...
   80084:	e9 09 08 00 e9 09 08 00 e9 09 08 00 e9 09 08 00     ................
   80094:	e9 09 08 00 e9 09 08 00 e9 09 08 00 e9 09 08 00     ................
   800a4:	00 00 00 00 e9 09 08 00 91 21 08 00 a1 21 08 00     .........!...!..
   800b4:	b1 21 08 00 c1 21 08 00 d1 21 08 00 e1 21 08 00     .!...!...!...!..
   800c4:	f1 21 08 00 01 22 08 00 11 22 08 00 e9 09 08 00     .!..."..."......
   800d4:	cd 0c 08 00 e9 09 08 00 e9 09 08 00 e9 09 08 00     ................
   800e4:	e9 09 08 00 e9 09 08 00 e9 09 08 00 e9 09 08 00     ................

000800f4 <__do_global_dtors_aux>:
   800f4:	b510      	push	{r4, lr}
   800f6:	4c05      	ldr	r4, [pc, #20]	; (8010c <__do_global_dtors_aux+0x18>)
   800f8:	7823      	ldrb	r3, [r4, #0]
   800fa:	b933      	cbnz	r3, 8010a <__do_global_dtors_aux+0x16>
   800fc:	4b04      	ldr	r3, [pc, #16]	; (80110 <__do_global_dtors_aux+0x1c>)
   800fe:	b113      	cbz	r3, 80106 <__do_global_dtors_aux+0x12>
   80100:	4804      	ldr	r0, [pc, #16]	; (80114 <__do_global_dtors_aux+0x20>)
   80102:	f3af 8000 	nop.w
   80106:	2301      	movs	r3, #1
   80108:	7023      	strb	r3, [r4, #0]
   8010a:	bd10      	pop	{r4, pc}
   8010c:	20070970 	.word	0x20070970
   80110:	00000000 	.word	0x00000000
   80114:	0008453c 	.word	0x0008453c

00080118 <frame_dummy>:
   80118:	4b0c      	ldr	r3, [pc, #48]	; (8014c <frame_dummy+0x34>)
   8011a:	b143      	cbz	r3, 8012e <frame_dummy+0x16>
   8011c:	480c      	ldr	r0, [pc, #48]	; (80150 <frame_dummy+0x38>)
   8011e:	b510      	push	{r4, lr}
   80120:	490c      	ldr	r1, [pc, #48]	; (80154 <frame_dummy+0x3c>)
   80122:	f3af 8000 	nop.w
   80126:	480c      	ldr	r0, [pc, #48]	; (80158 <frame_dummy+0x40>)
   80128:	6803      	ldr	r3, [r0, #0]
   8012a:	b923      	cbnz	r3, 80136 <frame_dummy+0x1e>
   8012c:	bd10      	pop	{r4, pc}
   8012e:	480a      	ldr	r0, [pc, #40]	; (80158 <frame_dummy+0x40>)
   80130:	6803      	ldr	r3, [r0, #0]
   80132:	b933      	cbnz	r3, 80142 <frame_dummy+0x2a>
   80134:	4770      	bx	lr
   80136:	4b09      	ldr	r3, [pc, #36]	; (8015c <frame_dummy+0x44>)
   80138:	2b00      	cmp	r3, #0
   8013a:	d0f7      	beq.n	8012c <frame_dummy+0x14>
   8013c:	e8bd 4010 	ldmia.w	sp!, {r4, lr}
   80140:	4718      	bx	r3
   80142:	4b06      	ldr	r3, [pc, #24]	; (8015c <frame_dummy+0x44>)
   80144:	2b00      	cmp	r3, #0
   80146:	d0f5      	beq.n	80134 <frame_dummy+0x1c>
   80148:	4718      	bx	r3
   8014a:	bf00      	nop
   8014c:	00000000 	.word	0x00000000
   80150:	0008453c 	.word	0x0008453c
   80154:	20070974 	.word	0x20070974
   80158:	0008453c 	.word	0x0008453c
   8015c:	00000000 	.word	0x00000000

00080160 <at24cxx_acknowledge_polling>:
 *
 * \param twi_package Pointer to TWI data package. Only the slave address is
 * used in the acknowledge polling.
 */
static void at24cxx_acknowledge_polling(twi_package_t *twi_package)
{
   80160:	e92d 47f0 	stmdb	sp!, {r4, r5, r6, r7, r8, r9, sl, lr}
   80164:	b082      	sub	sp, #8
   80166:	4604      	mov	r4, r0
	uint8_t data = 0;
   80168:	2200      	movs	r2, #0
   8016a:	ab02      	add	r3, sp, #8
   8016c:	f803 2d01 	strb.w	r2, [r3, #-1]!

	/* Store the package parameters */
	uint8_t addr = twi_package->addr[0];
   80170:	f890 a000 	ldrb.w	sl, [r0]
	uint32_t addr_length = twi_package->addr_length;
   80174:	f8d0 9004 	ldr.w	r9, [r0, #4]
	void *buffer = twi_package->buffer;
   80178:	f8d0 8008 	ldr.w	r8, [r0, #8]
	uint32_t length = twi_package->length;
   8017c:	68c7      	ldr	r7, [r0, #12]

	/* Configure the data packet to be transmitted */
	twi_package->addr[0] = 0;
   8017e:	7002      	strb	r2, [r0, #0]
	twi_package->addr_length = 0;
   80180:	6042      	str	r2, [r0, #4]
	twi_package->buffer = &data;
   80182:	6083      	str	r3, [r0, #8]
	twi_package->length = 1;
   80184:	2301      	movs	r3, #1
   80186:	60c3      	str	r3, [r0, #12]

	while (twi_master_write(BOARD_AT24C_TWI_INSTANCE, twi_package) !=
   80188:	4e08      	ldr	r6, [pc, #32]	; (801ac <at24cxx_acknowledge_polling+0x4c>)
   8018a:	4d09      	ldr	r5, [pc, #36]	; (801b0 <at24cxx_acknowledge_polling+0x50>)
   8018c:	4621      	mov	r1, r4
   8018e:	4630      	mov	r0, r6
   80190:	47a8      	blx	r5
   80192:	2800      	cmp	r0, #0
   80194:	d1fa      	bne.n	8018c <at24cxx_acknowledge_polling+0x2c>
		TWI_SUCCESS);

	/* Restore the package parameters */
	twi_package->addr[0] = addr;
   80196:	f884 a000 	strb.w	sl, [r4]
	twi_package->addr_length = addr_length;
   8019a:	f8c4 9004 	str.w	r9, [r4, #4]
	twi_package->buffer = buffer;
   8019e:	f8c4 8008 	str.w	r8, [r4, #8]
	twi_package->length = length;
   801a2:	60e7      	str	r7, [r4, #12]
}
   801a4:	b002      	add	sp, #8
   801a6:	e8bd 87f0 	ldmia.w	sp!, {r4, r5, r6, r7, r8, r9, sl, pc}
   801aa:	bf00      	nop
   801ac:	40090000 	.word	0x40090000
   801b0:	00080961 	.word	0x00080961

000801b4 <at24cxx_write_byte>:
 *
 * \return AT24C_WRITE_SUCCESS if single byte was written, AT24C_WRITE_FAIL
 * otherwise.
 */
uint32_t at24cxx_write_byte(uint32_t u32_address, uint8_t u8_value)
{
   801b4:	b510      	push	{r4, lr}
   801b6:	b088      	sub	sp, #32
   801b8:	f88d 1007 	strb.w	r1, [sp, #7]
	twi_package_t twi_package;

	/* Configure the data packet to be transmitted */
	twi_package.chip = BOARD_AT24C_ADDRESS;
   801bc:	2350      	movs	r3, #80	; 0x50
   801be:	f88d 301c 	strb.w	r3, [sp, #28]
	at24c_build_word_address(twi_package.addr, u32_address);
   801c2:	0a03      	lsrs	r3, r0, #8
   801c4:	f88d 300c 	strb.w	r3, [sp, #12]
   801c8:	f88d 000d 	strb.w	r0, [sp, #13]
	twi_package.addr_length = AT24C_MEM_ADDR_LEN;
   801cc:	2302      	movs	r3, #2
   801ce:	9304      	str	r3, [sp, #16]
	twi_package.buffer = &u8_value;
   801d0:	f10d 0307 	add.w	r3, sp, #7
   801d4:	9305      	str	r3, [sp, #20]
	twi_package.length = 1;
   801d6:	2301      	movs	r3, #1
   801d8:	9306      	str	r3, [sp, #24]

	if (twi_master_write(BOARD_AT24C_TWI_INSTANCE, &twi_package) !=
   801da:	a903      	add	r1, sp, #12
   801dc:	4806      	ldr	r0, [pc, #24]	; (801f8 <at24cxx_write_byte+0x44>)
   801de:	4b07      	ldr	r3, [pc, #28]	; (801fc <at24cxx_write_byte+0x48>)
   801e0:	4798      	blx	r3
   801e2:	b118      	cbz	r0, 801ec <at24cxx_write_byte+0x38>
			TWI_SUCCESS) {
		return AT24C_WRITE_FAIL;
   801e4:	2401      	movs	r4, #1
	}
	at24cxx_acknowledge_polling(&twi_package);

	return AT24C_WRITE_SUCCESS;
}
   801e6:	4620      	mov	r0, r4
   801e8:	b008      	add	sp, #32
   801ea:	bd10      	pop	{r4, pc}
   801ec:	4604      	mov	r4, r0
	at24cxx_acknowledge_polling(&twi_package);
   801ee:	a803      	add	r0, sp, #12
   801f0:	4b03      	ldr	r3, [pc, #12]	; (80200 <at24cxx_write_byte+0x4c>)
   801f2:	4798      	blx	r3
	return AT24C_WRITE_SUCCESS;
   801f4:	e7f7      	b.n	801e6 <at24cxx_write_byte+0x32>
   801f6:	bf00      	nop
   801f8:	40090000 	.word	0x40090000
   801fc:	00080961 	.word	0x00080961
   80200:	00080161 	.word	0x00080161

00080204 <at24cxx_read_byte>:
 * \param p_rd_byte Pointer to memory where the read byte will be stored.
 *
 * \return AT24C_READ_SUCCESS if one byte was read, AT24C_READ_FAIL otherwise.
 */
uint32_t at24cxx_read_byte(uint32_t u32_address, uint8_t *p_rd_byte)
{
   80204:	b500      	push	{lr}
   80206:	b087      	sub	sp, #28
	twi_package_t twi_package;

	/* Configure the data packet to be received */
	twi_package.chip = BOARD_AT24C_ADDRESS;
   80208:	2350      	movs	r3, #80	; 0x50
   8020a:	f88d 3014 	strb.w	r3, [sp, #20]
	at24c_build_word_address(twi_package.addr, u32_address);
   8020e:	0a03      	lsrs	r3, r0, #8
   80210:	f88d 3004 	strb.w	r3, [sp, #4]
   80214:	f88d 0005 	strb.w	r0, [sp, #5]
	twi_package.addr_length = AT24C_MEM_ADDR_LEN;
   80218:	2302      	movs	r3, #2
   8021a:	9302      	str	r3, [sp, #8]
	twi_package.buffer = p_rd_byte;
   8021c:	9103      	str	r1, [sp, #12]
	twi_package.length = 1;
   8021e:	2301      	movs	r3, #1
   80220:	9304      	str	r3, [sp, #16]

	if (twi_master_read(BOARD_AT24C_TWI_INSTANCE, &twi_package) !=
   80222:	a901      	add	r1, sp, #4
   80224:	4804      	ldr	r0, [pc, #16]	; (80238 <at24cxx_read_byte+0x34>)
   80226:	4b05      	ldr	r3, [pc, #20]	; (8023c <at24cxx_read_byte+0x38>)
   80228:	4798      	blx	r3
			TWI_SUCCESS) {
		return AT24C_READ_FAIL;
	}

	return AT24C_READ_SUCCESS;
}
   8022a:	3000      	adds	r0, #0
   8022c:	bf18      	it	ne
   8022e:	2001      	movne	r0, #1
   80230:	b007      	add	sp, #28
   80232:	f85d fb04 	ldr.w	pc, [sp], #4
   80236:	bf00      	nop
   80238:	40090000 	.word	0x40090000
   8023c:	000808a1 	.word	0x000808a1

00080240 <at24cxx_read_continuous>:
 *
 * \return AT24C_READ_SUCCESS if one byte was read, AT24C_READ_FAIL otherwise.
 */
uint32_t at24cxx_read_continuous(uint32_t u32_start_address,
		uint16_t u16_length, uint8_t *p_rd_buffer)
{
   80240:	b500      	push	{lr}
   80242:	b087      	sub	sp, #28
	twi_package_t twi_package;

	/* Configure the data packet to be received */
	twi_package.chip = BOARD_AT24C_ADDRESS;
   80244:	2350      	movs	r3, #80	; 0x50
   80246:	f88d 3014 	strb.w	r3, [sp, #20]
	at24c_build_word_address(twi_package.addr, u32_start_address);
   8024a:	0a03      	lsrs	r3, r0, #8
   8024c:	f88d 3004 	strb.w	r3, [sp, #4]
   80250:	f88d 0005 	strb.w	r0, [sp, #5]
	twi_package.addr_length = AT24C_MEM_ADDR_LEN;
   80254:	2302      	movs	r3, #2
   80256:	9302      	str	r3, [sp, #8]
	twi_package.buffer = p_rd_buffer;
   80258:	9203      	str	r2, [sp, #12]
	twi_package.length = u16_length;
   8025a:	9104      	str	r1, [sp, #16]

	if (twi_master_read(BOARD_AT24C_TWI_INSTANCE, &twi_package) !=
   8025c:	a901      	add	r1, sp, #4
   8025e:	4804      	ldr	r0, [pc, #16]	; (80270 <at24cxx_read_continuous+0x30>)
   80260:	4b04      	ldr	r3, [pc, #16]	; (80274 <at24cxx_read_continuous+0x34>)
   80262:	4798      	blx	r3
			TWI_SUCCESS) {
		return AT24C_READ_FAIL;
	}

	return AT24C_READ_SUCCESS;
}
   80264:	3000      	adds	r0, #0
   80266:	bf18      	it	ne
   80268:	2001      	movne	r0, #1
   8026a:	b007      	add	sp, #28
   8026c:	f85d fb04 	ldr.w	pc, [sp], #4
   80270:	40090000 	.word	0x40090000
   80274:	000808a1 	.word	0x000808a1

00080278 <adc_init>:
 *
 * \return 0 on success.
 */
uint32_t adc_init(Adc *p_adc, const uint32_t ul_mck,
		const uint32_t ul_adc_clock, const enum adc_startup_time startup)
{
   80278:	b430      	push	{r4, r5}
	uint32_t ul_prescal;

	/*  Reset the controller. */
	p_adc->ADC_CR = ADC_CR_SWRST;
   8027a:	2401      	movs	r4, #1
   8027c:	6004      	str	r4, [r0, #0]

	/* Reset Mode Register. */
	p_adc->ADC_MR = 0;
   8027e:	2400      	movs	r4, #0
   80280:	6044      	str	r4, [r0, #4]

	/* Reset PDC transfer. */
	p_adc->ADC_PTCR = (ADC_PTCR_RXTDIS | ADC_PTCR_TXTDIS);
   80282:	f240 2502 	movw	r5, #514	; 0x202
   80286:	f8c0 5120 	str.w	r5, [r0, #288]	; 0x120
	p_adc->ADC_RCR = 0;
   8028a:	f8c0 4104 	str.w	r4, [r0, #260]	; 0x104
	p_adc->ADC_RNCR = 0;
   8028e:	f8c0 4114 	str.w	r4, [r0, #276]	; 0x114

	ul_prescal = ul_mck / (2 * ul_adc_clock) - 1;
	p_adc->ADC_MR |= ADC_MR_PRESCAL(ul_prescal) | startup;
   80292:	6845      	ldr	r5, [r0, #4]
	ul_prescal = ul_mck / (2 * ul_adc_clock) - 1;
   80294:	0052      	lsls	r2, r2, #1
   80296:	fbb1 f2f2 	udiv	r2, r1, r2
   8029a:	3a01      	subs	r2, #1
	p_adc->ADC_MR |= ADC_MR_PRESCAL(ul_prescal) | startup;
   8029c:	0212      	lsls	r2, r2, #8
   8029e:	b292      	uxth	r2, r2
   802a0:	432b      	orrs	r3, r5
   802a2:	431a      	orrs	r2, r3
   802a4:	6042      	str	r2, [r0, #4]
	return 0;
}
   802a6:	4620      	mov	r0, r4
   802a8:	bc30      	pop	{r4, r5}
   802aa:	4770      	bx	lr

000802ac <adc_set_resolution>:
		p_adc->ADC_MR &= ~ADC_MR_LOWRES;
		p_adc->ADC_EMR |= resolution;
		break;
	}
#else
	p_adc->ADC_MR &= ~ADC_MR_LOWRES;
   802ac:	6843      	ldr	r3, [r0, #4]
   802ae:	f023 0310 	bic.w	r3, r3, #16
   802b2:	6043      	str	r3, [r0, #4]
	p_adc->ADC_MR |= resolution;
   802b4:	6843      	ldr	r3, [r0, #4]
   802b6:	4319      	orrs	r1, r3
   802b8:	6041      	str	r1, [r0, #4]
   802ba:	4770      	bx	lr

000802bc <adc_configure_trigger>:
 *
 */
void adc_configure_trigger(Adc *p_adc, const enum adc_trigger_t trigger,
		uint8_t uc_freerun)
{
	p_adc->ADC_MR |= trigger | ((uc_freerun << 7) & ADC_MR_FREERUN);
   802bc:	6843      	ldr	r3, [r0, #4]
   802be:	01d2      	lsls	r2, r2, #7
   802c0:	b2d2      	uxtb	r2, r2
   802c2:	4319      	orrs	r1, r3
   802c4:	430a      	orrs	r2, r1
   802c6:	6042      	str	r2, [r0, #4]
   802c8:	4770      	bx	lr

000802ca <adc_configure_timing>:
 * \param uc_settling Analog settling time = (uc_settling + 1) / ADC clock.
 * \param uc_transfer Data transfer time = (uc_transfer * 2 + 3) / ADC clock.
 */
void adc_configure_timing(Adc *p_adc, const uint8_t uc_tracking,
		const enum adc_settling_time_t settling,const uint8_t uc_transfer)
{
   802ca:	b410      	push	{r4}
	p_adc->ADC_MR |= ADC_MR_TRANSFER(uc_transfer)
   802cc:	6844      	ldr	r4, [r0, #4]
			| settling | ADC_MR_TRACKTIM(uc_tracking);
   802ce:	0609      	lsls	r1, r1, #24
   802d0:	f001 6170 	and.w	r1, r1, #251658240	; 0xf000000
	p_adc->ADC_MR |= ADC_MR_TRANSFER(uc_transfer)
   802d4:	4321      	orrs	r1, r4
   802d6:	430a      	orrs	r2, r1
   802d8:	0719      	lsls	r1, r3, #28
   802da:	f001 5140 	and.w	r1, r1, #805306368	; 0x30000000
   802de:	4311      	orrs	r1, r2
   802e0:	6041      	str	r1, [r0, #4]
}
   802e2:	bc10      	pop	{r4}
   802e4:	4770      	bx	lr

000802e6 <adc_start>:
 * \param p_adc Pointer to an ADC instance.
 */

void adc_start(Adc *p_adc)
{
	p_adc->ADC_CR = ADC_CR_START;
   802e6:	2302      	movs	r3, #2
   802e8:	6003      	str	r3, [r0, #0]
   802ea:	4770      	bx	lr

000802ec <adc_enable_channel>:
 * \param p_adc Pointer to an ADC instance.
 * \param adc_ch ADC channel number.
 */
void adc_enable_channel(Adc *p_adc, const enum adc_channel_num_t adc_ch)
{
	p_adc->ADC_CHER = 1 << adc_ch;
   802ec:	2301      	movs	r3, #1
   802ee:	fa03 f101 	lsl.w	r1, r3, r1
   802f2:	6101      	str	r1, [r0, #16]
   802f4:	4770      	bx	lr

000802f6 <adc_enable_tag>:
 *
 * \param p_adc Pointer to an ADC instance.
 */
void adc_enable_tag(Adc *p_adc)
{
	p_adc->ADC_EMR |= ADC_EMR_TAG;
   802f6:	6c03      	ldr	r3, [r0, #64]	; 0x40
   802f8:	f043 7380 	orr.w	r3, r3, #16777216	; 0x1000000
   802fc:	6403      	str	r3, [r0, #64]	; 0x40
   802fe:	4770      	bx	lr

00080300 <adc_enable_interrupt>:
 * \param p_adc Pointer to an ADC instance.
 * \param ul_source Interrupts to be enabled.
 */
void adc_enable_interrupt(Adc *p_adc, const uint32_t ul_source)
{
	p_adc->ADC_IER = ul_source;
   80300:	6241      	str	r1, [r0, #36]	; 0x24
   80302:	4770      	bx	lr

00080304 <sysclk_init>:
	pmc_disable_udpck();
}
#endif // CONFIG_USBCLK_SOURCE

void sysclk_init(void)
{
   80304:	b510      	push	{r4, lr}
	struct pll_config pllcfg;

	/* Set flash wait state to max in case the below clock switching. */
	system_init_flash(CHIP_FREQ_CPU_MAX);
   80306:	480e      	ldr	r0, [pc, #56]	; (80340 <sysclk_init+0x3c>)
   80308:	4b0e      	ldr	r3, [pc, #56]	; (80344 <sysclk_init+0x40>)
   8030a:	4798      	blx	r3
		pmc_switch_mainck_to_fastrc(CKGR_MOR_MOSCRCF_12_MHz);
		break;


	case OSC_MAINCK_XTAL:
		pmc_switch_mainck_to_xtal(PMC_OSC_XTAL,
   8030c:	213e      	movs	r1, #62	; 0x3e
   8030e:	2000      	movs	r0, #0
   80310:	4b0d      	ldr	r3, [pc, #52]	; (80348 <sysclk_init+0x44>)
   80312:	4798      	blx	r3
	case OSC_MAINCK_4M_RC:
	case OSC_MAINCK_8M_RC:
	case OSC_MAINCK_12M_RC:
	case OSC_MAINCK_XTAL:
	case OSC_MAINCK_BYPASS:
		return pmc_osc_is_ready_mainck();
   80314:	4c0d      	ldr	r4, [pc, #52]	; (8034c <sysclk_init+0x48>)
   80316:	47a0      	blx	r4
 *
 * \param id A number identifying the oscillator to wait for.
 */
static inline void osc_wait_ready(uint8_t id)
{
	while (!osc_is_ready(id)) {
   80318:	2800      	cmp	r0, #0
   8031a:	d0fc      	beq.n	80316 <sysclk_init+0x12>
static inline void pll_enable(const struct pll_config *p_cfg, uint32_t ul_pll_id)
{
	Assert(ul_pll_id < NR_PLLS);

	if (ul_pll_id == PLLA_ID) {
		pmc_disable_pllack(); // Always stop PLL first!
   8031c:	4b0c      	ldr	r3, [pc, #48]	; (80350 <sysclk_init+0x4c>)
   8031e:	4798      	blx	r3
		PMC->CKGR_PLLAR = CKGR_PLLAR_ONE | p_cfg->ctrl;
   80320:	4a0c      	ldr	r2, [pc, #48]	; (80354 <sysclk_init+0x50>)
   80322:	4b0d      	ldr	r3, [pc, #52]	; (80358 <sysclk_init+0x54>)
   80324:	629a      	str	r2, [r3, #40]	; 0x28
static inline uint32_t pll_is_locked(uint32_t ul_pll_id)
{
	Assert(ul_pll_id < NR_PLLS);

	if (ul_pll_id == PLLA_ID) {
		return pmc_is_locked_pllack();
   80326:	4c0d      	ldr	r4, [pc, #52]	; (8035c <sysclk_init+0x58>)
   80328:	47a0      	blx	r4
 */
static inline int pll_wait_for_lock(unsigned int pll_id)
{
	Assert(pll_id < NR_PLLS);

	while (!pll_is_locked(pll_id)) {
   8032a:	2800      	cmp	r0, #0
   8032c:	d0fc      	beq.n	80328 <sysclk_init+0x24>
	else if (CONFIG_SYSCLK_SOURCE == SYSCLK_SRC_PLLACK) {
		pll_enable_source(CONFIG_PLL0_SOURCE);
		pll_config_defaults(&pllcfg, 0);
		pll_enable(&pllcfg, 0);
		pll_wait_for_lock(0);
		pmc_switch_mck_to_pllack(CONFIG_SYSCLK_PRES);
   8032e:	2010      	movs	r0, #16
   80330:	4b0b      	ldr	r3, [pc, #44]	; (80360 <sysclk_init+0x5c>)
   80332:	4798      	blx	r3
		pll_wait_for_lock(1);
		pmc_switch_mck_to_upllck(CONFIG_SYSCLK_PRES);
	}

	/* Update the SystemFrequency variable */
	SystemCoreClockUpdate();
   80334:	4b0b      	ldr	r3, [pc, #44]	; (80364 <sysclk_init+0x60>)
   80336:	4798      	blx	r3

	/* Set a flash wait state depending on the new cpu frequency */
	system_init_flash(sysclk_get_cpu_hz());
   80338:	4801      	ldr	r0, [pc, #4]	; (80340 <sysclk_init+0x3c>)
   8033a:	4b02      	ldr	r3, [pc, #8]	; (80344 <sysclk_init+0x40>)
   8033c:	4798      	blx	r3
   8033e:	bd10      	pop	{r4, pc}
   80340:	0501bd00 	.word	0x0501bd00
   80344:	200700a5 	.word	0x200700a5
   80348:	00080675 	.word	0x00080675
   8034c:	000806c9 	.word	0x000806c9
   80350:	000806d9 	.word	0x000806d9
   80354:	200d3f01 	.word	0x200d3f01
   80358:	400e0600 	.word	0x400e0600
   8035c:	000806e9 	.word	0x000806e9
   80360:	00080611 	.word	0x00080611
   80364:	00080a85 	.word	0x00080a85

00080368 <board_init>:
#include "conf_board.h"
#include "gpio.h"
#include "ioport.h"

void board_init(void)
{
   80368:	b510      	push	{r4, lr}
#ifndef CONF_BOARD_KEEP_WATCHDOG_AT_INIT
	/* Disable the watchdog */
	WDT->WDT_MR = WDT_MR_WDDIS;
   8036a:	f44f 4200 	mov.w	r2, #32768	; 0x8000
   8036e:	4b16      	ldr	r3, [pc, #88]	; (803c8 <board_init+0x60>)
   80370:	605a      	str	r2, [r3, #4]
 *
 * \param ul_id Id (number) of the peripheral clock.
 */
static inline void sysclk_enable_peripheral_clock(uint32_t ul_id)
{
	pmc_enable_periph_clk(ul_id);
   80372:	200b      	movs	r0, #11
   80374:	4c15      	ldr	r4, [pc, #84]	; (803cc <board_init+0x64>)
   80376:	47a0      	blx	r4
   80378:	200c      	movs	r0, #12
   8037a:	47a0      	blx	r4
   8037c:	200d      	movs	r0, #13
   8037e:	47a0      	blx	r4
   80380:	200e      	movs	r0, #14
   80382:	47a0      	blx	r4
	 * In new designs IOPORT is used instead.
	 * Here IOPORT must be initialized for others to use before setting up IO.
	 */
	ioport_init();
	/* Configure LED pins */
	gpio_configure_pin(LED0_GPIO, LED0_FLAGS);
   80384:	f04f 5160 	mov.w	r1, #939524096	; 0x38000000
   80388:	203b      	movs	r0, #59	; 0x3b
   8038a:	4c11      	ldr	r4, [pc, #68]	; (803d0 <board_init+0x68>)
   8038c:	47a0      	blx	r4
	gpio_configure_pin(LED1_GPIO, LED1_FLAGS);
   8038e:	f04f 5160 	mov.w	r1, #939524096	; 0x38000000
   80392:	2055      	movs	r0, #85	; 0x55
   80394:	47a0      	blx	r4
	gpio_configure_pin(LED2_GPIO, LED2_FLAGS);
   80396:	f04f 5160 	mov.w	r1, #939524096	; 0x38000000
   8039a:	2056      	movs	r0, #86	; 0x56
   8039c:	47a0      	blx	r4

	/* Configure Push Button pins */
	gpio_configure_pin(GPIO_PUSH_BUTTON_1, GPIO_PUSH_BUTTON_1_FLAGS);
   8039e:	490d      	ldr	r1, [pc, #52]	; (803d4 <board_init+0x6c>)
   803a0:	2068      	movs	r0, #104	; 0x68
   803a2:	47a0      	blx	r4
	gpio_configure_pin(GPIO_PUSH_BUTTON_2, GPIO_PUSH_BUTTON_2_FLAGS);
   803a4:	490c      	ldr	r1, [pc, #48]	; (803d8 <board_init+0x70>)
   803a6:	205c      	movs	r0, #92	; 0x5c
   803a8:	47a0      	blx	r4

#ifdef CONF_BOARD_UART_CONSOLE
	/* Configure UART pins */
	gpio_configure_group(PINS_UART_PIO, PINS_UART, PINS_UART_FLAGS);
   803aa:	4a0c      	ldr	r2, [pc, #48]	; (803dc <board_init+0x74>)
   803ac:	f44f 7140 	mov.w	r1, #768	; 0x300
   803b0:	480b      	ldr	r0, [pc, #44]	; (803e0 <board_init+0x78>)
   803b2:	4b0c      	ldr	r3, [pc, #48]	; (803e4 <board_init+0x7c>)
   803b4:	4798      	blx	r3
	gpio_configure_pin(PIN_USART0_TXD_IDX, PIN_USART0_TXD_FLAGS);
#endif

#ifdef CONF_BOARD_USB_PORT
	/* Configure USB_ID (UOTGID) pin */
	gpio_configure_pin(USB_ID_GPIO, USB_ID_FLAGS);
   803b6:	f04f 6100 	mov.w	r1, #134217728	; 0x8000000
   803ba:	202b      	movs	r0, #43	; 0x2b
   803bc:	47a0      	blx	r4
	/* Configure USB_VBOF (UOTGVBOF) pin */
	gpio_configure_pin(USB_VBOF_GPIO, USB_VBOF_FLAGS);
   803be:	f04f 6100 	mov.w	r1, #134217728	; 0x8000000
   803c2:	202a      	movs	r0, #42	; 0x2a
   803c4:	47a0      	blx	r4
   803c6:	bd10      	pop	{r4, pc}
   803c8:	400e1a50 	.word	0x400e1a50
   803cc:	000806f9 	.word	0x000806f9
   803d0:	000804a5 	.word	0x000804a5
   803d4:	28000079 	.word	0x28000079
   803d8:	28000001 	.word	0x28000001
   803dc:	08000001 	.word	0x08000001
   803e0:	400e0e00 	.word	0x400e0e00
   803e4:	00080575 	.word	0x00080575

000803e8 <pdc_tx_init>:
		pdc_packet_t *p_next_packet)
{
	/* Validate inputs. */
	Assert(p_pdc);
	
	if (p_packet) {
   803e8:	460b      	mov	r3, r1
   803ea:	b119      	cbz	r1, 803f4 <pdc_tx_init+0xc>
		p_pdc->PERIPH_TPR = p_packet->ul_addr;
   803ec:	6809      	ldr	r1, [r1, #0]
   803ee:	6081      	str	r1, [r0, #8]
		p_pdc->PERIPH_TCR = p_packet->ul_size;
   803f0:	685b      	ldr	r3, [r3, #4]
   803f2:	60c3      	str	r3, [r0, #12]
	}
	if (p_next_packet) {
   803f4:	b11a      	cbz	r2, 803fe <pdc_tx_init+0x16>
		p_pdc->PERIPH_TNPR = p_next_packet->ul_addr;
   803f6:	6813      	ldr	r3, [r2, #0]
   803f8:	6183      	str	r3, [r0, #24]
		p_pdc->PERIPH_TNCR = p_next_packet->ul_size;
   803fa:	6853      	ldr	r3, [r2, #4]
   803fc:	61c3      	str	r3, [r0, #28]
   803fe:	4770      	bx	lr

00080400 <pdc_enable_transfer>:
{
	/* Validate inputs. */
	Assert(p_pdc);
	
	p_pdc->PERIPH_PTCR =
			ul_controls & (PERIPH_PTCR_RXTEN | PERIPH_PTCR_TXTEN);
   80400:	f021 01fe 	bic.w	r1, r1, #254	; 0xfe
   80404:	05c9      	lsls	r1, r1, #23
   80406:	0dc9      	lsrs	r1, r1, #23
	p_pdc->PERIPH_PTCR =
   80408:	6201      	str	r1, [r0, #32]
   8040a:	4770      	bx	lr

0008040c <pio_set_peripheral>:
		const uint32_t ul_mask)
{
	uint32_t ul_sr;

	/* Disable interrupts on the pin(s) */
	p_pio->PIO_IDR = ul_mask;
   8040c:	6442      	str	r2, [r0, #68]	; 0x44
	case PIO_OUTPUT_1:
	case PIO_NOT_A_PIN:
		return;
	}
#elif (SAM3XA|| SAM3U)
	switch (ul_type) {
   8040e:	f1b1 5f80 	cmp.w	r1, #268435456	; 0x10000000
   80412:	d016      	beq.n	80442 <pio_set_peripheral+0x36>
   80414:	d80b      	bhi.n	8042e <pio_set_peripheral+0x22>
   80416:	b149      	cbz	r1, 8042c <pio_set_peripheral+0x20>
   80418:	f1b1 6f00 	cmp.w	r1, #134217728	; 0x8000000
   8041c:	d105      	bne.n	8042a <pio_set_peripheral+0x1e>
	case PIO_PERIPH_A:
		ul_sr = p_pio->PIO_ABSR;
   8041e:	6f03      	ldr	r3, [r0, #112]	; 0x70
		p_pio->PIO_ABSR &= (~ul_mask & ul_sr);
   80420:	6f01      	ldr	r1, [r0, #112]	; 0x70
   80422:	400b      	ands	r3, r1
   80424:	ea23 0302 	bic.w	r3, r3, r2
   80428:	6703      	str	r3, [r0, #112]	; 0x70
#else
#error "Unsupported device"
#endif

	/* Remove the pins from under the control of PIO */
	p_pio->PIO_PDR = ul_mask;
   8042a:	6042      	str	r2, [r0, #4]
   8042c:	4770      	bx	lr
	switch (ul_type) {
   8042e:	f1b1 5f40 	cmp.w	r1, #805306368	; 0x30000000
   80432:	d0fb      	beq.n	8042c <pio_set_peripheral+0x20>
   80434:	f1b1 5f60 	cmp.w	r1, #939524096	; 0x38000000
   80438:	d0f8      	beq.n	8042c <pio_set_peripheral+0x20>
   8043a:	f1b1 5f20 	cmp.w	r1, #671088640	; 0x28000000
   8043e:	d1f4      	bne.n	8042a <pio_set_peripheral+0x1e>
   80440:	4770      	bx	lr
		ul_sr = p_pio->PIO_ABSR;
   80442:	6f03      	ldr	r3, [r0, #112]	; 0x70
		p_pio->PIO_ABSR = (ul_mask | ul_sr);
   80444:	4313      	orrs	r3, r2
   80446:	6703      	str	r3, [r0, #112]	; 0x70
		break;
   80448:	e7ef      	b.n	8042a <pio_set_peripheral+0x1e>

0008044a <pio_set_input>:
 * \param p_pio Pointer to a PIO instance.
 * \param ul_mask Interrupt sources bit map.
 */
void pio_disable_interrupt(Pio *p_pio, const uint32_t ul_mask)
{
	p_pio->PIO_IDR = ul_mask;
   8044a:	6441      	str	r1, [r0, #68]	; 0x44
	if (ul_pull_up_enable) {
   8044c:	f012 0f01 	tst.w	r2, #1
		p_pio->PIO_PUER = ul_mask;
   80450:	bf14      	ite	ne
   80452:	6641      	strne	r1, [r0, #100]	; 0x64
		p_pio->PIO_PUDR = ul_mask;
   80454:	6601      	streq	r1, [r0, #96]	; 0x60
	if (ul_attribute & (PIO_DEGLITCH | PIO_DEBOUNCE)) {
   80456:	f012 0f0a 	tst.w	r2, #10
		p_pio->PIO_IFER = ul_mask;
   8045a:	bf14      	ite	ne
   8045c:	6201      	strne	r1, [r0, #32]
		p_pio->PIO_IFDR = ul_mask;
   8045e:	6241      	streq	r1, [r0, #36]	; 0x24
	if (ul_attribute & PIO_DEGLITCH) {
   80460:	f012 0f02 	tst.w	r2, #2
   80464:	d107      	bne.n	80476 <pio_set_input+0x2c>
		if (ul_attribute & PIO_DEBOUNCE) {
   80466:	f012 0f08 	tst.w	r2, #8
			p_pio->PIO_DIFSR = ul_mask;
   8046a:	bf18      	it	ne
   8046c:	f8c0 1084 	strne.w	r1, [r0, #132]	; 0x84
	p_pio->PIO_ODR = ul_mask;
   80470:	6141      	str	r1, [r0, #20]
	p_pio->PIO_PER = ul_mask;
   80472:	6001      	str	r1, [r0, #0]
   80474:	4770      	bx	lr
		p_pio->PIO_SCIFSR = ul_mask;
   80476:	f8c0 1080 	str.w	r1, [r0, #128]	; 0x80
   8047a:	e7f9      	b.n	80470 <pio_set_input+0x26>

0008047c <pio_set_output>:
{
   8047c:	b410      	push	{r4}
   8047e:	9c01      	ldr	r4, [sp, #4]
	p_pio->PIO_IDR = ul_mask;
   80480:	6441      	str	r1, [r0, #68]	; 0x44
	if (ul_pull_up_enable) {
   80482:	b944      	cbnz	r4, 80496 <pio_set_output+0x1a>
		p_pio->PIO_PUDR = ul_mask;
   80484:	6601      	str	r1, [r0, #96]	; 0x60
	if (ul_multidrive_enable) {
   80486:	b143      	cbz	r3, 8049a <pio_set_output+0x1e>
		p_pio->PIO_MDER = ul_mask;
   80488:	6501      	str	r1, [r0, #80]	; 0x50
	if (ul_default_level) {
   8048a:	b942      	cbnz	r2, 8049e <pio_set_output+0x22>
		p_pio->PIO_CODR = ul_mask;
   8048c:	6341      	str	r1, [r0, #52]	; 0x34
	p_pio->PIO_OER = ul_mask;
   8048e:	6101      	str	r1, [r0, #16]
	p_pio->PIO_PER = ul_mask;
   80490:	6001      	str	r1, [r0, #0]
}
   80492:	bc10      	pop	{r4}
   80494:	4770      	bx	lr
		p_pio->PIO_PUER = ul_mask;
   80496:	6641      	str	r1, [r0, #100]	; 0x64
   80498:	e7f5      	b.n	80486 <pio_set_output+0xa>
		p_pio->PIO_MDDR = ul_mask;
   8049a:	6541      	str	r1, [r0, #84]	; 0x54
   8049c:	e7f5      	b.n	8048a <pio_set_output+0xe>
		p_pio->PIO_SODR = ul_mask;
   8049e:	6301      	str	r1, [r0, #48]	; 0x30
   804a0:	e7f5      	b.n	8048e <pio_set_output+0x12>
	...

000804a4 <pio_configure_pin>:
 * \param ul_flags Pins attributes.
 *
 * \return Whether the pin(s) have been configured properly.
 */
uint32_t pio_configure_pin(uint32_t ul_pin, const uint32_t ul_flags)
{
   804a4:	b570      	push	{r4, r5, r6, lr}
   804a6:	b082      	sub	sp, #8
   804a8:	460d      	mov	r5, r1
		p_pio = PIOC;
	} else {
		p_pio = (Pio *)((uint32_t)PIOA + (PIO_DELTA * (ul_pin >> 5)));
	}
#else
	p_pio = (Pio *)((uint32_t)PIOA + (PIO_DELTA * (ul_pin >> 5)));
   804aa:	0943      	lsrs	r3, r0, #5
   804ac:	f503 1300 	add.w	r3, r3, #2097152	; 0x200000
   804b0:	f203 7307 	addw	r3, r3, #1799	; 0x707
   804b4:	025c      	lsls	r4, r3, #9
	switch (ul_flags & PIO_TYPE_Msk) {
   804b6:	f001 43f0 	and.w	r3, r1, #2013265920	; 0x78000000
   804ba:	f1b3 5f20 	cmp.w	r3, #671088640	; 0x28000000
   804be:	d031      	beq.n	80524 <pio_configure_pin+0x80>
   804c0:	d816      	bhi.n	804f0 <pio_configure_pin+0x4c>
   804c2:	f1b3 6f00 	cmp.w	r3, #134217728	; 0x8000000
   804c6:	d01b      	beq.n	80500 <pio_configure_pin+0x5c>
   804c8:	f1b3 5f80 	cmp.w	r3, #268435456	; 0x10000000
   804cc:	d116      	bne.n	804fc <pio_configure_pin+0x58>
		pio_set_peripheral(p_pio, PIO_PERIPH_B, (1 << (ul_pin & 0x1F)));
   804ce:	f000 001f 	and.w	r0, r0, #31
   804d2:	2601      	movs	r6, #1
   804d4:	4086      	lsls	r6, r0
   804d6:	4632      	mov	r2, r6
   804d8:	f04f 5180 	mov.w	r1, #268435456	; 0x10000000
   804dc:	4620      	mov	r0, r4
   804de:	4b22      	ldr	r3, [pc, #136]	; (80568 <pio_configure_pin+0xc4>)
   804e0:	4798      	blx	r3
	if (ul_pull_up_enable) {
   804e2:	f015 0f01 	tst.w	r5, #1
		p_pio->PIO_PUER = ul_mask;
   804e6:	bf14      	ite	ne
   804e8:	6666      	strne	r6, [r4, #100]	; 0x64
		p_pio->PIO_PUDR = ul_mask;
   804ea:	6626      	streq	r6, [r4, #96]	; 0x60
	return 1;
   804ec:	2001      	movs	r0, #1
   804ee:	e017      	b.n	80520 <pio_configure_pin+0x7c>
	switch (ul_flags & PIO_TYPE_Msk) {
   804f0:	f1b3 5f40 	cmp.w	r3, #805306368	; 0x30000000
   804f4:	d021      	beq.n	8053a <pio_configure_pin+0x96>
   804f6:	f1b3 5f60 	cmp.w	r3, #939524096	; 0x38000000
   804fa:	d01e      	beq.n	8053a <pio_configure_pin+0x96>
		return 0;
   804fc:	2000      	movs	r0, #0
   804fe:	e00f      	b.n	80520 <pio_configure_pin+0x7c>
		pio_set_peripheral(p_pio, PIO_PERIPH_A, (1 << (ul_pin & 0x1F)));
   80500:	f000 001f 	and.w	r0, r0, #31
   80504:	2601      	movs	r6, #1
   80506:	4086      	lsls	r6, r0
   80508:	4632      	mov	r2, r6
   8050a:	f04f 6100 	mov.w	r1, #134217728	; 0x8000000
   8050e:	4620      	mov	r0, r4
   80510:	4b15      	ldr	r3, [pc, #84]	; (80568 <pio_configure_pin+0xc4>)
   80512:	4798      	blx	r3
	if (ul_pull_up_enable) {
   80514:	f015 0f01 	tst.w	r5, #1
		p_pio->PIO_PUER = ul_mask;
   80518:	bf14      	ite	ne
   8051a:	6666      	strne	r6, [r4, #100]	; 0x64
		p_pio->PIO_PUDR = ul_mask;
   8051c:	6626      	streq	r6, [r4, #96]	; 0x60
	return 1;
   8051e:	2001      	movs	r0, #1
}
   80520:	b002      	add	sp, #8
   80522:	bd70      	pop	{r4, r5, r6, pc}
		pio_set_input(p_pio, (1 << (ul_pin & 0x1F)), ul_flags);
   80524:	f000 011f 	and.w	r1, r0, #31
   80528:	2601      	movs	r6, #1
   8052a:	462a      	mov	r2, r5
   8052c:	fa06 f101 	lsl.w	r1, r6, r1
   80530:	4620      	mov	r0, r4
   80532:	4b0e      	ldr	r3, [pc, #56]	; (8056c <pio_configure_pin+0xc8>)
   80534:	4798      	blx	r3
	return 1;
   80536:	4630      	mov	r0, r6
		break;
   80538:	e7f2      	b.n	80520 <pio_configure_pin+0x7c>
				((ul_flags & PIO_TYPE_PIO_OUTPUT_1)
   8053a:	f005 5260 	and.w	r2, r5, #939524096	; 0x38000000
		pio_set_output(p_pio, (1 << (ul_pin & 0x1F)),
   8053e:	f000 011f 	and.w	r1, r0, #31
   80542:	2601      	movs	r6, #1
   80544:	ea05 0306 	and.w	r3, r5, r6
   80548:	9300      	str	r3, [sp, #0]
   8054a:	f3c5 0380 	ubfx	r3, r5, #2, #1
   8054e:	f1b2 5f60 	cmp.w	r2, #939524096	; 0x38000000
   80552:	bf14      	ite	ne
   80554:	2200      	movne	r2, #0
   80556:	2201      	moveq	r2, #1
   80558:	fa06 f101 	lsl.w	r1, r6, r1
   8055c:	4620      	mov	r0, r4
   8055e:	4c04      	ldr	r4, [pc, #16]	; (80570 <pio_configure_pin+0xcc>)
   80560:	47a0      	blx	r4
	return 1;
   80562:	4630      	mov	r0, r6
		break;
   80564:	e7dc      	b.n	80520 <pio_configure_pin+0x7c>
   80566:	bf00      	nop
   80568:	0008040d 	.word	0x0008040d
   8056c:	0008044b 	.word	0x0008044b
   80570:	0008047d 	.word	0x0008047d

00080574 <pio_configure_pin_group>:
{
   80574:	b570      	push	{r4, r5, r6, lr}
   80576:	b082      	sub	sp, #8
   80578:	4605      	mov	r5, r0
   8057a:	460e      	mov	r6, r1
   8057c:	4614      	mov	r4, r2
	switch (ul_flags & PIO_TYPE_Msk) {
   8057e:	f002 43f0 	and.w	r3, r2, #2013265920	; 0x78000000
   80582:	f1b3 5f20 	cmp.w	r3, #671088640	; 0x28000000
   80586:	d027      	beq.n	805d8 <pio_configure_pin_group+0x64>
   80588:	d811      	bhi.n	805ae <pio_configure_pin_group+0x3a>
   8058a:	f1b3 6f00 	cmp.w	r3, #134217728	; 0x8000000
   8058e:	d016      	beq.n	805be <pio_configure_pin_group+0x4a>
   80590:	f1b3 5f80 	cmp.w	r3, #268435456	; 0x10000000
   80594:	d111      	bne.n	805ba <pio_configure_pin_group+0x46>
		pio_set_peripheral(p_pio, PIO_PERIPH_B, ul_mask);
   80596:	460a      	mov	r2, r1
   80598:	f04f 5180 	mov.w	r1, #268435456	; 0x10000000
   8059c:	4b19      	ldr	r3, [pc, #100]	; (80604 <pio_configure_pin_group+0x90>)
   8059e:	4798      	blx	r3
	if (ul_pull_up_enable) {
   805a0:	f014 0f01 	tst.w	r4, #1
		p_pio->PIO_PUER = ul_mask;
   805a4:	bf14      	ite	ne
   805a6:	666e      	strne	r6, [r5, #100]	; 0x64
		p_pio->PIO_PUDR = ul_mask;
   805a8:	662e      	streq	r6, [r5, #96]	; 0x60
	return 1;
   805aa:	2001      	movs	r0, #1
   805ac:	e012      	b.n	805d4 <pio_configure_pin_group+0x60>
	switch (ul_flags & PIO_TYPE_Msk) {
   805ae:	f1b3 5f40 	cmp.w	r3, #805306368	; 0x30000000
   805b2:	d015      	beq.n	805e0 <pio_configure_pin_group+0x6c>
   805b4:	f1b3 5f60 	cmp.w	r3, #939524096	; 0x38000000
   805b8:	d012      	beq.n	805e0 <pio_configure_pin_group+0x6c>
		return 0;
   805ba:	2000      	movs	r0, #0
   805bc:	e00a      	b.n	805d4 <pio_configure_pin_group+0x60>
		pio_set_peripheral(p_pio, PIO_PERIPH_A, ul_mask);
   805be:	460a      	mov	r2, r1
   805c0:	f04f 6100 	mov.w	r1, #134217728	; 0x8000000
   805c4:	4b0f      	ldr	r3, [pc, #60]	; (80604 <pio_configure_pin_group+0x90>)
   805c6:	4798      	blx	r3
	if (ul_pull_up_enable) {
   805c8:	f014 0f01 	tst.w	r4, #1
		p_pio->PIO_PUER = ul_mask;
   805cc:	bf14      	ite	ne
   805ce:	666e      	strne	r6, [r5, #100]	; 0x64
		p_pio->PIO_PUDR = ul_mask;
   805d0:	662e      	streq	r6, [r5, #96]	; 0x60
	return 1;
   805d2:	2001      	movs	r0, #1
}
   805d4:	b002      	add	sp, #8
   805d6:	bd70      	pop	{r4, r5, r6, pc}
		pio_set_input(p_pio, ul_mask, ul_flags);
   805d8:	4b0b      	ldr	r3, [pc, #44]	; (80608 <pio_configure_pin_group+0x94>)
   805da:	4798      	blx	r3
	return 1;
   805dc:	2001      	movs	r0, #1
		break;
   805de:	e7f9      	b.n	805d4 <pio_configure_pin_group+0x60>
				((ul_flags & PIO_TYPE_PIO_OUTPUT_1)
   805e0:	f004 5260 	and.w	r2, r4, #939524096	; 0x38000000
		pio_set_output(p_pio, ul_mask,
   805e4:	f004 0301 	and.w	r3, r4, #1
   805e8:	9300      	str	r3, [sp, #0]
   805ea:	f3c4 0380 	ubfx	r3, r4, #2, #1
   805ee:	f1b2 5f60 	cmp.w	r2, #939524096	; 0x38000000
   805f2:	bf14      	ite	ne
   805f4:	2200      	movne	r2, #0
   805f6:	2201      	moveq	r2, #1
   805f8:	4631      	mov	r1, r6
   805fa:	4628      	mov	r0, r5
   805fc:	4c03      	ldr	r4, [pc, #12]	; (8060c <pio_configure_pin_group+0x98>)
   805fe:	47a0      	blx	r4
	return 1;
   80600:	2001      	movs	r0, #1
		break;
   80602:	e7e7      	b.n	805d4 <pio_configure_pin_group+0x60>
   80604:	0008040d 	.word	0x0008040d
   80608:	0008044b 	.word	0x0008044b
   8060c:	0008047d 	.word	0x0008047d

00080610 <pmc_switch_mck_to_pllack>:
 */
uint32_t pmc_switch_mck_to_pllack(uint32_t ul_pres)
{
	uint32_t ul_timeout;

	PMC->PMC_MCKR = (PMC->PMC_MCKR & (~PMC_MCKR_PRES_Msk)) | ul_pres;
   80610:	4a17      	ldr	r2, [pc, #92]	; (80670 <pmc_switch_mck_to_pllack+0x60>)
   80612:	6b13      	ldr	r3, [r2, #48]	; 0x30
   80614:	f023 0370 	bic.w	r3, r3, #112	; 0x70
   80618:	4318      	orrs	r0, r3
   8061a:	6310      	str	r0, [r2, #48]	; 0x30
	for (ul_timeout = PMC_TIMEOUT; !(PMC->PMC_SR & PMC_SR_MCKRDY);
   8061c:	6e93      	ldr	r3, [r2, #104]	; 0x68
   8061e:	f013 0f08 	tst.w	r3, #8
   80622:	d10a      	bne.n	8063a <pmc_switch_mck_to_pllack+0x2a>
   80624:	f44f 6300 	mov.w	r3, #2048	; 0x800
   80628:	4911      	ldr	r1, [pc, #68]	; (80670 <pmc_switch_mck_to_pllack+0x60>)
   8062a:	6e8a      	ldr	r2, [r1, #104]	; 0x68
   8062c:	f012 0f08 	tst.w	r2, #8
   80630:	d103      	bne.n	8063a <pmc_switch_mck_to_pllack+0x2a>
			--ul_timeout) {
		if (ul_timeout == 0) {
   80632:	3b01      	subs	r3, #1
   80634:	d1f9      	bne.n	8062a <pmc_switch_mck_to_pllack+0x1a>
			return 1;
   80636:	2001      	movs	r0, #1
   80638:	4770      	bx	lr
		}
	}

	PMC->PMC_MCKR = (PMC->PMC_MCKR & (~PMC_MCKR_CSS_Msk)) |
   8063a:	4a0d      	ldr	r2, [pc, #52]	; (80670 <pmc_switch_mck_to_pllack+0x60>)
   8063c:	6b13      	ldr	r3, [r2, #48]	; 0x30
   8063e:	f023 0303 	bic.w	r3, r3, #3
   80642:	f043 0302 	orr.w	r3, r3, #2
   80646:	6313      	str	r3, [r2, #48]	; 0x30
			PMC_MCKR_CSS_PLLA_CLK;

	for (ul_timeout = PMC_TIMEOUT; !(PMC->PMC_SR & PMC_SR_MCKRDY);
   80648:	6e93      	ldr	r3, [r2, #104]	; 0x68
   8064a:	f013 0f08 	tst.w	r3, #8
   8064e:	d10a      	bne.n	80666 <pmc_switch_mck_to_pllack+0x56>
   80650:	f44f 6300 	mov.w	r3, #2048	; 0x800
   80654:	4906      	ldr	r1, [pc, #24]	; (80670 <pmc_switch_mck_to_pllack+0x60>)
   80656:	6e8a      	ldr	r2, [r1, #104]	; 0x68
   80658:	f012 0f08 	tst.w	r2, #8
   8065c:	d105      	bne.n	8066a <pmc_switch_mck_to_pllack+0x5a>
			--ul_timeout) {
		if (ul_timeout == 0) {
   8065e:	3b01      	subs	r3, #1
   80660:	d1f9      	bne.n	80656 <pmc_switch_mck_to_pllack+0x46>
			return 1;
   80662:	2001      	movs	r0, #1
		}
	}

	return 0;
}
   80664:	4770      	bx	lr
	return 0;
   80666:	2000      	movs	r0, #0
   80668:	4770      	bx	lr
   8066a:	2000      	movs	r0, #0
   8066c:	4770      	bx	lr
   8066e:	bf00      	nop
   80670:	400e0600 	.word	0x400e0600

00080674 <pmc_switch_mainck_to_xtal>:
 */
void pmc_switch_mainck_to_xtal(uint32_t ul_bypass,
		uint32_t ul_xtal_startup_time)
{
	/* Enable Main Xtal oscillator */
	if (ul_bypass) {
   80674:	b9c8      	cbnz	r0, 806aa <pmc_switch_mainck_to_xtal+0x36>
		PMC->CKGR_MOR = (PMC->CKGR_MOR & ~CKGR_MOR_MOSCXTEN) |
				CKGR_MOR_KEY_PASSWD | CKGR_MOR_MOSCXTBY |
				CKGR_MOR_MOSCSEL;
	} else {
		PMC->CKGR_MOR = (PMC->CKGR_MOR & ~CKGR_MOR_MOSCXTBY) |
   80676:	4a11      	ldr	r2, [pc, #68]	; (806bc <pmc_switch_mainck_to_xtal+0x48>)
   80678:	6a13      	ldr	r3, [r2, #32]
				CKGR_MOR_KEY_PASSWD | CKGR_MOR_MOSCXTEN |
				CKGR_MOR_MOSCXTST(ul_xtal_startup_time);
   8067a:	0209      	lsls	r1, r1, #8
   8067c:	b289      	uxth	r1, r1
				CKGR_MOR_KEY_PASSWD | CKGR_MOR_MOSCXTEN |
   8067e:	f423 135c 	bic.w	r3, r3, #3604480	; 0x370000
   80682:	f023 0303 	bic.w	r3, r3, #3
   80686:	f443 135c 	orr.w	r3, r3, #3604480	; 0x370000
   8068a:	f043 0301 	orr.w	r3, r3, #1
   8068e:	430b      	orrs	r3, r1
		PMC->CKGR_MOR = (PMC->CKGR_MOR & ~CKGR_MOR_MOSCXTBY) |
   80690:	6213      	str	r3, [r2, #32]
		/* Wait the Xtal to stabilize */
		while (!(PMC->PMC_SR & PMC_SR_MOSCXTS));
   80692:	6e93      	ldr	r3, [r2, #104]	; 0x68
   80694:	f013 0f01 	tst.w	r3, #1
   80698:	d0fb      	beq.n	80692 <pmc_switch_mainck_to_xtal+0x1e>

		PMC->CKGR_MOR |= CKGR_MOR_KEY_PASSWD | CKGR_MOR_MOSCSEL;
   8069a:	4a08      	ldr	r2, [pc, #32]	; (806bc <pmc_switch_mainck_to_xtal+0x48>)
   8069c:	6a13      	ldr	r3, [r2, #32]
   8069e:	f043 739b 	orr.w	r3, r3, #20316160	; 0x1360000
   806a2:	f443 3380 	orr.w	r3, r3, #65536	; 0x10000
   806a6:	6213      	str	r3, [r2, #32]
   806a8:	4770      	bx	lr
		PMC->CKGR_MOR = (PMC->CKGR_MOR & ~CKGR_MOR_MOSCXTEN) |
   806aa:	4904      	ldr	r1, [pc, #16]	; (806bc <pmc_switch_mainck_to_xtal+0x48>)
   806ac:	6a0b      	ldr	r3, [r1, #32]
				CKGR_MOR_KEY_PASSWD | CKGR_MOR_MOSCXTBY |
   806ae:	4a04      	ldr	r2, [pc, #16]	; (806c0 <pmc_switch_mainck_to_xtal+0x4c>)
   806b0:	401a      	ands	r2, r3
   806b2:	4b04      	ldr	r3, [pc, #16]	; (806c4 <pmc_switch_mainck_to_xtal+0x50>)
   806b4:	4313      	orrs	r3, r2
		PMC->CKGR_MOR = (PMC->CKGR_MOR & ~CKGR_MOR_MOSCXTEN) |
   806b6:	620b      	str	r3, [r1, #32]
   806b8:	4770      	bx	lr
   806ba:	bf00      	nop
   806bc:	400e0600 	.word	0x400e0600
   806c0:	fec8fffc 	.word	0xfec8fffc
   806c4:	01370002 	.word	0x01370002

000806c8 <pmc_osc_is_ready_mainck>:
 * \retval 1 Xtal is ready.
 * \retval 0 Xtal is not ready.
 */
uint32_t pmc_osc_is_ready_mainck(void)
{
	return PMC->PMC_SR & PMC_SR_MOSCSELS;
   806c8:	4b02      	ldr	r3, [pc, #8]	; (806d4 <pmc_osc_is_ready_mainck+0xc>)
   806ca:	6e98      	ldr	r0, [r3, #104]	; 0x68
}
   806cc:	f400 3080 	and.w	r0, r0, #65536	; 0x10000
   806d0:	4770      	bx	lr
   806d2:	bf00      	nop
   806d4:	400e0600 	.word	0x400e0600

000806d8 <pmc_disable_pllack>:
void pmc_disable_pllack(void)
{
#if (SAM4C || SAM4CM || SAM4CP || SAMG)
	PMC->CKGR_PLLAR = CKGR_PLLAR_MULA(0);
#else
	PMC->CKGR_PLLAR = CKGR_PLLAR_ONE | CKGR_PLLAR_MULA(0);
   806d8:	f04f 5200 	mov.w	r2, #536870912	; 0x20000000
   806dc:	4b01      	ldr	r3, [pc, #4]	; (806e4 <pmc_disable_pllack+0xc>)
   806de:	629a      	str	r2, [r3, #40]	; 0x28
   806e0:	4770      	bx	lr
   806e2:	bf00      	nop
   806e4:	400e0600 	.word	0x400e0600

000806e8 <pmc_is_locked_pllack>:
 * \retval 0 Not locked.
 * \retval 1 Locked.
 */
uint32_t pmc_is_locked_pllack(void)
{
	return (PMC->PMC_SR & PMC_SR_LOCKA);
   806e8:	4b02      	ldr	r3, [pc, #8]	; (806f4 <pmc_is_locked_pllack+0xc>)
   806ea:	6e98      	ldr	r0, [r3, #104]	; 0x68
}
   806ec:	f000 0002 	and.w	r0, r0, #2
   806f0:	4770      	bx	lr
   806f2:	bf00      	nop
   806f4:	400e0600 	.word	0x400e0600

000806f8 <pmc_enable_periph_clk>:
 * \retval 0 Success.
 * \retval 1 Invalid parameter.
 */
uint32_t pmc_enable_periph_clk(uint32_t ul_id)
{
	if (ul_id > MAX_PERIPH_ID) {
   806f8:	282c      	cmp	r0, #44	; 0x2c
   806fa:	d81e      	bhi.n	8073a <pmc_enable_periph_clk+0x42>
		return 1;
	}

	if (ul_id < 32) {
   806fc:	281f      	cmp	r0, #31
   806fe:	d80c      	bhi.n	8071a <pmc_enable_periph_clk+0x22>
		if ((PMC->PMC_PCSR0 & (1u << ul_id)) != (1u << ul_id)) {
   80700:	4b11      	ldr	r3, [pc, #68]	; (80748 <pmc_enable_periph_clk+0x50>)
   80702:	699a      	ldr	r2, [r3, #24]
   80704:	2301      	movs	r3, #1
   80706:	4083      	lsls	r3, r0
   80708:	4393      	bics	r3, r2
   8070a:	d018      	beq.n	8073e <pmc_enable_periph_clk+0x46>
			PMC->PMC_PCER0 = 1 << ul_id;
   8070c:	2301      	movs	r3, #1
   8070e:	fa03 f000 	lsl.w	r0, r3, r0
   80712:	4b0d      	ldr	r3, [pc, #52]	; (80748 <pmc_enable_periph_clk+0x50>)
   80714:	6118      	str	r0, [r3, #16]
			PMC->PMC_PCER1 = 1 << ul_id;
		}
#endif
	}

	return 0;
   80716:	2000      	movs	r0, #0
   80718:	4770      	bx	lr
		ul_id -= 32;
   8071a:	3820      	subs	r0, #32
		if ((PMC->PMC_PCSR1 & (1u << ul_id)) != (1u << ul_id)) {
   8071c:	4b0a      	ldr	r3, [pc, #40]	; (80748 <pmc_enable_periph_clk+0x50>)
   8071e:	f8d3 2108 	ldr.w	r2, [r3, #264]	; 0x108
   80722:	2301      	movs	r3, #1
   80724:	4083      	lsls	r3, r0
   80726:	4393      	bics	r3, r2
   80728:	d00b      	beq.n	80742 <pmc_enable_periph_clk+0x4a>
			PMC->PMC_PCER1 = 1 << ul_id;
   8072a:	2301      	movs	r3, #1
   8072c:	fa03 f000 	lsl.w	r0, r3, r0
   80730:	4b05      	ldr	r3, [pc, #20]	; (80748 <pmc_enable_periph_clk+0x50>)
   80732:	f8c3 0100 	str.w	r0, [r3, #256]	; 0x100
	return 0;
   80736:	2000      	movs	r0, #0
   80738:	4770      	bx	lr
		return 1;
   8073a:	2001      	movs	r0, #1
   8073c:	4770      	bx	lr
	return 0;
   8073e:	2000      	movs	r0, #0
   80740:	4770      	bx	lr
   80742:	2000      	movs	r0, #0
}
   80744:	4770      	bx	lr
   80746:	bf00      	nop
   80748:	400e0600 	.word	0x400e0600

0008074c <tc_init>:
 */
void tc_init(
		Tc *p_tc,
		uint32_t ul_channel,
		uint32_t ul_mode)
{
   8074c:	b410      	push	{r4}

	/* Validate inputs. */
	Assert(p_tc);
	Assert(ul_channel <
			(sizeof(p_tc->TC_CHANNEL) / sizeof(p_tc->TC_CHANNEL[0])));
	tc_channel = p_tc->TC_CHANNEL + ul_channel;
   8074e:	0189      	lsls	r1, r1, #6
   80750:	1843      	adds	r3, r0, r1

	/*  Disable TC clock. */
	tc_channel->TC_CCR = TC_CCR_CLKDIS;
   80752:	2402      	movs	r4, #2
   80754:	5044      	str	r4, [r0, r1]

	/*  Disable interrupts. */
	tc_channel->TC_IDR = 0xFFFFFFFF;
   80756:	f04f 31ff 	mov.w	r1, #4294967295
   8075a:	6299      	str	r1, [r3, #40]	; 0x28

	/*  Clear status register. */
	tc_channel->TC_SR;
   8075c:	6a19      	ldr	r1, [r3, #32]

	/*  Set mode. */
	tc_channel->TC_CMR = ul_mode;
   8075e:	605a      	str	r2, [r3, #4]
}
   80760:	bc10      	pop	{r4}
   80762:	4770      	bx	lr

00080764 <tc_start>:
	/* Validate inputs. */
	Assert(p_tc);
	Assert(ul_channel <
			(sizeof(p_tc->TC_CHANNEL) / sizeof(p_tc->TC_CHANNEL[0])));

	p_tc->TC_CHANNEL[ul_channel].TC_CCR = TC_CCR_CLKEN | TC_CCR_SWTRG;
   80764:	0189      	lsls	r1, r1, #6
   80766:	2305      	movs	r3, #5
   80768:	5043      	str	r3, [r0, r1]
   8076a:	4770      	bx	lr

0008076c <tc_write_ra>:
	/* Validate inputs. */
	Assert(p_tc);
	Assert(ul_channel <
			(sizeof(p_tc->TC_CHANNEL) / sizeof(p_tc->TC_CHANNEL[0])));

	p_tc->TC_CHANNEL[ul_channel].TC_RA = ul_value;
   8076c:	eb00 1181 	add.w	r1, r0, r1, lsl #6
   80770:	614a      	str	r2, [r1, #20]
   80772:	4770      	bx	lr

00080774 <tc_write_rc>:
	/* Validate inputs. */
	Assert(p_tc);
	Assert(ul_channel <
			(sizeof(p_tc->TC_CHANNEL) / sizeof(p_tc->TC_CHANNEL[0])));

	p_tc->TC_CHANNEL[ul_channel].TC_RC = ul_value;
   80774:	eb00 1181 	add.w	r1, r0, r1, lsl #6
   80778:	61ca      	str	r2, [r1, #28]
   8077a:	4770      	bx	lr

0008077c <tc_enable_interrupt>:

	/* Validate inputs. */
	Assert(p_tc);
	Assert(ul_channel <
			(sizeof(p_tc->TC_CHANNEL) / sizeof(p_tc->TC_CHANNEL[0])));
	tc_channel = p_tc->TC_CHANNEL + ul_channel;
   8077c:	eb00 1181 	add.w	r1, r0, r1, lsl #6
	tc_channel->TC_IER = ul_sources;
   80780:	624a      	str	r2, [r1, #36]	; 0x24
   80782:	4770      	bx	lr

00080784 <twi_set_speed>:
{
	uint32_t ckdiv = 0;
	uint32_t c_lh_div;
	uint32_t cldiv, chdiv;

	if (ul_speed > I2C_FAST_MODE_SPEED) {
   80784:	4b2a      	ldr	r3, [pc, #168]	; (80830 <twi_set_speed+0xac>)
   80786:	4299      	cmp	r1, r3
   80788:	d849      	bhi.n	8081e <twi_set_speed+0x9a>
		return FAIL;
	}

	/* Low level time not less than 1.3us of I2C Fast Mode. */
	if (ul_speed > LOW_LEVEL_TIME_LIMIT) {
   8078a:	f5a3 537a 	sub.w	r3, r3, #16000	; 0x3e80
   8078e:	4299      	cmp	r1, r3
   80790:	d92b      	bls.n	807ea <twi_set_speed+0x66>
{
   80792:	b410      	push	{r4}
		/* Low level of time fixed for 1.3us. */
		cldiv = ul_mck / (LOW_LEVEL_TIME_LIMIT * TWI_CLK_DIVIDER) - TWI_CLK_CALC_ARGU;
   80794:	4c27      	ldr	r4, [pc, #156]	; (80834 <twi_set_speed+0xb0>)
   80796:	fba4 3402 	umull	r3, r4, r4, r2
   8079a:	0ba4      	lsrs	r4, r4, #14
   8079c:	3c04      	subs	r4, #4
		chdiv = ul_mck / ((ul_speed + (ul_speed - LOW_LEVEL_TIME_LIMIT)) * TWI_CLK_DIVIDER) - TWI_CLK_CALC_ARGU;
   8079e:	4b26      	ldr	r3, [pc, #152]	; (80838 <twi_set_speed+0xb4>)
   807a0:	440b      	add	r3, r1
   807a2:	009b      	lsls	r3, r3, #2
   807a4:	fbb2 f2f3 	udiv	r2, r2, r3
   807a8:	3a04      	subs	r2, #4
		
		/* cldiv must fit in 8 bits, ckdiv must fit in 3 bits */
		while ((cldiv > TWI_CLK_DIV_MAX) && (ckdiv < TWI_CLK_DIV_MIN)) {
   807aa:	2cff      	cmp	r4, #255	; 0xff
   807ac:	d939      	bls.n	80822 <twi_set_speed+0x9e>
   807ae:	2100      	movs	r1, #0
			/* Increase clock divider */
			ckdiv++;
   807b0:	3101      	adds	r1, #1
			/* Divide cldiv value */
			cldiv /= TWI_CLK_DIVIDER;
   807b2:	0864      	lsrs	r4, r4, #1
		while ((cldiv > TWI_CLK_DIV_MAX) && (ckdiv < TWI_CLK_DIV_MIN)) {
   807b4:	2cff      	cmp	r4, #255	; 0xff
   807b6:	d90d      	bls.n	807d4 <twi_set_speed+0x50>
   807b8:	2907      	cmp	r1, #7
   807ba:	d1f9      	bne.n	807b0 <twi_set_speed+0x2c>
			chdiv /= TWI_CLK_DIVIDER;
		}

		/* set clock waveform generator register */
		p_twi->TWI_CWGR =
				TWI_CWGR_CLDIV(cldiv) | TWI_CWGR_CHDIV(chdiv) |
   807bc:	0213      	lsls	r3, r2, #8
   807be:	b29b      	uxth	r3, r3
				TWI_CWGR_CKDIV(ckdiv);		
   807c0:	0409      	lsls	r1, r1, #16
   807c2:	f401 21e0 	and.w	r1, r1, #458752	; 0x70000
				TWI_CWGR_CLDIV(cldiv) | TWI_CWGR_CHDIV(chdiv) |
   807c6:	430b      	orrs	r3, r1
   807c8:	b2e4      	uxtb	r4, r4
   807ca:	4323      	orrs	r3, r4
		p_twi->TWI_CWGR =
   807cc:	6103      	str	r3, [r0, #16]
		p_twi->TWI_CWGR =
				TWI_CWGR_CLDIV(c_lh_div) | TWI_CWGR_CHDIV(c_lh_div) |
				TWI_CWGR_CKDIV(ckdiv);
	}

	return PASS;
   807ce:	2000      	movs	r0, #0
}
   807d0:	bc10      	pop	{r4}
   807d2:	4770      	bx	lr
		while ((chdiv > TWI_CLK_DIV_MAX) && (ckdiv < TWI_CLK_DIV_MIN)) {
   807d4:	2aff      	cmp	r2, #255	; 0xff
   807d6:	d9f1      	bls.n	807bc <twi_set_speed+0x38>
   807d8:	2906      	cmp	r1, #6
   807da:	d8ef      	bhi.n	807bc <twi_set_speed+0x38>
			ckdiv++;
   807dc:	3101      	adds	r1, #1
			chdiv /= TWI_CLK_DIVIDER;
   807de:	0852      	lsrs	r2, r2, #1
		while ((chdiv > TWI_CLK_DIV_MAX) && (ckdiv < TWI_CLK_DIV_MIN)) {
   807e0:	2aff      	cmp	r2, #255	; 0xff
   807e2:	d9eb      	bls.n	807bc <twi_set_speed+0x38>
   807e4:	2906      	cmp	r1, #6
   807e6:	d9f9      	bls.n	807dc <twi_set_speed+0x58>
   807e8:	e7e8      	b.n	807bc <twi_set_speed+0x38>
		c_lh_div = ul_mck / (ul_speed * TWI_CLK_DIVIDER) - TWI_CLK_CALC_ARGU;
   807ea:	0049      	lsls	r1, r1, #1
   807ec:	fbb2 f2f1 	udiv	r2, r2, r1
   807f0:	3a04      	subs	r2, #4
		while ((c_lh_div > TWI_CLK_DIV_MAX) && (ckdiv < TWI_CLK_DIV_MIN)) {
   807f2:	2aff      	cmp	r2, #255	; 0xff
   807f4:	d911      	bls.n	8081a <twi_set_speed+0x96>
   807f6:	2300      	movs	r3, #0
			ckdiv++;
   807f8:	3301      	adds	r3, #1
			c_lh_div /= TWI_CLK_DIVIDER;
   807fa:	0852      	lsrs	r2, r2, #1
		while ((c_lh_div > TWI_CLK_DIV_MAX) && (ckdiv < TWI_CLK_DIV_MIN)) {
   807fc:	2aff      	cmp	r2, #255	; 0xff
   807fe:	d901      	bls.n	80804 <twi_set_speed+0x80>
   80800:	2b07      	cmp	r3, #7
   80802:	d1f9      	bne.n	807f8 <twi_set_speed+0x74>
				TWI_CWGR_CLDIV(c_lh_div) | TWI_CWGR_CHDIV(c_lh_div) |
   80804:	0211      	lsls	r1, r2, #8
   80806:	b289      	uxth	r1, r1
				TWI_CWGR_CKDIV(ckdiv);
   80808:	041b      	lsls	r3, r3, #16
   8080a:	f403 23e0 	and.w	r3, r3, #458752	; 0x70000
				TWI_CWGR_CLDIV(c_lh_div) | TWI_CWGR_CHDIV(c_lh_div) |
   8080e:	430b      	orrs	r3, r1
   80810:	b2d2      	uxtb	r2, r2
   80812:	431a      	orrs	r2, r3
		p_twi->TWI_CWGR =
   80814:	6102      	str	r2, [r0, #16]
	return PASS;
   80816:	2000      	movs	r0, #0
   80818:	4770      	bx	lr
	uint32_t ckdiv = 0;
   8081a:	2300      	movs	r3, #0
   8081c:	e7f2      	b.n	80804 <twi_set_speed+0x80>
		return FAIL;
   8081e:	2001      	movs	r0, #1
   80820:	4770      	bx	lr
		while ((chdiv > TWI_CLK_DIV_MAX) && (ckdiv < TWI_CLK_DIV_MIN)) {
   80822:	2aff      	cmp	r2, #255	; 0xff
	uint32_t ckdiv = 0;
   80824:	bf88      	it	hi
   80826:	2100      	movhi	r1, #0
		while ((chdiv > TWI_CLK_DIV_MAX) && (ckdiv < TWI_CLK_DIV_MIN)) {
   80828:	d8d8      	bhi.n	807dc <twi_set_speed+0x58>
	uint32_t ckdiv = 0;
   8082a:	2100      	movs	r1, #0
   8082c:	e7c6      	b.n	807bc <twi_set_speed+0x38>
   8082e:	bf00      	nop
   80830:	00061a80 	.word	0x00061a80
   80834:	057619f1 	.word	0x057619f1
   80838:	3ffd1200 	.word	0x3ffd1200

0008083c <twi_master_init>:
{
   8083c:	b538      	push	{r3, r4, r5, lr}
   8083e:	4604      	mov	r4, r0
   80840:	460d      	mov	r5, r1
	p_twi->TWI_IDR = ~0UL;
   80842:	f04f 33ff 	mov.w	r3, #4294967295
   80846:	6283      	str	r3, [r0, #40]	; 0x28
	p_twi->TWI_SR;
   80848:	6a03      	ldr	r3, [r0, #32]
 * \param p_twi Pointer to a TWI instance.
 */
void twi_reset(Twi *p_twi)
{
	/* Set SWRST bit to reset TWI peripheral */
	p_twi->TWI_CR = TWI_CR_SWRST;
   8084a:	2380      	movs	r3, #128	; 0x80
   8084c:	6003      	str	r3, [r0, #0]
	p_twi->TWI_RHR;
   8084e:	6b03      	ldr	r3, [r0, #48]	; 0x30
	p_twi->TWI_CR = TWI_CR_MSDIS;
   80850:	2308      	movs	r3, #8
   80852:	6003      	str	r3, [r0, #0]
	p_twi->TWI_CR = TWI_CR_SVDIS;
   80854:	2320      	movs	r3, #32
   80856:	6003      	str	r3, [r0, #0]
	p_twi->TWI_CR = TWI_CR_MSEN;
   80858:	2304      	movs	r3, #4
   8085a:	6003      	str	r3, [r0, #0]
	if (twi_set_speed(p_twi, p_opt->speed, p_opt->master_clk) == FAIL) {
   8085c:	680a      	ldr	r2, [r1, #0]
   8085e:	6849      	ldr	r1, [r1, #4]
   80860:	4b05      	ldr	r3, [pc, #20]	; (80878 <twi_master_init+0x3c>)
   80862:	4798      	blx	r3
   80864:	2801      	cmp	r0, #1
   80866:	bf14      	ite	ne
   80868:	2000      	movne	r0, #0
   8086a:	2001      	moveq	r0, #1
	if (p_opt->smbus == 1) {
   8086c:	7a6b      	ldrb	r3, [r5, #9]
   8086e:	2b01      	cmp	r3, #1
		p_twi->TWI_CR = TWI_CR_QUICK;
   80870:	bf04      	itt	eq
   80872:	2340      	moveq	r3, #64	; 0x40
   80874:	6023      	streq	r3, [r4, #0]
}
   80876:	bd38      	pop	{r3, r4, r5, pc}
   80878:	00080785 	.word	0x00080785

0008087c <twi_mk_addr>:
	if (len == 0)
   8087c:	460a      	mov	r2, r1
   8087e:	b159      	cbz	r1, 80898 <twi_mk_addr+0x1c>
	val = addr[0];
   80880:	7803      	ldrb	r3, [r0, #0]
	if (len > 1) {
   80882:	2901      	cmp	r1, #1
		val |= addr[1];
   80884:	bfc4      	itt	gt
   80886:	7841      	ldrbgt	r1, [r0, #1]
   80888:	ea41 2303 	orrgt.w	r3, r1, r3, lsl #8
	if (len > 2) {
   8088c:	2a02      	cmp	r2, #2
   8088e:	dd04      	ble.n	8089a <twi_mk_addr+0x1e>
		val |= addr[2];
   80890:	7882      	ldrb	r2, [r0, #2]
   80892:	ea42 2303 	orr.w	r3, r2, r3, lsl #8
   80896:	e000      	b.n	8089a <twi_mk_addr+0x1e>
		return 0;
   80898:	2300      	movs	r3, #0
}
   8089a:	4618      	mov	r0, r3
   8089c:	4770      	bx	lr
	...

000808a0 <twi_master_read>:
{
   808a0:	b5f8      	push	{r3, r4, r5, r6, r7, lr}
	uint32_t cnt = p_packet->length;
   808a2:	68cc      	ldr	r4, [r1, #12]
	if (cnt == 0) {
   808a4:	2c00      	cmp	r4, #0
   808a6:	d04f      	beq.n	80948 <twi_master_read+0xa8>
   808a8:	460b      	mov	r3, r1
   808aa:	4605      	mov	r5, r0
	uint8_t *buffer = p_packet->buffer;
   808ac:	688e      	ldr	r6, [r1, #8]
	p_twi->TWI_MMR = 0;
   808ae:	2000      	movs	r0, #0
   808b0:	6068      	str	r0, [r5, #4]
			((p_packet->addr_length << TWI_MMR_IADRSZ_Pos) &
   808b2:	684a      	ldr	r2, [r1, #4]
   808b4:	0212      	lsls	r2, r2, #8
   808b6:	f402 7240 	and.w	r2, r2, #768	; 0x300
	p_twi->TWI_MMR = TWI_MMR_MREAD | TWI_MMR_DADR(p_packet->chip) |
   808ba:	f442 5280 	orr.w	r2, r2, #4096	; 0x1000
   808be:	7c09      	ldrb	r1, [r1, #16]
   808c0:	0409      	lsls	r1, r1, #16
   808c2:	f401 01fe 	and.w	r1, r1, #8323072	; 0x7f0000
   808c6:	430a      	orrs	r2, r1
   808c8:	606a      	str	r2, [r5, #4]
	p_twi->TWI_IADR = 0;
   808ca:	60e8      	str	r0, [r5, #12]
	p_twi->TWI_IADR = twi_mk_addr(p_packet->addr, p_packet->addr_length);
   808cc:	6859      	ldr	r1, [r3, #4]
   808ce:	4618      	mov	r0, r3
   808d0:	4b22      	ldr	r3, [pc, #136]	; (8095c <twi_master_read+0xbc>)
   808d2:	4798      	blx	r3
   808d4:	60e8      	str	r0, [r5, #12]
	if (cnt == 1) {
   808d6:	2c01      	cmp	r4, #1
   808d8:	d00f      	beq.n	808fa <twi_master_read+0x5a>
		p_twi->TWI_CR = TWI_CR_START;
   808da:	2301      	movs	r3, #1
   808dc:	602b      	str	r3, [r5, #0]
		stop_sent = 0;
   808de:	2000      	movs	r0, #0
		status = p_twi->TWI_SR;
   808e0:	6a2b      	ldr	r3, [r5, #32]
		if (status & TWI_SR_NACK) {
   808e2:	f413 7f80 	tst.w	r3, #256	; 0x100
   808e6:	d136      	bne.n	80956 <twi_master_read+0xb6>
   808e8:	f643 2197 	movw	r1, #14999	; 0x3a97
		timeout = TWI_TIMEOUT;
   808ec:	f643 2798 	movw	r7, #15000	; 0x3a98
		if (!(status & TWI_SR_RXRDY)) {
   808f0:	f04f 0e01 	mov.w	lr, #1
			p_twi->TWI_CR = TWI_CR_STOP;
   808f4:	f04f 0c02 	mov.w	ip, #2
   808f8:	e019      	b.n	8092e <twi_master_read+0x8e>
		p_twi->TWI_CR = TWI_CR_START | TWI_CR_STOP;
   808fa:	2303      	movs	r3, #3
   808fc:	602b      	str	r3, [r5, #0]
		stop_sent = 1;
   808fe:	2001      	movs	r0, #1
   80900:	e7ee      	b.n	808e0 <twi_master_read+0x40>
		if (!(status & TWI_SR_RXRDY)) {
   80902:	460a      	mov	r2, r1
   80904:	4670      	mov	r0, lr
   80906:	e00c      	b.n	80922 <twi_master_read+0x82>
		if (cnt == 1  && !stop_sent) {
   80908:	b908      	cbnz	r0, 8090e <twi_master_read+0x6e>
			p_twi->TWI_CR = TWI_CR_STOP;
   8090a:	f8c5 c000 	str.w	ip, [r5]
		if (!(status & TWI_SR_RXRDY)) {
   8090e:	f013 0f02 	tst.w	r3, #2
   80912:	d0f6      	beq.n	80902 <twi_master_read+0x62>
   80914:	4670      	mov	r0, lr
		*buffer++ = p_twi->TWI_RHR;
   80916:	6b2b      	ldr	r3, [r5, #48]	; 0x30
   80918:	7033      	strb	r3, [r6, #0]
		cnt--;
   8091a:	3c01      	subs	r4, #1
		*buffer++ = p_twi->TWI_RHR;
   8091c:	3601      	adds	r6, #1
		timeout = TWI_TIMEOUT;
   8091e:	463a      	mov	r2, r7
	while (cnt > 0) {
   80920:	b164      	cbz	r4, 8093c <twi_master_read+0x9c>
		status = p_twi->TWI_SR;
   80922:	6a2b      	ldr	r3, [r5, #32]
		if (status & TWI_SR_NACK) {
   80924:	f413 7f80 	tst.w	r3, #256	; 0x100
   80928:	d111      	bne.n	8094e <twi_master_read+0xae>
		if (!timeout--) {
   8092a:	1e51      	subs	r1, r2, #1
   8092c:	b18a      	cbz	r2, 80952 <twi_master_read+0xb2>
		if (cnt == 1  && !stop_sent) {
   8092e:	2c01      	cmp	r4, #1
   80930:	d0ea      	beq.n	80908 <twi_master_read+0x68>
		if (!(status & TWI_SR_RXRDY)) {
   80932:	f013 0f02 	tst.w	r3, #2
   80936:	d1ee      	bne.n	80916 <twi_master_read+0x76>
   80938:	460a      	mov	r2, r1
   8093a:	e7f1      	b.n	80920 <twi_master_read+0x80>
	while (!(p_twi->TWI_SR & TWI_SR_TXCOMP)) {
   8093c:	6a2b      	ldr	r3, [r5, #32]
   8093e:	f013 0f01 	tst.w	r3, #1
   80942:	d0fb      	beq.n	8093c <twi_master_read+0x9c>
	p_twi->TWI_SR;
   80944:	6a2b      	ldr	r3, [r5, #32]
	return TWI_SUCCESS;
   80946:	e000      	b.n	8094a <twi_master_read+0xaa>
		return TWI_INVALID_ARGUMENT;
   80948:	2401      	movs	r4, #1
}
   8094a:	4620      	mov	r0, r4
   8094c:	bdf8      	pop	{r3, r4, r5, r6, r7, pc}
			return TWI_RECEIVE_NACK;
   8094e:	2405      	movs	r4, #5
   80950:	e7fb      	b.n	8094a <twi_master_read+0xaa>
			return TWI_ERROR_TIMEOUT;
   80952:	2409      	movs	r4, #9
   80954:	e7f9      	b.n	8094a <twi_master_read+0xaa>
			return TWI_RECEIVE_NACK;
   80956:	2405      	movs	r4, #5
   80958:	e7f7      	b.n	8094a <twi_master_read+0xaa>
   8095a:	bf00      	nop
   8095c:	0008087d 	.word	0x0008087d

00080960 <twi_master_write>:
{
   80960:	b570      	push	{r4, r5, r6, lr}
	uint32_t cnt = p_packet->length;
   80962:	68cd      	ldr	r5, [r1, #12]
	if (cnt == 0) {
   80964:	2d00      	cmp	r5, #0
   80966:	d035      	beq.n	809d4 <twi_master_write+0x74>
   80968:	460b      	mov	r3, r1
   8096a:	4604      	mov	r4, r0
	uint8_t *buffer = p_packet->buffer;
   8096c:	688e      	ldr	r6, [r1, #8]
	p_twi->TWI_MMR = 0;
   8096e:	2000      	movs	r0, #0
   80970:	6060      	str	r0, [r4, #4]
	p_twi->TWI_MMR = TWI_MMR_DADR(p_packet->chip) |
   80972:	7c0a      	ldrb	r2, [r1, #16]
   80974:	0412      	lsls	r2, r2, #16
   80976:	f402 02fe 	and.w	r2, r2, #8323072	; 0x7f0000
			((p_packet->addr_length << TWI_MMR_IADRSZ_Pos) &
   8097a:	6849      	ldr	r1, [r1, #4]
   8097c:	0209      	lsls	r1, r1, #8
   8097e:	f401 7140 	and.w	r1, r1, #768	; 0x300
	p_twi->TWI_MMR = TWI_MMR_DADR(p_packet->chip) |
   80982:	430a      	orrs	r2, r1
   80984:	6062      	str	r2, [r4, #4]
	p_twi->TWI_IADR = 0;
   80986:	60e0      	str	r0, [r4, #12]
	p_twi->TWI_IADR = twi_mk_addr(p_packet->addr, p_packet->addr_length);
   80988:	6859      	ldr	r1, [r3, #4]
   8098a:	4618      	mov	r0, r3
   8098c:	4b15      	ldr	r3, [pc, #84]	; (809e4 <twi_master_write+0x84>)
   8098e:	4798      	blx	r3
   80990:	60e0      	str	r0, [r4, #12]
		status = p_twi->TWI_SR;
   80992:	6a23      	ldr	r3, [r4, #32]
		if (status & TWI_SR_NACK) {
   80994:	f413 7f80 	tst.w	r3, #256	; 0x100
   80998:	d006      	beq.n	809a8 <twi_master_write+0x48>
			return TWI_RECEIVE_NACK;
   8099a:	2505      	movs	r5, #5
   8099c:	e01b      	b.n	809d6 <twi_master_write+0x76>
	while (cnt > 0) {
   8099e:	b15d      	cbz	r5, 809b8 <twi_master_write+0x58>
		status = p_twi->TWI_SR;
   809a0:	6a23      	ldr	r3, [r4, #32]
		if (status & TWI_SR_NACK) {
   809a2:	f413 7f80 	tst.w	r3, #256	; 0x100
   809a6:	d118      	bne.n	809da <twi_master_write+0x7a>
		if (!(status & TWI_SR_TXRDY)) {
   809a8:	f013 0f04 	tst.w	r3, #4
   809ac:	d0f7      	beq.n	8099e <twi_master_write+0x3e>
		p_twi->TWI_THR = *buffer++;
   809ae:	7833      	ldrb	r3, [r6, #0]
   809b0:	6363      	str	r3, [r4, #52]	; 0x34
		cnt--;
   809b2:	3d01      	subs	r5, #1
		p_twi->TWI_THR = *buffer++;
   809b4:	3601      	adds	r6, #1
   809b6:	e7f2      	b.n	8099e <twi_master_write+0x3e>
		status = p_twi->TWI_SR;
   809b8:	6a23      	ldr	r3, [r4, #32]
		if (status & TWI_SR_NACK) {
   809ba:	f413 7f80 	tst.w	r3, #256	; 0x100
   809be:	d10e      	bne.n	809de <twi_master_write+0x7e>
		if (status & TWI_SR_TXRDY) {
   809c0:	f013 0f04 	tst.w	r3, #4
   809c4:	d0f8      	beq.n	809b8 <twi_master_write+0x58>
	p_twi->TWI_CR = TWI_CR_STOP;
   809c6:	2302      	movs	r3, #2
   809c8:	6023      	str	r3, [r4, #0]
	while (!(p_twi->TWI_SR & TWI_SR_TXCOMP)) {
   809ca:	6a23      	ldr	r3, [r4, #32]
   809cc:	f013 0f01 	tst.w	r3, #1
   809d0:	d0fb      	beq.n	809ca <twi_master_write+0x6a>
   809d2:	e000      	b.n	809d6 <twi_master_write+0x76>
		return TWI_INVALID_ARGUMENT;
   809d4:	2501      	movs	r5, #1
}
   809d6:	4628      	mov	r0, r5
   809d8:	bd70      	pop	{r4, r5, r6, pc}
			return TWI_RECEIVE_NACK;
   809da:	2505      	movs	r5, #5
   809dc:	e7fb      	b.n	809d6 <twi_master_write+0x76>
			return TWI_RECEIVE_NACK;
   809de:	2505      	movs	r5, #5
   809e0:	e7f9      	b.n	809d6 <twi_master_write+0x76>
   809e2:	bf00      	nop
   809e4:	0008087d 	.word	0x0008087d

000809e8 <Dummy_Handler>:

/**
 * \brief Default interrupt handler for unused IRQs.
 */
void Dummy_Handler(void)
{
   809e8:	e7fe      	b.n	809e8 <Dummy_Handler>
	...

000809ec <Reset_Handler>:
/**
 * \brief This is the code that gets called on processor reset.
 * To initialize the device, and call the main() routine.
 */
void Reset_Handler(void)
{
   809ec:	b508      	push	{r3, lr}

	/* Initialize the relocate segment */
	pSrc = &_etext;
	pDest = &_srelocate;

	if (pSrc != pDest) {
   809ee:	4b1c      	ldr	r3, [pc, #112]	; (80a60 <Reset_Handler+0x74>)
   809f0:	4a1c      	ldr	r2, [pc, #112]	; (80a64 <Reset_Handler+0x78>)
   809f2:	429a      	cmp	r2, r3
   809f4:	d010      	beq.n	80a18 <Reset_Handler+0x2c>
		for (; pDest < &_erelocate;) {
   809f6:	4b1c      	ldr	r3, [pc, #112]	; (80a68 <Reset_Handler+0x7c>)
   809f8:	4a19      	ldr	r2, [pc, #100]	; (80a60 <Reset_Handler+0x74>)
   809fa:	429a      	cmp	r2, r3
   809fc:	d20c      	bcs.n	80a18 <Reset_Handler+0x2c>
   809fe:	3b01      	subs	r3, #1
   80a00:	1a9b      	subs	r3, r3, r2
   80a02:	f023 0303 	bic.w	r3, r3, #3
   80a06:	3304      	adds	r3, #4
   80a08:	4413      	add	r3, r2
   80a0a:	4916      	ldr	r1, [pc, #88]	; (80a64 <Reset_Handler+0x78>)
			*pDest++ = *pSrc++;
   80a0c:	f851 0b04 	ldr.w	r0, [r1], #4
   80a10:	f842 0b04 	str.w	r0, [r2], #4
		for (; pDest < &_erelocate;) {
   80a14:	429a      	cmp	r2, r3
   80a16:	d1f9      	bne.n	80a0c <Reset_Handler+0x20>
		}
	}

	/* Clear the zero segment */
	for (pDest = &_szero; pDest < &_ezero;) {
   80a18:	4b14      	ldr	r3, [pc, #80]	; (80a6c <Reset_Handler+0x80>)
   80a1a:	4a15      	ldr	r2, [pc, #84]	; (80a70 <Reset_Handler+0x84>)
   80a1c:	429a      	cmp	r2, r3
   80a1e:	d20a      	bcs.n	80a36 <Reset_Handler+0x4a>
   80a20:	3b01      	subs	r3, #1
   80a22:	1a9b      	subs	r3, r3, r2
   80a24:	f023 0303 	bic.w	r3, r3, #3
   80a28:	3304      	adds	r3, #4
   80a2a:	4413      	add	r3, r2
		*pDest++ = 0;
   80a2c:	2100      	movs	r1, #0
   80a2e:	f842 1b04 	str.w	r1, [r2], #4
	for (pDest = &_szero; pDest < &_ezero;) {
   80a32:	4293      	cmp	r3, r2
   80a34:	d1fb      	bne.n	80a2e <Reset_Handler+0x42>
	}

	/* Set the vector table base address */
	pSrc = (uint32_t *) & _sfixed;
	SCB->VTOR = ((uint32_t) pSrc & SCB_VTOR_TBLOFF_Msk);
   80a36:	4b0f      	ldr	r3, [pc, #60]	; (80a74 <Reset_Handler+0x88>)
   80a38:	f023 4260 	bic.w	r2, r3, #3758096384	; 0xe0000000
   80a3c:	f022 027f 	bic.w	r2, r2, #127	; 0x7f
   80a40:	490d      	ldr	r1, [pc, #52]	; (80a78 <Reset_Handler+0x8c>)
   80a42:	608a      	str	r2, [r1, #8]

	if (((uint32_t) pSrc >= IRAM0_ADDR) && ((uint32_t) pSrc < NFC_RAM_ADDR)) {
   80a44:	f103 4360 	add.w	r3, r3, #3758096384	; 0xe0000000
   80a48:	f5b3 1f80 	cmp.w	r3, #1048576	; 0x100000
   80a4c:	d203      	bcs.n	80a56 <Reset_Handler+0x6a>
		SCB->VTOR |= 1 << SCB_VTOR_TBLBASE_Pos;
   80a4e:	688b      	ldr	r3, [r1, #8]
   80a50:	f043 5300 	orr.w	r3, r3, #536870912	; 0x20000000
   80a54:	608b      	str	r3, [r1, #8]
	}

	/* Initialize the C library */
	__libc_init_array();
   80a56:	4b09      	ldr	r3, [pc, #36]	; (80a7c <Reset_Handler+0x90>)
   80a58:	4798      	blx	r3

	/* Branch to main function */
	main();
   80a5a:	4b09      	ldr	r3, [pc, #36]	; (80a80 <Reset_Handler+0x94>)
   80a5c:	4798      	blx	r3
   80a5e:	e7fe      	b.n	80a5e <Reset_Handler+0x72>
   80a60:	20070000 	.word	0x20070000
   80a64:	0008453c 	.word	0x0008453c
   80a68:	20070970 	.word	0x20070970
   80a6c:	20072458 	.word	0x20072458
   80a70:	20070970 	.word	0x20070970
   80a74:	00080000 	.word	0x00080000
   80a78:	e000ed00 	.word	0xe000ed00
   80a7c:	00083a89 	.word	0x00083a89
   80a80:	00082cf5 	.word	0x00082cf5

00080a84 <SystemCoreClockUpdate>:
}

void SystemCoreClockUpdate(void)
{
	/* Determine clock frequency according to clock register values */
	switch (PMC->PMC_MCKR & PMC_MCKR_CSS_Msk) {
   80a84:	4b3d      	ldr	r3, [pc, #244]	; (80b7c <SystemCoreClockUpdate+0xf8>)
   80a86:	6b1b      	ldr	r3, [r3, #48]	; 0x30
   80a88:	f003 0303 	and.w	r3, r3, #3
   80a8c:	2b03      	cmp	r3, #3
   80a8e:	d80e      	bhi.n	80aae <SystemCoreClockUpdate+0x2a>
   80a90:	e8df f003 	tbb	[pc, r3]
   80a94:	38381c02 	.word	0x38381c02
	case PMC_MCKR_CSS_SLOW_CLK:	/* Slow clock */
		if (SUPC->SUPC_SR & SUPC_SR_OSCSEL) {
   80a98:	4b39      	ldr	r3, [pc, #228]	; (80b80 <SystemCoreClockUpdate+0xfc>)
   80a9a:	695b      	ldr	r3, [r3, #20]
   80a9c:	f013 0f80 	tst.w	r3, #128	; 0x80
			SystemCoreClock = CHIP_FREQ_XTAL_32K;
   80aa0:	bf14      	ite	ne
   80aa2:	f44f 4200 	movne.w	r2, #32768	; 0x8000
		} else {
			SystemCoreClock = CHIP_FREQ_SLCK_RC;
   80aa6:	f44f 42fa 	moveq.w	r2, #32000	; 0x7d00
   80aaa:	4b36      	ldr	r3, [pc, #216]	; (80b84 <SystemCoreClockUpdate+0x100>)
   80aac:	601a      	str	r2, [r3, #0]
			SystemCoreClock = SYS_UTMIPLL / 2U;
		}
		break;
	}

	if ((PMC->PMC_MCKR & PMC_MCKR_PRES_Msk) == PMC_MCKR_PRES_CLK_3) {
   80aae:	4b33      	ldr	r3, [pc, #204]	; (80b7c <SystemCoreClockUpdate+0xf8>)
   80ab0:	6b1b      	ldr	r3, [r3, #48]	; 0x30
   80ab2:	f003 0370 	and.w	r3, r3, #112	; 0x70
   80ab6:	2b70      	cmp	r3, #112	; 0x70
   80ab8:	d057      	beq.n	80b6a <SystemCoreClockUpdate+0xe6>
		SystemCoreClock /= 3U;
	} else {
		SystemCoreClock >>= ((PMC->PMC_MCKR & PMC_MCKR_PRES_Msk) >> 
   80aba:	4b30      	ldr	r3, [pc, #192]	; (80b7c <SystemCoreClockUpdate+0xf8>)
   80abc:	6b1a      	ldr	r2, [r3, #48]	; 0x30
   80abe:	4931      	ldr	r1, [pc, #196]	; (80b84 <SystemCoreClockUpdate+0x100>)
   80ac0:	f3c2 1202 	ubfx	r2, r2, #4, #3
   80ac4:	680b      	ldr	r3, [r1, #0]
   80ac6:	40d3      	lsrs	r3, r2
   80ac8:	600b      	str	r3, [r1, #0]
   80aca:	4770      	bx	lr
		if (PMC->CKGR_MOR & CKGR_MOR_MOSCSEL) {
   80acc:	4b2b      	ldr	r3, [pc, #172]	; (80b7c <SystemCoreClockUpdate+0xf8>)
   80ace:	6a1b      	ldr	r3, [r3, #32]
   80ad0:	f013 7f80 	tst.w	r3, #16777216	; 0x1000000
   80ad4:	d003      	beq.n	80ade <SystemCoreClockUpdate+0x5a>
			SystemCoreClock = CHIP_FREQ_XTAL_12M;
   80ad6:	4a2c      	ldr	r2, [pc, #176]	; (80b88 <SystemCoreClockUpdate+0x104>)
   80ad8:	4b2a      	ldr	r3, [pc, #168]	; (80b84 <SystemCoreClockUpdate+0x100>)
   80ada:	601a      	str	r2, [r3, #0]
   80adc:	e7e7      	b.n	80aae <SystemCoreClockUpdate+0x2a>
			SystemCoreClock = CHIP_FREQ_MAINCK_RC_4MHZ;
   80ade:	4a2b      	ldr	r2, [pc, #172]	; (80b8c <SystemCoreClockUpdate+0x108>)
   80ae0:	4b28      	ldr	r3, [pc, #160]	; (80b84 <SystemCoreClockUpdate+0x100>)
   80ae2:	601a      	str	r2, [r3, #0]
			switch (PMC->CKGR_MOR & CKGR_MOR_MOSCRCF_Msk) {
   80ae4:	4b25      	ldr	r3, [pc, #148]	; (80b7c <SystemCoreClockUpdate+0xf8>)
   80ae6:	6a1b      	ldr	r3, [r3, #32]
   80ae8:	f003 0370 	and.w	r3, r3, #112	; 0x70
   80aec:	2b10      	cmp	r3, #16
   80aee:	d005      	beq.n	80afc <SystemCoreClockUpdate+0x78>
   80af0:	2b20      	cmp	r3, #32
   80af2:	d1dc      	bne.n	80aae <SystemCoreClockUpdate+0x2a>
				SystemCoreClock *= 3U;
   80af4:	4a24      	ldr	r2, [pc, #144]	; (80b88 <SystemCoreClockUpdate+0x104>)
   80af6:	4b23      	ldr	r3, [pc, #140]	; (80b84 <SystemCoreClockUpdate+0x100>)
   80af8:	601a      	str	r2, [r3, #0]
				break;
   80afa:	e7d8      	b.n	80aae <SystemCoreClockUpdate+0x2a>
				SystemCoreClock *= 2U;
   80afc:	4a24      	ldr	r2, [pc, #144]	; (80b90 <SystemCoreClockUpdate+0x10c>)
   80afe:	4b21      	ldr	r3, [pc, #132]	; (80b84 <SystemCoreClockUpdate+0x100>)
   80b00:	601a      	str	r2, [r3, #0]
				break;
   80b02:	e7d4      	b.n	80aae <SystemCoreClockUpdate+0x2a>
		if (PMC->CKGR_MOR & CKGR_MOR_MOSCSEL) {
   80b04:	4b1d      	ldr	r3, [pc, #116]	; (80b7c <SystemCoreClockUpdate+0xf8>)
   80b06:	6a1b      	ldr	r3, [r3, #32]
   80b08:	f013 7f80 	tst.w	r3, #16777216	; 0x1000000
   80b0c:	d00c      	beq.n	80b28 <SystemCoreClockUpdate+0xa4>
			SystemCoreClock = CHIP_FREQ_XTAL_12M;
   80b0e:	4a1e      	ldr	r2, [pc, #120]	; (80b88 <SystemCoreClockUpdate+0x104>)
   80b10:	4b1c      	ldr	r3, [pc, #112]	; (80b84 <SystemCoreClockUpdate+0x100>)
   80b12:	601a      	str	r2, [r3, #0]
		if ((PMC->PMC_MCKR & PMC_MCKR_CSS_Msk) == PMC_MCKR_CSS_PLLA_CLK) {
   80b14:	4b19      	ldr	r3, [pc, #100]	; (80b7c <SystemCoreClockUpdate+0xf8>)
   80b16:	6b1b      	ldr	r3, [r3, #48]	; 0x30
   80b18:	f003 0303 	and.w	r3, r3, #3
   80b1c:	2b02      	cmp	r3, #2
   80b1e:	d016      	beq.n	80b4e <SystemCoreClockUpdate+0xca>
			SystemCoreClock = SYS_UTMIPLL / 2U;
   80b20:	4a1c      	ldr	r2, [pc, #112]	; (80b94 <SystemCoreClockUpdate+0x110>)
   80b22:	4b18      	ldr	r3, [pc, #96]	; (80b84 <SystemCoreClockUpdate+0x100>)
   80b24:	601a      	str	r2, [r3, #0]
   80b26:	e7c2      	b.n	80aae <SystemCoreClockUpdate+0x2a>
			SystemCoreClock = CHIP_FREQ_MAINCK_RC_4MHZ;
   80b28:	4a18      	ldr	r2, [pc, #96]	; (80b8c <SystemCoreClockUpdate+0x108>)
   80b2a:	4b16      	ldr	r3, [pc, #88]	; (80b84 <SystemCoreClockUpdate+0x100>)
   80b2c:	601a      	str	r2, [r3, #0]
			switch (PMC->CKGR_MOR & CKGR_MOR_MOSCRCF_Msk) {
   80b2e:	4b13      	ldr	r3, [pc, #76]	; (80b7c <SystemCoreClockUpdate+0xf8>)
   80b30:	6a1b      	ldr	r3, [r3, #32]
   80b32:	f003 0370 	and.w	r3, r3, #112	; 0x70
   80b36:	2b10      	cmp	r3, #16
   80b38:	d005      	beq.n	80b46 <SystemCoreClockUpdate+0xc2>
   80b3a:	2b20      	cmp	r3, #32
   80b3c:	d1ea      	bne.n	80b14 <SystemCoreClockUpdate+0x90>
				SystemCoreClock *= 3U;
   80b3e:	4a12      	ldr	r2, [pc, #72]	; (80b88 <SystemCoreClockUpdate+0x104>)
   80b40:	4b10      	ldr	r3, [pc, #64]	; (80b84 <SystemCoreClockUpdate+0x100>)
   80b42:	601a      	str	r2, [r3, #0]
				break;
   80b44:	e7e6      	b.n	80b14 <SystemCoreClockUpdate+0x90>
				SystemCoreClock *= 2U;
   80b46:	4a12      	ldr	r2, [pc, #72]	; (80b90 <SystemCoreClockUpdate+0x10c>)
   80b48:	4b0e      	ldr	r3, [pc, #56]	; (80b84 <SystemCoreClockUpdate+0x100>)
   80b4a:	601a      	str	r2, [r3, #0]
				break;
   80b4c:	e7e2      	b.n	80b14 <SystemCoreClockUpdate+0x90>
			SystemCoreClock *= ((((PMC->CKGR_PLLAR) & CKGR_PLLAR_MULA_Msk) >> 
   80b4e:	4a0b      	ldr	r2, [pc, #44]	; (80b7c <SystemCoreClockUpdate+0xf8>)
   80b50:	6a91      	ldr	r1, [r2, #40]	; 0x28
			SystemCoreClock /= ((((PMC->CKGR_PLLAR) & CKGR_PLLAR_DIVA_Msk) >> 
   80b52:	6a92      	ldr	r2, [r2, #40]	; 0x28
   80b54:	480b      	ldr	r0, [pc, #44]	; (80b84 <SystemCoreClockUpdate+0x100>)
			SystemCoreClock *= ((((PMC->CKGR_PLLAR) & CKGR_PLLAR_MULA_Msk) >> 
   80b56:	f3c1 410a 	ubfx	r1, r1, #16, #11
   80b5a:	6803      	ldr	r3, [r0, #0]
   80b5c:	fb01 3303 	mla	r3, r1, r3, r3
			SystemCoreClock /= ((((PMC->CKGR_PLLAR) & CKGR_PLLAR_DIVA_Msk) >> 
   80b60:	b2d2      	uxtb	r2, r2
   80b62:	fbb3 f3f2 	udiv	r3, r3, r2
   80b66:	6003      	str	r3, [r0, #0]
   80b68:	e7a1      	b.n	80aae <SystemCoreClockUpdate+0x2a>
		SystemCoreClock /= 3U;
   80b6a:	4a06      	ldr	r2, [pc, #24]	; (80b84 <SystemCoreClockUpdate+0x100>)
   80b6c:	6813      	ldr	r3, [r2, #0]
   80b6e:	490a      	ldr	r1, [pc, #40]	; (80b98 <SystemCoreClockUpdate+0x114>)
   80b70:	fba1 1303 	umull	r1, r3, r1, r3
   80b74:	085b      	lsrs	r3, r3, #1
   80b76:	6013      	str	r3, [r2, #0]
   80b78:	4770      	bx	lr
   80b7a:	bf00      	nop
   80b7c:	400e0600 	.word	0x400e0600
   80b80:	400e1a10 	.word	0x400e1a10
   80b84:	2007012c 	.word	0x2007012c
   80b88:	00b71b00 	.word	0x00b71b00
   80b8c:	003d0900 	.word	0x003d0900
   80b90:	007a1200 	.word	0x007a1200
   80b94:	0e4e1c00 	.word	0x0e4e1c00
   80b98:	aaaaaaab 	.word	0xaaaaaaab

00080b9c <_sbrk>:
{
	static unsigned char *heap = NULL;
	unsigned char *prev_heap;
	int ramend = (int)&__ram_end__;

	if (heap == NULL) {
   80b9c:	4b0a      	ldr	r3, [pc, #40]	; (80bc8 <_sbrk+0x2c>)
   80b9e:	681b      	ldr	r3, [r3, #0]
   80ba0:	b153      	cbz	r3, 80bb8 <_sbrk+0x1c>
		heap = (unsigned char *)&_end;
	}
	prev_heap = heap;
   80ba2:	4b09      	ldr	r3, [pc, #36]	; (80bc8 <_sbrk+0x2c>)
   80ba4:	681b      	ldr	r3, [r3, #0]

	if (((int)prev_heap + incr) > ramend) {
   80ba6:	181a      	adds	r2, r3, r0
   80ba8:	4908      	ldr	r1, [pc, #32]	; (80bcc <_sbrk+0x30>)
   80baa:	4291      	cmp	r1, r2
   80bac:	db08      	blt.n	80bc0 <_sbrk+0x24>
		return (caddr_t) -1;	
	}

	heap += incr;
   80bae:	4610      	mov	r0, r2
   80bb0:	4a05      	ldr	r2, [pc, #20]	; (80bc8 <_sbrk+0x2c>)
   80bb2:	6010      	str	r0, [r2, #0]

	return (caddr_t) prev_heap;
   80bb4:	4618      	mov	r0, r3
   80bb6:	4770      	bx	lr
		heap = (unsigned char *)&_end;
   80bb8:	4a05      	ldr	r2, [pc, #20]	; (80bd0 <_sbrk+0x34>)
   80bba:	4b03      	ldr	r3, [pc, #12]	; (80bc8 <_sbrk+0x2c>)
   80bbc:	601a      	str	r2, [r3, #0]
   80bbe:	e7f0      	b.n	80ba2 <_sbrk+0x6>
		return (caddr_t) -1;	
   80bc0:	f04f 30ff 	mov.w	r0, #4294967295
}
   80bc4:	4770      	bx	lr
   80bc6:	bf00      	nop
   80bc8:	2007098c 	.word	0x2007098c
   80bcc:	20087ffc 	.word	0x20087ffc
   80bd0:	20074458 	.word	0x20074458

00080bd4 <adc_initialize>:

#include "ADC.h" 

/* A global Analog to Digital Controller initialization function */
void adc_initialize(void)
{
   80bd4:	b570      	push	{r4, r5, r6, lr}
	pmc_enable_periph_clk(ID_ADC);
   80bd6:	2025      	movs	r0, #37	; 0x25
   80bd8:	4b19      	ldr	r3, [pc, #100]	; (80c40 <adc_initialize+0x6c>)
   80bda:	4798      	blx	r3
	adc_init(ADC, sysclk_get_main_hz(), ADC_FREQ_MIN, ADC_STARTUP_TIME_4);
   80bdc:	4c19      	ldr	r4, [pc, #100]	; (80c44 <adc_initialize+0x70>)
   80bde:	f44f 2380 	mov.w	r3, #262144	; 0x40000
   80be2:	4a19      	ldr	r2, [pc, #100]	; (80c48 <adc_initialize+0x74>)
   80be4:	4919      	ldr	r1, [pc, #100]	; (80c4c <adc_initialize+0x78>)
   80be6:	4620      	mov	r0, r4
   80be8:	4d19      	ldr	r5, [pc, #100]	; (80c50 <adc_initialize+0x7c>)
   80bea:	47a8      	blx	r5
	adc_configure_timing(ADC, 1, ADC_SETTLING_TIME_3, 1);
   80bec:	2301      	movs	r3, #1
   80bee:	f44f 1240 	mov.w	r2, #3145728	; 0x300000
   80bf2:	4619      	mov	r1, r3
   80bf4:	4620      	mov	r0, r4
   80bf6:	4d17      	ldr	r5, [pc, #92]	; (80c54 <adc_initialize+0x80>)
   80bf8:	47a8      	blx	r5
	adc_set_resolution(ADC, ADC_MR_LOWRES_BITS_10);
   80bfa:	2110      	movs	r1, #16
   80bfc:	4620      	mov	r0, r4
   80bfe:	4b16      	ldr	r3, [pc, #88]	; (80c58 <adc_initialize+0x84>)
   80c00:	4798      	blx	r3
	adc_configure_trigger(ADC, ADC_TRIG_SW, ADC_MR_FREERUN_OFF);
   80c02:	2200      	movs	r2, #0
   80c04:	4611      	mov	r1, r2
   80c06:	4620      	mov	r0, r4
   80c08:	4b14      	ldr	r3, [pc, #80]	; (80c5c <adc_initialize+0x88>)
   80c0a:	4798      	blx	r3
	adc_enable_tag(ADC);
   80c0c:	4620      	mov	r0, r4
   80c0e:	4b14      	ldr	r3, [pc, #80]	; (80c60 <adc_initialize+0x8c>)
   80c10:	4798      	blx	r3
   80c12:	2300      	movs	r3, #0

	// Initialize data arrays
	for (uint8_t i = 0; i < MAX_NR_OF_ADC_CHANNELS; i++)
	{
		if (i < NR_OF_ACTIVE_ADC_CHANNELS)
			AdcChannels[i] = 0;
   80c14:	4e13      	ldr	r6, [pc, #76]	; (80c64 <adc_initialize+0x90>)
   80c16:	461a      	mov	r2, r3
		for (uint16_t j = 0; j < ADC_MEDIAN_FILTER_LENGTH; j++)
			AdcData[i][j] = 0;
   80c18:	4c13      	ldr	r4, [pc, #76]	; (80c68 <adc_initialize+0x94>)
		AdcMedianCounter[i] = 0;
   80c1a:	4d14      	ldr	r5, [pc, #80]	; (80c6c <adc_initialize+0x98>)
		if (i < NR_OF_ACTIVE_ADC_CHANNELS)
   80c1c:	b2d9      	uxtb	r1, r3
   80c1e:	2906      	cmp	r1, #6
			AdcChannels[i] = 0;
   80c20:	bf98      	it	ls
   80c22:	54f2      	strbls	r2, [r6, r3]
			AdcData[i][j] = 0;
   80c24:	eb03 0043 	add.w	r0, r3, r3, lsl #1
   80c28:	eb04 0140 	add.w	r1, r4, r0, lsl #1
   80c2c:	f824 2010 	strh.w	r2, [r4, r0, lsl #1]
   80c30:	804a      	strh	r2, [r1, #2]
   80c32:	808a      	strh	r2, [r1, #4]
		AdcMedianCounter[i] = 0;
   80c34:	54ea      	strb	r2, [r5, r3]
   80c36:	3301      	adds	r3, #1
	for (uint8_t i = 0; i < MAX_NR_OF_ADC_CHANNELS; i++)
   80c38:	2b0f      	cmp	r3, #15
   80c3a:	d1ef      	bne.n	80c1c <adc_initialize+0x48>
	}

	
}
   80c3c:	bd70      	pop	{r4, r5, r6, pc}
   80c3e:	bf00      	nop
   80c40:	000806f9 	.word	0x000806f9
   80c44:	400c0000 	.word	0x400c0000
   80c48:	000f4240 	.word	0x000f4240
   80c4c:	0a037a00 	.word	0x0a037a00
   80c50:	00080279 	.word	0x00080279
   80c54:	000802cb 	.word	0x000802cb
   80c58:	000802ad 	.word	0x000802ad
   80c5c:	000802bd 	.word	0x000802bd
   80c60:	000802f7 	.word	0x000802f7
   80c64:	20071f88 	.word	0x20071f88
   80c68:	20071a70 	.word	0x20071a70
   80c6c:	20071ae4 	.word	0x20071ae4

00080c70 <adc_turn_on_multiple_channels>:
/* A global turn on ADC channels function, remember to define how many channels are used */
void adc_turn_on_multiple_channels (uint8_t ChannelNumber[NR_OF_ACTIVE_ADC_CHANNELS], uint8_t EnableAdcInterrupt, uint8_t AdcInterruptPriority)
{
   80c70:	e92d 4ff8 	stmdb	sp!, {r3, r4, r5, r6, r7, r8, r9, sl, fp, lr}
   80c74:	468a      	mov	sl, r1
   80c76:	4693      	mov	fp, r2
   80c78:	4681      	mov	r9, r0
   80c7a:	f100 0807 	add.w	r8, r0, #7
   80c7e:	4604      	mov	r4, r0
	for (uint8_t i = 0; i < NR_OF_ACTIVE_ADC_CHANNELS; i++){
		// Turn on each described channel
		adc_enable_channel(ADC, ChannelNumber[i]);
   80c80:	4f0d      	ldr	r7, [pc, #52]	; (80cb8 <adc_turn_on_multiple_channels+0x48>)
   80c82:	4e0e      	ldr	r6, [pc, #56]	; (80cbc <adc_turn_on_multiple_channels+0x4c>)
		// Store the channel numbers for interrupts
		AdcChannels[i] = ChannelNumber[i];	
   80c84:	4d0e      	ldr	r5, [pc, #56]	; (80cc0 <adc_turn_on_multiple_channels+0x50>)
		adc_enable_channel(ADC, ChannelNumber[i]);
   80c86:	7821      	ldrb	r1, [r4, #0]
   80c88:	4638      	mov	r0, r7
   80c8a:	47b0      	blx	r6
   80c8c:	eba4 0309 	sub.w	r3, r4, r9
		AdcChannels[i] = ChannelNumber[i];	
   80c90:	f814 2b01 	ldrb.w	r2, [r4], #1
   80c94:	54ea      	strb	r2, [r5, r3]
	for (uint8_t i = 0; i < NR_OF_ACTIVE_ADC_CHANNELS; i++){
   80c96:	4544      	cmp	r4, r8
   80c98:	d1f5      	bne.n	80c86 <adc_turn_on_multiple_channels+0x16>
		//uart_print_string("Channel: "); uart_print_int(channel_number[i]);
	}
	if (EnableAdcInterrupt)
   80c9a:	f1ba 0f00 	cmp.w	sl, #0
   80c9e:	d101      	bne.n	80ca4 <adc_turn_on_multiple_channels+0x34>
   80ca0:	e8bd 8ff8 	ldmia.w	sp!, {r3, r4, r5, r6, r7, r8, r9, sl, fp, pc}
	{
		adc_enable_interrupt(ADC, ADC_IER_DRDY);
   80ca4:	f04f 7180 	mov.w	r1, #16777216	; 0x1000000
   80ca8:	4803      	ldr	r0, [pc, #12]	; (80cb8 <adc_turn_on_multiple_channels+0x48>)
   80caa:	4b06      	ldr	r3, [pc, #24]	; (80cc4 <adc_turn_on_multiple_channels+0x54>)
   80cac:	4798      	blx	r3
		interrupts_enable_interrupt_vector(ADC_IRQn, AdcInterruptPriority);
   80cae:	4659      	mov	r1, fp
   80cb0:	2025      	movs	r0, #37	; 0x25
   80cb2:	4b05      	ldr	r3, [pc, #20]	; (80cc8 <adc_turn_on_multiple_channels+0x58>)
   80cb4:	4798      	blx	r3
	}
}
   80cb6:	e7f3      	b.n	80ca0 <adc_turn_on_multiple_channels+0x30>
   80cb8:	400c0000 	.word	0x400c0000
   80cbc:	000802ed 	.word	0x000802ed
   80cc0:	20071f88 	.word	0x20071f88
   80cc4:	00080301 	.word	0x00080301
   80cc8:	000818a1 	.word	0x000818a1

00080ccc <ADC_Handler>:

void ADC_Handler(void)
{
   80ccc:	b410      	push	{r4}
	7 6 5 4 3 2 1 0
	     LDATA   
	CHNB: Channel number
	LDATA: Last Data Converted */
	/************************************************************************/
	uint16_t Result = ADC->ADC_LCDR; //Last converted data register
   80cce:	4b0f      	ldr	r3, [pc, #60]	; (80d0c <ADC_Handler+0x40>)
   80cd0:	6a1b      	ldr	r3, [r3, #32]
   80cd2:	b29b      	uxth	r3, r3
	uint16_t ChannelNumber = ((Result & 0xF000) >> 12);
	AdcData[ChannelNumber][AdcMedianCounter[ChannelNumber]] = (0x0FFF & Result); // Discard channel number from results
   80cd4:	0b19      	lsrs	r1, r3, #12
   80cd6:	480e      	ldr	r0, [pc, #56]	; (80d10 <ADC_Handler+0x44>)
   80cd8:	5c42      	ldrb	r2, [r0, r1]
   80cda:	f3c3 030b 	ubfx	r3, r3, #0, #12
   80cde:	eb01 0441 	add.w	r4, r1, r1, lsl #1
   80ce2:	4422      	add	r2, r4
   80ce4:	4c0b      	ldr	r4, [pc, #44]	; (80d14 <ADC_Handler+0x48>)
   80ce6:	f824 3012 	strh.w	r3, [r4, r2, lsl #1]
	AdcMedianCounter[ChannelNumber] = (AdcMedianCounter[ChannelNumber] + 1) % ADC_MEDIAN_FILTER_LENGTH;
   80cea:	5c43      	ldrb	r3, [r0, r1]
   80cec:	3301      	adds	r3, #1
   80cee:	4a0a      	ldr	r2, [pc, #40]	; (80d18 <ADC_Handler+0x4c>)
   80cf0:	fb82 4203 	smull	r4, r2, r2, r3
   80cf4:	eba2 72e3 	sub.w	r2, r2, r3, asr #31
   80cf8:	eb02 0242 	add.w	r2, r2, r2, lsl #1
   80cfc:	1a9b      	subs	r3, r3, r2
   80cfe:	b2db      	uxtb	r3, r3
   80d00:	5443      	strb	r3, [r0, r1]
	AdcFlag = TRUE;
   80d02:	2201      	movs	r2, #1
   80d04:	4b05      	ldr	r3, [pc, #20]	; (80d1c <ADC_Handler+0x50>)
   80d06:	701a      	strb	r2, [r3, #0]
   80d08:	bc10      	pop	{r4}
   80d0a:	4770      	bx	lr
   80d0c:	400c0000 	.word	0x400c0000
   80d10:	20071ae4 	.word	0x20071ae4
   80d14:	20071a70 	.word	0x20071a70
   80d18:	55555556 	.word	0x55555556
   80d1c:	20071f84 	.word	0x20071f84

00080d20 <decoders_set_inj_or_ign_event>:
	

}

void decoders_set_inj_or_ign_event(uint8_t CurrentCrankTooth, uint32_t CurrentCrankToothCounter, struct cylinder_output_manager *Inj_or_Ign, uint32_t PulseWidth, uint16_t DegreeOff)
{
   80d20:	e92d 4ff0 	stmdb	sp!, {r4, r5, r6, r7, r8, r9, sl, fp, lr}
   80d24:	b083      	sub	sp, #12
   80d26:	4683      	mov	fp, r0
   80d28:	460f      	mov	r7, r1
   80d2a:	4615      	mov	r5, r2
   80d2c:	f8bd 8030 	ldrh.w	r8, [sp, #48]	; 0x30
	int16_t DegreeOn = DegreeOff - math_convert_pulsewidth_to_crank_degrees(PulseWidth);
   80d30:	4618      	mov	r0, r3
   80d32:	4b30      	ldr	r3, [pc, #192]	; (80df4 <decoders_set_inj_or_ign_event+0xd4>)
   80d34:	4798      	blx	r3
   80d36:	eba8 0300 	sub.w	r3, r8, r0
   80d3a:	b21b      	sxth	r3, r3
   80d3c:	ea23 74e3 	bic.w	r4, r3, r3, asr #31
		// TODO: TURN THE INJECTOR/IGNITION ON
		// PROBABLY SET SOME FLAG OR SOME
	}
	
	// The number of teeths are calculated
	uint16_t TeethsOFF = math_convert_degree_to_teeth_count(DegreeOff); // OFF means when to turn off the injector
   80d40:	4640      	mov	r0, r8
   80d42:	4e2d      	ldr	r6, [pc, #180]	; (80df8 <decoders_set_inj_or_ign_event+0xd8>)
   80d44:	47b0      	blx	r6
   80d46:	4681      	mov	r9, r0
	uint16_t TeethsON = math_convert_degree_to_teeth_count(DegreeOn); // ON means when to turn on the injector
   80d48:	b2a0      	uxth	r0, r4
   80d4a:	47b0      	blx	r6
   80d4c:	4682      	mov	sl, r0
	//uint16_t InjTeethsON = InjTeethsOFF - (math_convert_pulsewidth_to_teeth_count(PulseWidth + InjectorOpenTime) + 1); // 1 is because it floors the calculation and it is better to get always scaled one up since it is also timer dependant
	
	// The event tooth is found according to the delay teeths calculated above, here are missing tooth counts skipped and taken into account for timers
	uint32_t EventToothOFF = CurrentCrankToothCounter, EventToothON = CurrentCrankToothCounter; // Copying values to different register, to be able to manipulate the values without changing CurrentCrankToothCounter
   80d4e:	9701      	str	r7, [sp, #4]
   80d50:	9700      	str	r7, [sp, #0]
	uint32_t NrOfMissingTeethsAtEventOFF = math_find_event_tooth_from_number_of_teeths(CurrentCrankTooth, &EventToothOFF, TeethsOFF);
   80d52:	fa1f f68b 	uxth.w	r6, fp
   80d56:	fa1f f289 	uxth.w	r2, r9
   80d5a:	a901      	add	r1, sp, #4
   80d5c:	4630      	mov	r0, r6
   80d5e:	f8df 90a0 	ldr.w	r9, [pc, #160]	; 80e00 <decoders_set_inj_or_ign_event+0xe0>
   80d62:	47c8      	blx	r9
   80d64:	4607      	mov	r7, r0
	uint32_t NrOfMissingTeethsAtEventON = math_find_event_tooth_from_number_of_teeths(CurrentCrankTooth, &EventToothON, TeethsON);
   80d66:	fa1f f28a 	uxth.w	r2, sl
   80d6a:	4669      	mov	r1, sp
   80d6c:	4630      	mov	r0, r6
   80d6e:	47c8      	blx	r9
	
	// Load the event tooth to the according cylinder struct
	Inj_or_Ign->ToothOff = EventToothOFF;
   80d70:	9a01      	ldr	r2, [sp, #4]
   80d72:	60ea      	str	r2, [r5, #12]
	Inj_or_Ign->ToothOn = EventToothON;
   80d74:	9b00      	ldr	r3, [sp, #0]
   80d76:	60ab      	str	r3, [r5, #8]
	
	if (Inj_or_Ign->ToothOn == Inj_or_Ign->ToothOff)
   80d78:	429a      	cmp	r2, r3
	{
		// RAISE A FLAG WHICH IS USED IN TIMER INTERRUPT TO LOAD RB THE CntTimingOff
		Inj_or_Ign->EventOnSameTooth = TRUE;
   80d7a:	bf04      	itt	eq
   80d7c:	2301      	moveq	r3, #1
   80d7e:	746b      	strbeq	r3, [r5, #17]
	}
	
	// The number of counts for the timer is calculated here (which is enabled after the EventTooth)
	// If the event is at the last tooth before missing tooth, and if it is applicable it is added to the counts of the timer
	uint32_t TimerTurnOffDegreeAfterTooth = DegreeOff % CrankToothDegreeInterval;
   80d80:	4b1e      	ldr	r3, [pc, #120]	; (80dfc <decoders_set_inj_or_ign_event+0xdc>)
   80d82:	6819      	ldr	r1, [r3, #0]
	uint32_t TimerToothOffPercentage = TimerTurnOffDegreeAfterTooth * 100 / CrankToothDegreeInterval; // should give 0 - 99%, since 100% is next tooth obviously
   80d84:	f8d3 a000 	ldr.w	sl, [r3]
	Inj_or_Ign->CntTimingOff = ((TimerToothOffPercentage + NrOfMissingTeethsAtEventOFF * 100) * LastCrankRevCounts) / (100 * engine_config4.TriggerTeethCount); // I think this should never overflow
   80d88:	f8df 9078 	ldr.w	r9, [pc, #120]	; 80e04 <decoders_set_inj_or_ign_event+0xe4>
   80d8c:	f8d9 6000 	ldr.w	r6, [r9]
   80d90:	f8df c074 	ldr.w	ip, [pc, #116]	; 80e08 <decoders_set_inj_or_ign_event+0xe8>
   80d94:	f89c e00f 	ldrb.w	lr, [ip, #15]
	uint32_t TimerTurnOffDegreeAfterTooth = DegreeOff % CrankToothDegreeInterval;
   80d98:	fbb8 f2f1 	udiv	r2, r8, r1
   80d9c:	fb01 8212 	mls	r2, r1, r2, r8
	uint32_t TimerToothOffPercentage = TimerTurnOffDegreeAfterTooth * 100 / CrankToothDegreeInterval; // should give 0 - 99%, since 100% is next tooth obviously
   80da0:	2164      	movs	r1, #100	; 0x64
   80da2:	fb01 f202 	mul.w	r2, r1, r2
   80da6:	fbb2 f2fa 	udiv	r2, r2, sl
	Inj_or_Ign->CntTimingOff = ((TimerToothOffPercentage + NrOfMissingTeethsAtEventOFF * 100) * LastCrankRevCounts) / (100 * engine_config4.TriggerTeethCount); // I think this should never overflow
   80daa:	fb01 2207 	mla	r2, r1, r7, r2
   80dae:	fb06 f602 	mul.w	r6, r6, r2
   80db2:	fb0e fe01 	mul.w	lr, lr, r1
   80db6:	fbb6 f6fe 	udiv	r6, r6, lr
   80dba:	606e      	str	r6, [r5, #4]
	
	uint32_t TimerTurnOnDegreeAfterTooth = DegreeOn % CrankToothDegreeInterval;
   80dbc:	681f      	ldr	r7, [r3, #0]
	uint32_t TimerToothOnPercentage = TimerTurnOnDegreeAfterTooth * 100 / CrankToothDegreeInterval; // should give 0 - 99%, since 100% is next tooth obviously
   80dbe:	f8d3 e000 	ldr.w	lr, [r3]
	Inj_or_Ign->CntTimingOn = ((TimerToothOnPercentage + NrOfMissingTeethsAtEventON * 100) * LastCrankRevCounts) / (100 * engine_config4.TriggerTeethCount); // I think this should never overflow
   80dc2:	f8d9 2000 	ldr.w	r2, [r9]
   80dc6:	f89c 600f 	ldrb.w	r6, [ip, #15]
	uint32_t TimerTurnOnDegreeAfterTooth = DegreeOn % CrankToothDegreeInterval;
   80dca:	fbb4 f3f7 	udiv	r3, r4, r7
   80dce:	fb07 4313 	mls	r3, r7, r3, r4
	uint32_t TimerToothOnPercentage = TimerTurnOnDegreeAfterTooth * 100 / CrankToothDegreeInterval; // should give 0 - 99%, since 100% is next tooth obviously
   80dd2:	fb01 f303 	mul.w	r3, r1, r3
   80dd6:	fbb3 f3fe 	udiv	r3, r3, lr
	Inj_or_Ign->CntTimingOn = ((TimerToothOnPercentage + NrOfMissingTeethsAtEventON * 100) * LastCrankRevCounts) / (100 * engine_config4.TriggerTeethCount); // I think this should never overflow
   80dda:	fb01 3000 	mla	r0, r1, r0, r3
   80dde:	fb02 f000 	mul.w	r0, r2, r0
   80de2:	fb06 f101 	mul.w	r1, r6, r1
   80de6:	fbb0 f1f1 	udiv	r1, r0, r1
   80dea:	6029      	str	r1, [r5, #0]
}
   80dec:	b003      	add	sp, #12
   80dee:	e8bd 8ff0 	ldmia.w	sp!, {r4, r5, r6, r7, r8, r9, sl, fp, pc}
   80df2:	bf00      	nop
   80df4:	00081d95 	.word	0x00081d95
   80df8:	00081d71 	.word	0x00081d71
   80dfc:	20071f78 	.word	0x20071f78
   80e00:	00081dc9 	.word	0x00081dc9
   80e04:	200709dc 	.word	0x200709dc
   80e08:	20071174 	.word	0x20071174

00080e0c <decoders_tach_event>:
{
   80e0c:	e92d 4ff0 	stmdb	sp!, {r4, r5, r6, r7, r8, r9, sl, fp, lr}
   80e10:	b083      	sub	sp, #12
   80e12:	4605      	mov	r5, r0
   80e14:	468b      	mov	fp, r1
	uint8_t NrCylinderDividedByTwo =  engine_config2.NrCylinders / 2;
   80e16:	493a      	ldr	r1, [pc, #232]	; (80f00 <decoders_tach_event+0xf4>)
   80e18:	f891 3036 	ldrb.w	r3, [r1, #54]	; 0x36
	uint32_t TachEventNumber = (CurrentCrankTooth - TachEventDelayTeeths) / TachPulse; // Represents count of tach event in one revolution 
   80e1c:	4a39      	ldr	r2, [pc, #228]	; (80f04 <decoders_tach_event+0xf8>)
   80e1e:	7812      	ldrb	r2, [r2, #0]
   80e20:	4839      	ldr	r0, [pc, #228]	; (80f08 <decoders_tach_event+0xfc>)
   80e22:	7804      	ldrb	r4, [r0, #0]
   80e24:	b2e4      	uxtb	r4, r4
	uint32_t CylinderOffset = (engine_config4.SecondTriggerPolar ^ CamSignalFlag) * (NrCylinderDividedByTwo); // Represent first bank or second bank
   80e26:	4839      	ldr	r0, [pc, #228]	; (80f0c <decoders_tach_event+0x100>)
   80e28:	f890 8006 	ldrb.w	r8, [r0, #6]
   80e2c:	f3c8 0040 	ubfx	r0, r8, #1, #1
   80e30:	4f37      	ldr	r7, [pc, #220]	; (80f10 <decoders_tach_event+0x104>)
   80e32:	f897 8000 	ldrb.w	r8, [r7]
   80e36:	095b      	lsrs	r3, r3, #5
	uint32_t TachEventNumber = (CurrentCrankTooth - TachEventDelayTeeths) / TachPulse; // Represents count of tach event in one revolution 
   80e38:	1aaa      	subs	r2, r5, r2
   80e3a:	fb92 f2f4 	sdiv	r2, r2, r4
	uint32_t CylinderOffset = (engine_config4.SecondTriggerPolar ^ CamSignalFlag) * (NrCylinderDividedByTwo); // Represent first bank or second bank
   80e3e:	ea88 0800 	eor.w	r8, r8, r0
	uint32_t InjIndex = TachEventNumber + CylinderOffset;						// Represents current cylinder tdc or 720
   80e42:	fb03 2808 	mla	r8, r3, r8, r2
	uint32_t IgnIndex = (TachEventNumber + CylinderOffset + NrCylinderDividedByTwo) % (engine_config2.NrCylinders); // Calculate cylinder after 360 
   80e46:	f891 2036 	ldrb.w	r2, [r1, #54]	; 0x36
   80e4a:	0912      	lsrs	r2, r2, #4
   80e4c:	4443      	add	r3, r8
   80e4e:	fbb3 f0f2 	udiv	r0, r3, r2
   80e52:	fb02 3310 	mls	r3, r2, r0, r3
	struct cylinder_ *InjCylEvent = &cylinder[engine_config2.FiringOrder[InjIndex]]; // Next cylinder to calculate injection parameters for (720 from current position)
   80e56:	eb01 0208 	add.w	r2, r1, r8
   80e5a:	f892 7042 	ldrb.w	r7, [r2, #66]	; 0x42
   80e5e:	b2ff      	uxtb	r7, r7
	struct cylinder_ *IgnCylEvent = &cylinder[engine_config2.FiringOrder[IgnIndex]]; // Next cylinder to calculate ignition parameters for (360 from current position) TODO: Check if dwell time is longer than max rpm time then calculate 720 before
   80e60:	4419      	add	r1, r3
   80e62:	f891 4042 	ldrb.w	r4, [r1, #66]	; 0x42
   80e66:	b2e4      	uxtb	r4, r4
	if (isDebug)
   80e68:	4b2a      	ldr	r3, [pc, #168]	; (80f14 <decoders_tach_event+0x108>)
   80e6a:	681b      	ldr	r3, [r3, #0]
   80e6c:	b11b      	cbz	r3, 80e76 <decoders_tach_event+0x6a>
		DebugCounter++;
   80e6e:	4a2a      	ldr	r2, [pc, #168]	; (80f18 <decoders_tach_event+0x10c>)
   80e70:	6813      	ldr	r3, [r2, #0]
   80e72:	3301      	adds	r3, #1
   80e74:	6013      	str	r3, [r2, #0]
	uint32_t PulseWidth = fuelcalc_pulsewidth() + InjectorOpenTime; // Hundreds of nanoseconds (1 = 0.1 s)
   80e76:	4b29      	ldr	r3, [pc, #164]	; (80f1c <decoders_tach_event+0x110>)
   80e78:	4798      	blx	r3
   80e7a:	4b29      	ldr	r3, [pc, #164]	; (80f20 <decoders_tach_event+0x114>)
   80e7c:	881b      	ldrh	r3, [r3, #0]
   80e7e:	b29b      	uxth	r3, r3
	uint16_t InjDegOFF = engine_config2.InjAng[InjIndex] * 10 + CRANK_DEGREE_RESOLUTION; // configured injector closing angle
   80e80:	f108 0810 	add.w	r8, r8, #16
   80e84:	4a1e      	ldr	r2, [pc, #120]	; (80f00 <decoders_tach_event+0xf4>)
   80e86:	eb02 0848 	add.w	r8, r2, r8, lsl #1
   80e8a:	f8b8 1006 	ldrh.w	r1, [r8, #6]
   80e8e:	b289      	uxth	r1, r1
	decoders_set_inj_or_ign_event(CurrentCrankTooth, CurrentCrankToothCounter, &InjCylEvent->Inj, PulseWidth, InjDegOFF);
   80e90:	eb07 1207 	add.w	r2, r7, r7, lsl #4
   80e94:	0092      	lsls	r2, r2, #2
   80e96:	3220      	adds	r2, #32
   80e98:	4f22      	ldr	r7, [pc, #136]	; (80f24 <decoders_tach_event+0x118>)
	uint16_t InjDegOFF = engine_config2.InjAng[InjIndex] * 10 + CRANK_DEGREE_RESOLUTION; // configured injector closing angle
   80e9a:	eb01 0181 	add.w	r1, r1, r1, lsl #2
   80e9e:	0049      	lsls	r1, r1, #1
   80ea0:	f501 6161 	add.w	r1, r1, #3600	; 0xe10
	decoders_set_inj_or_ign_event(CurrentCrankTooth, CurrentCrankToothCounter, &InjCylEvent->Inj, PulseWidth, InjDegOFF);
   80ea4:	b289      	uxth	r1, r1
   80ea6:	9100      	str	r1, [sp, #0]
   80ea8:	4403      	add	r3, r0
   80eaa:	443a      	add	r2, r7
   80eac:	4659      	mov	r1, fp
   80eae:	4628      	mov	r0, r5
   80eb0:	f8df 8084 	ldr.w	r8, [pc, #132]	; 80f38 <decoders_tach_event+0x12c>
   80eb4:	47c0      	blx	r8
	uint32_t DwellPulseWidth = igncalc_dwell_pulsewidth();
   80eb6:	4b1c      	ldr	r3, [pc, #112]	; (80f28 <decoders_tach_event+0x11c>)
   80eb8:	4798      	blx	r3
   80eba:	4681      	mov	r9, r0
	uint16_t DegreeAdvance = math_interpolation_array(engine_realtime.Rpm, engine_realtime.Map, &IGN, 1);
   80ebc:	f8df a07c 	ldr.w	sl, [pc, #124]	; 80f3c <decoders_tach_event+0x130>
   80ec0:	f8ba 000e 	ldrh.w	r0, [sl, #14]
   80ec4:	f8ba 1004 	ldrh.w	r1, [sl, #4]
   80ec8:	2301      	movs	r3, #1
   80eca:	4a18      	ldr	r2, [pc, #96]	; (80f2c <decoders_tach_event+0x120>)
   80ecc:	b289      	uxth	r1, r1
   80ece:	b280      	uxth	r0, r0
   80ed0:	4e17      	ldr	r6, [pc, #92]	; (80f30 <decoders_tach_event+0x124>)
   80ed2:	47b0      	blx	r6
	engine_realtime.DegAdvance = (uint8_t) (DegreeAdvance / 10);
   80ed4:	4b17      	ldr	r3, [pc, #92]	; (80f34 <decoders_tach_event+0x128>)
   80ed6:	fba3 2300 	umull	r2, r3, r3, r0
   80eda:	f3c3 03c7 	ubfx	r3, r3, #3, #8
   80ede:	f88a 3017 	strb.w	r3, [sl, #23]
	decoders_set_inj_or_ign_event(CurrentCrankTooth, CurrentCrankToothCounter, &IgnCylEvent->Ign, DwellPulseWidth, IgnDegOFF);
   80ee2:	eb04 1404 	add.w	r4, r4, r4, lsl #4
	uint16_t IgnDegOFF = CRANK_DEGREE_RESOLUTION - DegreeAdvance;	
   80ee6:	f5c0 6061 	rsb	r0, r0, #3600	; 0xe10
	decoders_set_inj_or_ign_event(CurrentCrankTooth, CurrentCrankToothCounter, &IgnCylEvent->Ign, DwellPulseWidth, IgnDegOFF);
   80eea:	b280      	uxth	r0, r0
   80eec:	9000      	str	r0, [sp, #0]
   80eee:	464b      	mov	r3, r9
   80ef0:	eb07 0284 	add.w	r2, r7, r4, lsl #2
   80ef4:	4659      	mov	r1, fp
   80ef6:	4628      	mov	r0, r5
   80ef8:	47c0      	blx	r8
}
   80efa:	b003      	add	sp, #12
   80efc:	e8bd 8ff0 	ldmia.w	sp!, {r4, r5, r6, r7, r8, r9, sl, fp, pc}
   80f00:	20071128 	.word	0x20071128
   80f04:	20071a6e 	.word	0x20071a6e
   80f08:	20072446 	.word	0x20072446
   80f0c:	20071174 	.word	0x20071174
   80f10:	20071f7c 	.word	0x20071f7c
   80f14:	20071f18 	.word	0x20071f18
   80f18:	20070a2c 	.word	0x20070a2c
   80f1c:	00081245 	.word	0x00081245
   80f20:	200709c6 	.word	0x200709c6
   80f24:	20070e38 	.word	0x20070e38
   80f28:	00081845 	.word	0x00081845
   80f2c:	20071f68 	.word	0x20071f68
   80f30:	00081c15 	.word	0x00081c15
   80f34:	cccccccd 	.word	0xcccccccd
   80f38:	00080d21 	.word	0x00080d21
   80f3c:	200715b8 	.word	0x200715b8

00080f40 <decoders_crank_primary>:
{	
   80f40:	e92d 43f8 	stmdb	sp!, {r3, r4, r5, r6, r7, r8, r9, lr}
	if(CrankCurrCycleCounts > (3 * (CrankPrevCycleCounts >> 1))) // New Cycle event (Missing tooth have passed the sensor)
   80f44:	4b42      	ldr	r3, [pc, #264]	; (81050 <decoders_crank_primary+0x110>)
   80f46:	681b      	ldr	r3, [r3, #0]
   80f48:	4a42      	ldr	r2, [pc, #264]	; (81054 <decoders_crank_primary+0x114>)
   80f4a:	6812      	ldr	r2, [r2, #0]
   80f4c:	085b      	lsrs	r3, r3, #1
   80f4e:	eb03 0343 	add.w	r3, r3, r3, lsl #1
   80f52:	4293      	cmp	r3, r2
   80f54:	d312      	bcc.n	80f7c <decoders_crank_primary+0x3c>
	uint8_t tempCrankTooth = CrankTooth;
   80f56:	4b40      	ldr	r3, [pc, #256]	; (81058 <decoders_crank_primary+0x118>)
   80f58:	7818      	ldrb	r0, [r3, #0]
   80f5a:	b2c0      	uxtb	r0, r0
	uint32_t tempCrankToothCounter = CrankToothCounter;
   80f5c:	4b3f      	ldr	r3, [pc, #252]	; (8105c <decoders_crank_primary+0x11c>)
   80f5e:	6819      	ldr	r1, [r3, #0]
	int16_t tempCalc = (tempCrankTooth - TachEventDelayTeeths);
   80f60:	4b3f      	ldr	r3, [pc, #252]	; (81060 <decoders_crank_primary+0x120>)
   80f62:	781a      	ldrb	r2, [r3, #0]
	if (tempCalc % TachPulse == 0) // TODO:  Counteract if the tach event is at the missing tooth
   80f64:	4b3f      	ldr	r3, [pc, #252]	; (81064 <decoders_crank_primary+0x124>)
   80f66:	781b      	ldrb	r3, [r3, #0]
   80f68:	b2db      	uxtb	r3, r3
   80f6a:	1a82      	subs	r2, r0, r2
   80f6c:	fb92 f4f3 	sdiv	r4, r2, r3
   80f70:	fb03 2314 	mls	r3, r3, r4, r2
   80f74:	2b00      	cmp	r3, #0
   80f76:	d062      	beq.n	8103e <decoders_crank_primary+0xfe>
   80f78:	e8bd 83f8 	ldmia.w	sp!, {r3, r4, r5, r6, r7, r8, r9, pc}
		CrankNewCycleFlag = TRUE;
   80f7c:	2301      	movs	r3, #1
   80f7e:	4a3a      	ldr	r2, [pc, #232]	; (81068 <decoders_crank_primary+0x128>)
   80f80:	7013      	strb	r3, [r2, #0]
		debug_cylinder[0].RealTimeCycleNr++;
   80f82:	4a3a      	ldr	r2, [pc, #232]	; (8106c <decoders_crank_primary+0x12c>)
   80f84:	6811      	ldr	r1, [r2, #0]
   80f86:	4419      	add	r1, r3
   80f88:	6011      	str	r1, [r2, #0]
		debug_cylinder[1].RealTimeCycleNr++;
   80f8a:	6a11      	ldr	r1, [r2, #32]
   80f8c:	4419      	add	r1, r3
   80f8e:	6211      	str	r1, [r2, #32]
		debug_cylinder[2].RealTimeCycleNr++;
   80f90:	6c11      	ldr	r1, [r2, #64]	; 0x40
   80f92:	4419      	add	r1, r3
   80f94:	6411      	str	r1, [r2, #64]	; 0x40
		debug_cylinder[3].RealTimeCycleNr++;
   80f96:	6e11      	ldr	r1, [r2, #96]	; 0x60
   80f98:	4419      	add	r1, r3
   80f9a:	6611      	str	r1, [r2, #96]	; 0x60
		CrankTooth = 0;
   80f9c:	2600      	movs	r6, #0
   80f9e:	4a2e      	ldr	r2, [pc, #184]	; (81058 <decoders_crank_primary+0x118>)
   80fa0:	7016      	strb	r6, [r2, #0]
		CrankCycleCounter++; 
   80fa2:	4933      	ldr	r1, [pc, #204]	; (81070 <decoders_crank_primary+0x130>)
   80fa4:	680a      	ldr	r2, [r1, #0]
   80fa6:	441a      	add	r2, r3
   80fa8:	600a      	str	r2, [r1, #0]
		CamSignalFlag ^= TRUE;
   80faa:	4932      	ldr	r1, [pc, #200]	; (81074 <decoders_crank_primary+0x134>)
   80fac:	780a      	ldrb	r2, [r1, #0]
   80fae:	405a      	eors	r2, r3
   80fb0:	700a      	strb	r2, [r1, #0]
		IgnitionDegree = math_interpolation_array(engine_realtime.Rpm, engine_realtime.Map, &IGN, 1);
   80fb2:	4c31      	ldr	r4, [pc, #196]	; (81078 <decoders_crank_primary+0x138>)
   80fb4:	89e0      	ldrh	r0, [r4, #14]
   80fb6:	88a1      	ldrh	r1, [r4, #4]
   80fb8:	4a30      	ldr	r2, [pc, #192]	; (8107c <decoders_crank_primary+0x13c>)
   80fba:	b289      	uxth	r1, r1
   80fbc:	b280      	uxth	r0, r0
   80fbe:	4d30      	ldr	r5, [pc, #192]	; (81080 <decoders_crank_primary+0x140>)
   80fc0:	47a8      	blx	r5
   80fc2:	4d30      	ldr	r5, [pc, #192]	; (81084 <decoders_crank_primary+0x144>)
   80fc4:	8028      	strh	r0, [r5, #0]
		DwellDegree = IgnitionDegree + igncalc_dwell_degree();
   80fc6:	4b30      	ldr	r3, [pc, #192]	; (81088 <decoders_crank_primary+0x148>)
   80fc8:	4798      	blx	r3
   80fca:	882b      	ldrh	r3, [r5, #0]
   80fcc:	4418      	add	r0, r3
   80fce:	b280      	uxth	r0, r0
   80fd0:	4f2e      	ldr	r7, [pc, #184]	; (8108c <decoders_crank_primary+0x14c>)
   80fd2:	8038      	strh	r0, [r7, #0]
		DwellSecondTach = igncalc_ign_time_teeth(DwellDegree);
   80fd4:	8838      	ldrh	r0, [r7, #0]
   80fd6:	b280      	uxth	r0, r0
   80fd8:	f8df 80e4 	ldr.w	r8, [pc, #228]	; 810c0 <decoders_crank_primary+0x180>
   80fdc:	47c0      	blx	r8
   80fde:	b2c0      	uxtb	r0, r0
   80fe0:	4b2b      	ldr	r3, [pc, #172]	; (81090 <decoders_crank_primary+0x150>)
   80fe2:	7018      	strb	r0, [r3, #0]
		DwellSecondInterval = igncalc_ign_time_interval(DwellDegree) + decoders_tooth_degree_correction();
   80fe4:	8838      	ldrh	r0, [r7, #0]
   80fe6:	b280      	uxth	r0, r0
   80fe8:	f8df 90d8 	ldr.w	r9, [pc, #216]	; 810c4 <decoders_crank_primary+0x184>
   80fec:	47c8      	blx	r9
// Ignition timing correction.  
// The 0 is at the middle of the tooth and calculations are done at the edge of every tooth.
// This function corrects the calculations by shifting the tach degree (0 and 180 in this case) to the middle of the tooth
uint32_t decoders_tooth_degree_correction(void)
{
	return CrankPrevCycleCounts/4;
   80fee:	4f18      	ldr	r7, [pc, #96]	; (81050 <decoders_crank_primary+0x110>)
   80ff0:	683b      	ldr	r3, [r7, #0]
		DwellSecondInterval = igncalc_ign_time_interval(DwellDegree) + decoders_tooth_degree_correction();
   80ff2:	eb00 0093 	add.w	r0, r0, r3, lsr #2
   80ff6:	4b27      	ldr	r3, [pc, #156]	; (81094 <decoders_crank_primary+0x154>)
   80ff8:	6018      	str	r0, [r3, #0]
		CrankSecondTach = igncalc_ign_time_teeth(IgnitionDegree);
   80ffa:	8828      	ldrh	r0, [r5, #0]
   80ffc:	b280      	uxth	r0, r0
   80ffe:	47c0      	blx	r8
   81000:	b2c0      	uxtb	r0, r0
   81002:	4b25      	ldr	r3, [pc, #148]	; (81098 <decoders_crank_primary+0x158>)
   81004:	7018      	strb	r0, [r3, #0]
		CrankSecondInterval = igncalc_ign_time_interval(IgnitionDegree) + decoders_tooth_degree_correction();
   81006:	8828      	ldrh	r0, [r5, #0]
   81008:	b280      	uxth	r0, r0
   8100a:	47c8      	blx	r9
	return CrankPrevCycleCounts/4;
   8100c:	683b      	ldr	r3, [r7, #0]
		CrankSecondInterval = igncalc_ign_time_interval(IgnitionDegree) + decoders_tooth_degree_correction();
   8100e:	eb00 0093 	add.w	r0, r0, r3, lsr #2
   81012:	4b22      	ldr	r3, [pc, #136]	; (8109c <decoders_crank_primary+0x15c>)
   81014:	6018      	str	r0, [r3, #0]
		uint32_t CalcRpm = GLOBAL_TIMER_FREQ * 60 / CrankRevCounts;
   81016:	4d22      	ldr	r5, [pc, #136]	; (810a0 <decoders_crank_primary+0x160>)
   81018:	682a      	ldr	r2, [r5, #0]
   8101a:	4b22      	ldr	r3, [pc, #136]	; (810a4 <decoders_crank_primary+0x164>)
   8101c:	fbb3 f3f2 	udiv	r3, r3, r2
		engine_realtime.Rpm = (uint16_t)CalcRpm;
   81020:	b29b      	uxth	r3, r3
   81022:	81e3      	strh	r3, [r4, #14]
		engine_realtime.PulseWidth = fuelcalc_pulsewidth() / 1000; // REMEMBER TO REMOVE !!!!!
   81024:	4b20      	ldr	r3, [pc, #128]	; (810a8 <decoders_crank_primary+0x168>)
   81026:	4798      	blx	r3
   81028:	4b20      	ldr	r3, [pc, #128]	; (810ac <decoders_crank_primary+0x16c>)
   8102a:	fba3 3000 	umull	r3, r0, r3, r0
   8102e:	f3c0 1087 	ubfx	r0, r0, #6, #8
   81032:	7560      	strb	r0, [r4, #21]
		LastCrankRevCounts = CrankRevCounts;
   81034:	682a      	ldr	r2, [r5, #0]
   81036:	4b1e      	ldr	r3, [pc, #120]	; (810b0 <decoders_crank_primary+0x170>)
   81038:	601a      	str	r2, [r3, #0]
		CrankRevCounts = 0;
   8103a:	602e      	str	r6, [r5, #0]
   8103c:	e78b      	b.n	80f56 <decoders_crank_primary+0x16>
		decoders_tach_event(tempCrankTooth, tempCrankToothCounter);
   8103e:	4b1d      	ldr	r3, [pc, #116]	; (810b4 <decoders_crank_primary+0x174>)
   81040:	4798      	blx	r3
		global_toggle_pin(PIOC, IGN5_OUT);
   81042:	f04f 4180 	mov.w	r1, #1073741824	; 0x40000000
   81046:	481c      	ldr	r0, [pc, #112]	; (810b8 <decoders_crank_primary+0x178>)
   81048:	4b1c      	ldr	r3, [pc, #112]	; (810bc <decoders_crank_primary+0x17c>)
   8104a:	4798      	blx	r3
}
   8104c:	e794      	b.n	80f78 <decoders_crank_primary+0x38>
   8104e:	bf00      	nop
   81050:	20072438 	.word	0x20072438
   81054:	20070a30 	.word	0x20070a30
   81058:	20072391 	.word	0x20072391
   8105c:	20071f80 	.word	0x20071f80
   81060:	20071a6e 	.word	0x20071a6e
   81064:	20072446 	.word	0x20072446
   81068:	20071efb 	.word	0x20071efb
   8106c:	200715e8 	.word	0x200715e8
   81070:	200709c8 	.word	0x200709c8
   81074:	20071f7c 	.word	0x20071f7c
   81078:	200715b8 	.word	0x200715b8
   8107c:	20071f68 	.word	0x20071f68
   81080:	00081c15 	.word	0x00081c15
   81084:	200709c4 	.word	0x200709c4
   81088:	000817c5 	.word	0x000817c5
   8108c:	2007244c 	.word	0x2007244c
   81090:	20071668 	.word	0x20071668
   81094:	20071f10 	.word	0x20071f10
   81098:	20071ae0 	.word	0x20071ae0
   8109c:	20071adc 	.word	0x20071adc
   810a0:	200709e4 	.word	0x200709e4
   810a4:	09634260 	.word	0x09634260
   810a8:	00081245 	.word	0x00081245
   810ac:	10624dd3 	.word	0x10624dd3
   810b0:	200709dc 	.word	0x200709dc
   810b4:	00080e0d 	.word	0x00080e0d
   810b8:	400e1200 	.word	0x400e1200
   810bc:	000816cd 	.word	0x000816cd
   810c0:	000816d9 	.word	0x000816d9
   810c4:	0008170d 	.word	0x0008170d

000810c8 <eeprom_init>:

 #include "eeprom.h"

 // Initialization function
 void eeprom_init(void)
 {
   810c8:	b500      	push	{lr}
   810ca:	b085      	sub	sp, #20
	pmc_enable_periph_clk(ID_TWI1);				// Enable peripheral clock
   810cc:	2017      	movs	r0, #23
   810ce:	4b10      	ldr	r3, [pc, #64]	; (81110 <eeprom_init+0x48>)
   810d0:	4798      	blx	r3
	#define TWI_DATA_PIN PIO_PB12A_TWD1			// Define TWI data pin
	#define TWI_CLOCK_PIN PIO_PB13A_TWCK1		// Define TWI clock pin
	#define TWI_PERIPHERAL PIOB					// Define TWI peripheral (either A(TWI0) or B(TWI1))
	TWI_PERIPHERAL->PIO_IDR = TWI_DATA_PIN;		// Interrupt disable register
   810d2:	4b10      	ldr	r3, [pc, #64]	; (81114 <eeprom_init+0x4c>)
   810d4:	f44f 5180 	mov.w	r1, #4096	; 0x1000
   810d8:	6459      	str	r1, [r3, #68]	; 0x44
	TWI_PERIPHERAL->PIO_IDR = TWI_CLOCK_PIN;	
   810da:	f44f 5200 	mov.w	r2, #8192	; 0x2000
   810de:	645a      	str	r2, [r3, #68]	; 0x44
	TWI_PERIPHERAL->PIO_PDR = TWI_DATA_PIN;		// Disable input/output which enables peripheral mode
   810e0:	6059      	str	r1, [r3, #4]
	TWI_PERIPHERAL->PIO_PDR = TWI_CLOCK_PIN;
   810e2:	605a      	str	r2, [r3, #4]
	TWI_PERIPHERAL->PIO_ABSR &= ~TWI_DATA_PIN;	// Enable Peripheral A (TWI)
   810e4:	6f18      	ldr	r0, [r3, #112]	; 0x70
   810e6:	f420 5080 	bic.w	r0, r0, #4096	; 0x1000
   810ea:	6718      	str	r0, [r3, #112]	; 0x70
	TWI_PERIPHERAL->PIO_ABSR &= ~TWI_CLOCK_PIN;
   810ec:	6f18      	ldr	r0, [r3, #112]	; 0x70
   810ee:	f420 5000 	bic.w	r0, r0, #8192	; 0x2000
   810f2:	6718      	str	r0, [r3, #112]	; 0x70
	TWI_PERIPHERAL->PIO_PUER = TWI_DATA_PIN;
   810f4:	6659      	str	r1, [r3, #100]	; 0x64
	TWI_PERIPHERAL->PIO_PUER = TWI_CLOCK_PIN;
   810f6:	665a      	str	r2, [r3, #100]	; 0x64
	// Initialize TWI 
	twi_options_t opt;
	opt.master_clk = sysclk_get_cpu_hz(); opt.speed = 400000; // 400KHz clock frequency
   810f8:	4b07      	ldr	r3, [pc, #28]	; (81118 <eeprom_init+0x50>)
   810fa:	9301      	str	r3, [sp, #4]
   810fc:	4b07      	ldr	r3, [pc, #28]	; (8111c <eeprom_init+0x54>)
   810fe:	9302      	str	r3, [sp, #8]
	twi_master_init(TWI1, &opt);
   81100:	a901      	add	r1, sp, #4
   81102:	4807      	ldr	r0, [pc, #28]	; (81120 <eeprom_init+0x58>)
   81104:	4b07      	ldr	r3, [pc, #28]	; (81124 <eeprom_init+0x5c>)
   81106:	4798      	blx	r3
 }
   81108:	b005      	add	sp, #20
   8110a:	f85d fb04 	ldr.w	pc, [sp], #4
   8110e:	bf00      	nop
   81110:	000806f9 	.word	0x000806f9
   81114:	400e1000 	.word	0x400e1000
   81118:	0501bd00 	.word	0x0501bd00
   8111c:	00061a80 	.word	0x00061a80
   81120:	40090000 	.word	0x40090000
   81124:	0008083d 	.word	0x0008083d

00081128 <eeprom_read_byte>:

// More advanced function to read from the EEPROM
// It basicly checks for TWI comm. success and retries until it enables a Fault
uint8_t eeprom_read_byte(uint16_t address)
{
   81128:	b5f0      	push	{r4, r5, r6, r7, lr}
   8112a:	b083      	sub	sp, #12
   8112c:	4607      	mov	r7, r0
	uint8_t result = 0;
   8112e:	ad02      	add	r5, sp, #8
   81130:	2300      	movs	r3, #0
   81132:	f805 3d01 	strb.w	r3, [r5, #-1]!
   81136:	240a      	movs	r4, #10
	// Try to read specific number of times otherwise FAULT
	for (uint8_t i = 0; i < TWI_NUMBER_OF_TRIES; i++)
		if (!(at24cxx_read_byte(address, &result) & AT24C_READ_FAIL))
   81138:	4e0d      	ldr	r6, [pc, #52]	; (81170 <eeprom_read_byte+0x48>)
   8113a:	4629      	mov	r1, r5
   8113c:	4638      	mov	r0, r7
   8113e:	47b0      	blx	r6
   81140:	f010 0f01 	tst.w	r0, #1
   81144:	d011      	beq.n	8116a <eeprom_read_byte+0x42>
   81146:	1e63      	subs	r3, r4, #1
	for (uint8_t i = 0; i < TWI_NUMBER_OF_TRIES; i++)
   81148:	f013 04ff 	ands.w	r4, r3, #255	; 0xff
   8114c:	d1f5      	bne.n	8113a <eeprom_read_byte+0x12>
			return result;

	// Let know that there is a fault on the Two wire interface
	engine_realtime.TwiFault = TRUE;
   8114e:	4d09      	ldr	r5, [pc, #36]	; (81174 <eeprom_read_byte+0x4c>)
   81150:	2401      	movs	r4, #1
   81152:	77ec      	strb	r4, [r5, #31]
	uart_print_string("TwiFault: "); uart_print_int(engine_realtime.TwiFault); uart_new_line();
   81154:	4808      	ldr	r0, [pc, #32]	; (81178 <eeprom_read_byte+0x50>)
   81156:	4b09      	ldr	r3, [pc, #36]	; (8117c <eeprom_read_byte+0x54>)
   81158:	4798      	blx	r3
   8115a:	7fe8      	ldrb	r0, [r5, #31]
   8115c:	4b08      	ldr	r3, [pc, #32]	; (81180 <eeprom_read_byte+0x58>)
   8115e:	4798      	blx	r3
   81160:	4b08      	ldr	r3, [pc, #32]	; (81184 <eeprom_read_byte+0x5c>)
   81162:	4798      	blx	r3
	return 1; // 1 is the safest number regarding IGN, VE and AFR map
   81164:	4620      	mov	r0, r4
}
   81166:	b003      	add	sp, #12
   81168:	bdf0      	pop	{r4, r5, r6, r7, pc}
			return result;
   8116a:	f89d 0007 	ldrb.w	r0, [sp, #7]
   8116e:	e7fa      	b.n	81166 <eeprom_read_byte+0x3e>
   81170:	00080205 	.word	0x00080205
   81174:	200715b8 	.word	0x200715b8
   81178:	000843c4 	.word	0x000843c4
   8117c:	00082be1 	.word	0x00082be1
   81180:	00082b7d 	.word	0x00082b7d
   81184:	00082bd1 	.word	0x00082bd1

00081188 <fuelcalc_GammaEnrich>:
Warmup Enrichment
Afterstart Enrichment
                                                                     */
/************************************************************************/
uint16_t fuelcalc_GammaEnrich(void)
{
   81188:	b530      	push	{r4, r5, lr}
   8118a:	b083      	sub	sp, #12
	uint16_t TotalEnrich = 100;
	uint8_t CoolantTemperature = engine_realtime.Clt;
   8118c:	4b24      	ldr	r3, [pc, #144]	; (81220 <fuelcalc_GammaEnrich+0x98>)
   8118e:	79da      	ldrb	r2, [r3, #7]
	// Calculate warm up enrichment
	TotalEnrich *= math_interpolation_vector(&engine_config2.WarmUpEnrichTemp ,&engine_config2.WarmUpEnrichPct, CoolantTemperature, 100, WARMUP_ENRICH_SIZE);
   81190:	4c24      	ldr	r4, [pc, #144]	; (81224 <fuelcalc_GammaEnrich+0x9c>)
   81192:	230a      	movs	r3, #10
   81194:	9300      	str	r3, [sp, #0]
   81196:	2364      	movs	r3, #100	; 0x64
   81198:	4621      	mov	r1, r4
   8119a:	f104 000a 	add.w	r0, r4, #10
   8119e:	4d22      	ldr	r5, [pc, #136]	; (81228 <fuelcalc_GammaEnrich+0xa0>)
   811a0:	47a8      	blx	r5
   811a2:	eb00 0080 	add.w	r0, r0, r0, lsl #2
   811a6:	eb00 0080 	add.w	r0, r0, r0, lsl #2
   811aa:	0080      	lsls	r0, r0, #2
   811ac:	b280      	uxth	r0, r0
	TotalEnrich /= 100;
   811ae:	4b1f      	ldr	r3, [pc, #124]	; (8122c <fuelcalc_GammaEnrich+0xa4>)
   811b0:	fba3 3000 	umull	r3, r0, r3, r0
   811b4:	0940      	lsrs	r0, r0, #5

	// Calculate after start enrichment
	// TODO: Make more efficient way to add after start enrichment
	if (millis/MILLI_SEC < engine_config2.AfterStartEnrichSec)
   811b6:	f814 3c01 	ldrb.w	r3, [r4, #-1]
   811ba:	b2db      	uxtb	r3, r3
   811bc:	4a1c      	ldr	r2, [pc, #112]	; (81230 <fuelcalc_GammaEnrich+0xa8>)
   811be:	6812      	ldr	r2, [r2, #0]
   811c0:	491c      	ldr	r1, [pc, #112]	; (81234 <fuelcalc_GammaEnrich+0xac>)
   811c2:	fba1 1202 	umull	r1, r2, r1, r2
   811c6:	ebb3 1f92 	cmp.w	r3, r2, lsr #6
   811ca:	d909      	bls.n	811e0 <fuelcalc_GammaEnrich+0x58>
   811cc:	3c02      	subs	r4, #2
	{
		TotalEnrich *= (100 + engine_config2.AfterStartEnrichPct);
   811ce:	7823      	ldrb	r3, [r4, #0]
   811d0:	3364      	adds	r3, #100	; 0x64
   811d2:	fb03 f000 	mul.w	r0, r3, r0
   811d6:	b280      	uxth	r0, r0
		TotalEnrich /= 100;
   811d8:	4b14      	ldr	r3, [pc, #80]	; (8122c <fuelcalc_GammaEnrich+0xa4>)
   811da:	fba3 3000 	umull	r3, r0, r3, r0
   811de:	0940      	lsrs	r0, r0, #5
	}

	// Calculate cranking enrichment
	if (engine_config2.CrankingRpm * RPM_SCALER > engine_realtime.Rpm)
   811e0:	4b15      	ldr	r3, [pc, #84]	; (81238 <fuelcalc_GammaEnrich+0xb0>)
   811e2:	7dda      	ldrb	r2, [r3, #23]
   811e4:	4b0e      	ldr	r3, [pc, #56]	; (81220 <fuelcalc_GammaEnrich+0x98>)
   811e6:	89db      	ldrh	r3, [r3, #14]
   811e8:	b29b      	uxth	r3, r3
   811ea:	2164      	movs	r1, #100	; 0x64
   811ec:	fb02 f201 	mul.w	r2, r2, r1
   811f0:	429a      	cmp	r2, r3
   811f2:	dd0d      	ble.n	81210 <fuelcalc_GammaEnrich+0x88>
	{
		LastCrankingCycle = CrankCycleCounter;
   811f4:	4b11      	ldr	r3, [pc, #68]	; (8123c <fuelcalc_GammaEnrich+0xb4>)
   811f6:	681a      	ldr	r2, [r3, #0]
   811f8:	4b11      	ldr	r3, [pc, #68]	; (81240 <fuelcalc_GammaEnrich+0xb8>)
   811fa:	601a      	str	r2, [r3, #0]
		TotalEnrich *= (100 + engine_config2.CrankingEnrichPct);
   811fc:	4b0e      	ldr	r3, [pc, #56]	; (81238 <fuelcalc_GammaEnrich+0xb0>)
   811fe:	7d9b      	ldrb	r3, [r3, #22]
   81200:	440b      	add	r3, r1
   81202:	fb03 f000 	mul.w	r0, r3, r0
   81206:	b280      	uxth	r0, r0
		TotalEnrich /= 100;
   81208:	4b08      	ldr	r3, [pc, #32]	; (8122c <fuelcalc_GammaEnrich+0xa4>)
   8120a:	fba3 3000 	umull	r3, r0, r3, r0
   8120e:	0940      	lsrs	r0, r0, #5
   81210:	28ff      	cmp	r0, #255	; 0xff
   81212:	bf28      	it	cs
   81214:	20ff      	movcs	r0, #255	; 0xff
	if (TotalEnrich > 255)
	{
		TotalEnrich = 255;
	}
	
	engine_realtime.GammaEnrich = TotalEnrich;
   81216:	b2c2      	uxtb	r2, r0
   81218:	4b01      	ldr	r3, [pc, #4]	; (81220 <fuelcalc_GammaEnrich+0x98>)
   8121a:	749a      	strb	r2, [r3, #18]
	return TotalEnrich;
   8121c:	b003      	add	sp, #12
   8121e:	bd30      	pop	{r4, r5, pc}
   81220:	200715b8 	.word	0x200715b8
   81224:	2007112a 	.word	0x2007112a
   81228:	00081cf9 	.word	0x00081cf9
   8122c:	51eb851f 	.word	0x51eb851f
   81230:	20072448 	.word	0x20072448
   81234:	10624dd3 	.word	0x10624dd3
   81238:	20071128 	.word	0x20071128
   8123c:	200709c8 	.word	0x200709c8
   81240:	20071f60 	.word	0x20071f60

00081244 <fuelcalc_pulsewidth>:
{
   81244:	e92d 43f8 	stmdb	sp!, {r3, r4, r5, r6, r7, r8, r9, lr}
	uint16_t Rpm = engine_realtime.Rpm, Map = engine_realtime.Map;
   81248:	4f36      	ldr	r7, [pc, #216]	; (81324 <fuelcalc_pulsewidth+0xe0>)
   8124a:	89fe      	ldrh	r6, [r7, #14]
   8124c:	b2b6      	uxth	r6, r6
   8124e:	88ba      	ldrh	r2, [r7, #4]
   81250:	b294      	uxth	r4, r2
	int16_t Temperature = engine_realtime.Iat - TEMPERATURE_OFFSET;
   81252:	79bd      	ldrb	r5, [r7, #6]
   81254:	b2ed      	uxtb	r5, r5
	uint16_t Ve = math_interpolation_array(Rpm, Map, &VE, 1);
   81256:	2301      	movs	r3, #1
   81258:	4a33      	ldr	r2, [pc, #204]	; (81328 <fuelcalc_pulsewidth+0xe4>)
   8125a:	4621      	mov	r1, r4
   8125c:	4630      	mov	r0, r6
   8125e:	f8df 90dc 	ldr.w	r9, [pc, #220]	; 8133c <fuelcalc_pulsewidth+0xf8>
   81262:	47c8      	blx	r9
   81264:	4680      	mov	r8, r0
	engine_realtime.VeTarget = Ve;
   81266:	b2c3      	uxtb	r3, r0
   81268:	74fb      	strb	r3, [r7, #19]
	uint16_t Afr = math_interpolation_array(Rpm, Map, &AFR, 1);
   8126a:	2301      	movs	r3, #1
   8126c:	4a2f      	ldr	r2, [pc, #188]	; (8132c <fuelcalc_pulsewidth+0xe8>)
   8126e:	4621      	mov	r1, r4
   81270:	4630      	mov	r0, r6
   81272:	47c8      	blx	r9
   81274:	4606      	mov	r6, r0
	engine_realtime.AfrTarget = Afr;
   81276:	b2c3      	uxtb	r3, r0
   81278:	753b      	strb	r3, [r7, #20]
	uint64_t Numerator = (uint64_t)Map * Ve * FUEL_CONST; 
   8127a:	4a2d      	ldr	r2, [pc, #180]	; (81330 <fuelcalc_pulsewidth+0xec>)
   8127c:	fba4 2302 	umull	r2, r3, r4, r2
   81280:	fa1f f888 	uxth.w	r8, r8
   81284:	fba2 0108 	umull	r0, r1, r2, r8
   81288:	fb08 1103 	mla	r1, r8, r3, r1
   8128c:	4c29      	ldr	r4, [pc, #164]	; (81334 <fuelcalc_pulsewidth+0xf0>)
   8128e:	f44f 7239 	mov.w	r2, #740	; 0x2e4
   81292:	2300      	movs	r3, #0
   81294:	47a0      	blx	r4
   81296:	014f      	lsls	r7, r1, #5
   81298:	0142      	lsls	r2, r0, #5
   8129a:	ea47 63d0 	orr.w	r3, r7, r0, lsr #27
   8129e:	1a12      	subs	r2, r2, r0
   812a0:	eb63 0301 	sbc.w	r3, r3, r1
   812a4:	009f      	lsls	r7, r3, #2
   812a6:	ea47 7792 	orr.w	r7, r7, r2, lsr #30
   812aa:	ea4f 0e82 	mov.w	lr, r2, lsl #2
   812ae:	eb10 000e 	adds.w	r0, r0, lr
   812b2:	4179      	adcs	r1, r7
   812b4:	00cb      	lsls	r3, r1, #3
   812b6:	ea43 7350 	orr.w	r3, r3, r0, lsr #29
   812ba:	00c2      	lsls	r2, r0, #3
   812bc:	4610      	mov	r0, r2
   812be:	4619      	mov	r1, r3
   812c0:	f240 427c 	movw	r2, #1148	; 0x47c
   812c4:	2300      	movs	r3, #0
   812c6:	47a0      	blx	r4
   812c8:	014f      	lsls	r7, r1, #5
   812ca:	ea4f 1840 	mov.w	r8, r0, lsl #5
   812ce:	ea47 69d0 	orr.w	r9, r7, r0, lsr #27
   812d2:	ebb8 0800 	subs.w	r8, r8, r0
   812d6:	eb69 0901 	sbc.w	r9, r9, r1
   812da:	ea4f 0389 	mov.w	r3, r9, lsl #2
   812de:	ea43 7398 	orr.w	r3, r3, r8, lsr #30
   812e2:	ea4f 0288 	mov.w	r2, r8, lsl #2
   812e6:	1880      	adds	r0, r0, r2
   812e8:	4159      	adcs	r1, r3
   812ea:	00cb      	lsls	r3, r1, #3
   812ec:	ea43 7350 	orr.w	r3, r3, r0, lsr #29
   812f0:	00c2      	lsls	r2, r0, #3
   812f2:	4610      	mov	r0, r2
   812f4:	4619      	mov	r1, r3
   812f6:	22c8      	movs	r2, #200	; 0xc8
   812f8:	2300      	movs	r3, #0
   812fa:	47a0      	blx	r4
	uint32_t Denominator = (uint32_t)Afr * (Temperature + 273);  
   812fc:	f105 02e9 	add.w	r2, r5, #233	; 0xe9
	uint64_t InjectorTime = Numerator / Denominator;
   81300:	fb06 f202 	mul.w	r2, r6, r2
   81304:	2300      	movs	r3, #0
   81306:	47a0      	blx	r4
   81308:	4605      	mov	r5, r0
   8130a:	460e      	mov	r6, r1
	uint16_t gammaEnrich = fuelcalc_GammaEnrich();
   8130c:	4b0a      	ldr	r3, [pc, #40]	; (81338 <fuelcalc_pulsewidth+0xf4>)
   8130e:	4798      	blx	r3
	InjectorTime = (InjectorTime * gammaEnrich) /100;
   81310:	b282      	uxth	r2, r0
   81312:	fba2 0105 	umull	r0, r1, r2, r5
   81316:	fb02 1106 	mla	r1, r2, r6, r1
   8131a:	2264      	movs	r2, #100	; 0x64
   8131c:	2300      	movs	r3, #0
   8131e:	47a0      	blx	r4
}
   81320:	e8bd 83f8 	ldmia.w	sp!, {r3, r4, r5, r6, r7, r8, r9, pc}
   81324:	200715b8 	.word	0x200715b8
   81328:	20071058 	.word	0x20071058
   8132c:	20071efc 	.word	0x20071efc
   81330:	02255100 	.word	0x02255100
   81334:	00083779 	.word	0x00083779
   81338:	00081189 	.word	0x00081189
   8133c:	00081c15 	.word	0x00081c15

00081340 <cylinder_init>:
		*(debug_cylinder_pointer + i) = 0;
	cylinder_init();
}

void cylinder_init(void)
{
   81340:	e92d 4ff0 	stmdb	sp!, {r4, r5, r6, r7, r8, r9, sl, fp, lr}
   81344:	b083      	sub	sp, #12
	for (uint8_t i = 0; i < engine_config2.NrCylinders; i++)
   81346:	4b60      	ldr	r3, [pc, #384]	; (814c8 <cylinder_init+0x188>)
   81348:	f893 3036 	ldrb.w	r3, [r3, #54]	; 0x36
   8134c:	091b      	lsrs	r3, r3, #4
   8134e:	d050      	beq.n	813f2 <cylinder_init+0xb2>
   81350:	2500      	movs	r5, #0
   81352:	462c      	mov	r4, r5
	{
		cylinder[i].Ign.CntTimingOn = 0;
   81354:	4e5d      	ldr	r6, [pc, #372]	; (814cc <cylinder_init+0x18c>)
		cylinder[i].Inj.CntTimingOff = 0;
		cylinder[i].Inj.ToothOn = 0;
		cylinder[i].Inj.ToothOff = 0;
		cylinder[i].Inj.EventPending = FALSE;
		cylinder[i].Inj.EventOnSameTooth = FALSE;
		cylinder[i].Ign.pio = PIOC;
   81356:	4f5e      	ldr	r7, [pc, #376]	; (814d0 <cylinder_init+0x190>)
		cylinder[i].Inj.pio = PIOC;
		
		Tc *Timer;
		// Initialize timer
		if (i < 3) // TC0
			Timer = TC0;
   81358:	f8df 8190 	ldr.w	r8, [pc, #400]	; 814ec <cylinder_init+0x1ac>
   8135c:	e02b      	b.n	813b6 <cylinder_init+0x76>
   8135e:	4642      	mov	r2, r8
		else if (i < 6) // TC1
			Timer = TC1;
		else // TC2
			Timer = TC2;
		cylinder[i].Tc_channel = &Timer->TC_CHANNEL[i%3];
   81360:	4b5c      	ldr	r3, [pc, #368]	; (814d4 <cylinder_init+0x194>)
   81362:	fba3 1304 	umull	r1, r3, r3, r4
   81366:	085b      	lsrs	r3, r3, #1
   81368:	eb03 0343 	add.w	r3, r3, r3, lsl #1
   8136c:	1ae3      	subs	r3, r4, r3
   8136e:	b2db      	uxtb	r3, r3
   81370:	eb02 1383 	add.w	r3, r2, r3, lsl #6
   81374:	eb05 1205 	add.w	r2, r5, r5, lsl #4
   81378:	eb06 0282 	add.w	r2, r6, r2, lsl #2
   8137c:	6413      	str	r3, [r2, #64]	; 0x40
		
		cylinder[i].Ign.TcCompareRegister = &cylinder[i].Tc_channel->TC_RA;
   8137e:	6c13      	ldr	r3, [r2, #64]	; 0x40
   81380:	3314      	adds	r3, #20
   81382:	61d3      	str	r3, [r2, #28]
		cylinder[i].Inj.TcCompareRegister = &cylinder[i].Tc_channel->TC_RB;
   81384:	6c13      	ldr	r3, [r2, #64]	; 0x40
   81386:	3318      	adds	r3, #24
   81388:	63d3      	str	r3, [r2, #60]	; 0x3c
		
		timer_init(CYLINDER_1_TIMER + i, TC_CMR_WAVE | TC_CMR_TCCLKS_TIMER_CLOCK3 | TC_CMR_EEVT_XC0, TC_IER_COVFS | TC_IER_CPAS | TC_IER_CPBS | TC_IER_CPCS, TC0_PRIORITY + i);
   8138a:	4620      	mov	r0, r4
   8138c:	3401      	adds	r4, #1
   8138e:	b2e4      	uxtb	r4, r4
   81390:	4623      	mov	r3, r4
   81392:	221d      	movs	r2, #29
   81394:	f248 4102 	movw	r1, #33794	; 0x8402
   81398:	f8df 9154 	ldr.w	r9, [pc, #340]	; 814f0 <cylinder_init+0x1b0>
   8139c:	47c8      	blx	r9
		
		debug_cylinder[i].RealTimeCylInstance = i + 1;
   8139e:	1c6a      	adds	r2, r5, #1
   813a0:	4b4d      	ldr	r3, [pc, #308]	; (814d8 <cylinder_init+0x198>)
   813a2:	eb03 1545 	add.w	r5, r3, r5, lsl #5
   813a6:	60aa      	str	r2, [r5, #8]
	for (uint8_t i = 0; i < engine_config2.NrCylinders; i++)
   813a8:	4625      	mov	r5, r4
   813aa:	4b47      	ldr	r3, [pc, #284]	; (814c8 <cylinder_init+0x188>)
   813ac:	f893 3036 	ldrb.w	r3, [r3, #54]	; 0x36
   813b0:	ebb4 1f13 	cmp.w	r4, r3, lsr #4
   813b4:	da1d      	bge.n	813f2 <cylinder_init+0xb2>
		cylinder[i].Ign.CntTimingOn = 0;
   813b6:	eb05 1105 	add.w	r1, r5, r5, lsl #4
   813ba:	eb06 0381 	add.w	r3, r6, r1, lsl #2
   813be:	2200      	movs	r2, #0
   813c0:	f846 2021 	str.w	r2, [r6, r1, lsl #2]
		cylinder[i].Ign.CntTimingOff = 0;
   813c4:	605a      	str	r2, [r3, #4]
		cylinder[i].Ign.ToothOn = 0;
   813c6:	609a      	str	r2, [r3, #8]
		cylinder[i].Ign.ToothOff = 0;
   813c8:	60da      	str	r2, [r3, #12]
		cylinder[i].Ign.EventPending = FALSE;
   813ca:	741a      	strb	r2, [r3, #16]
		cylinder[i].Ign.EventOnSameTooth = FALSE;
   813cc:	745a      	strb	r2, [r3, #17]
		cylinder[i].Inj.CntTimingOn = 0;
   813ce:	621a      	str	r2, [r3, #32]
		cylinder[i].Inj.CntTimingOff = 0;
   813d0:	625a      	str	r2, [r3, #36]	; 0x24
		cylinder[i].Inj.ToothOn = 0;
   813d2:	629a      	str	r2, [r3, #40]	; 0x28
		cylinder[i].Inj.ToothOff = 0;
   813d4:	62da      	str	r2, [r3, #44]	; 0x2c
		cylinder[i].Inj.EventPending = FALSE;
   813d6:	f883 2030 	strb.w	r2, [r3, #48]	; 0x30
		cylinder[i].Inj.EventOnSameTooth = FALSE;
   813da:	f883 2031 	strb.w	r2, [r3, #49]	; 0x31
		cylinder[i].Ign.pio = PIOC;
   813de:	619f      	str	r7, [r3, #24]
		cylinder[i].Inj.pio = PIOC;
   813e0:	639f      	str	r7, [r3, #56]	; 0x38
		if (i < 3) // TC0
   813e2:	2c02      	cmp	r4, #2
   813e4:	d9bb      	bls.n	8135e <cylinder_init+0x1e>
			Timer = TC2;
   813e6:	4a3d      	ldr	r2, [pc, #244]	; (814dc <cylinder_init+0x19c>)
   813e8:	4b3d      	ldr	r3, [pc, #244]	; (814e0 <cylinder_init+0x1a0>)
   813ea:	2c05      	cmp	r4, #5
   813ec:	bf98      	it	ls
   813ee:	461a      	movls	r2, r3
   813f0:	e7b6      	b.n	81360 <cylinder_init+0x20>
	}
	cylinder[1].Inj.pio = PIOD; // Because the board developer did not thought it through :)
   813f2:	4b36      	ldr	r3, [pc, #216]	; (814cc <cylinder_init+0x18c>)
   813f4:	4a3b      	ldr	r2, [pc, #236]	; (814e4 <cylinder_init+0x1a4>)
   813f6:	67da      	str	r2, [r3, #124]	; 0x7c
	cylinder[0].Ign.OutputPin = IGN1_OUT;
   813f8:	f44f 2200 	mov.w	r2, #524288	; 0x80000
   813fc:	615a      	str	r2, [r3, #20]
	cylinder[1].Ign.OutputPin = IGN2_OUT;
   813fe:	f44f 0200 	mov.w	r2, #8388608	; 0x800000
   81402:	659a      	str	r2, [r3, #88]	; 0x58
	cylinder[2].Ign.OutputPin = IGN3_OUT;
   81404:	f44f 3200 	mov.w	r2, #131072	; 0x20000
   81408:	f8c3 209c 	str.w	r2, [r3, #156]	; 0x9c
	cylinder[3].Ign.OutputPin = IGN4_OUT;
   8140c:	f04f 7200 	mov.w	r2, #33554432	; 0x2000000
   81410:	f8c3 20e0 	str.w	r2, [r3, #224]	; 0xe0
	cylinder[4].Ign.OutputPin = IGN5_OUT;
   81414:	f04f 4280 	mov.w	r2, #1073741824	; 0x40000000
   81418:	f8c3 2124 	str.w	r2, [r3, #292]	; 0x124
	cylinder[5].Ign.OutputPin = IGN6_OUT;
   8141c:	f04f 5200 	mov.w	r2, #536870912	; 0x20000000
   81420:	f8c3 2168 	str.w	r2, [r3, #360]	; 0x168
	cylinder[6].Ign.OutputPin = IGN7_OUT;
   81424:	f04f 5280 	mov.w	r2, #268435456	; 0x10000000
   81428:	f8c3 21ac 	str.w	r2, [r3, #428]	; 0x1ac
	cylinder[7].Ign.OutputPin = IGN8_OUT;
   8142c:	f04f 6200 	mov.w	r2, #134217728	; 0x8000000
   81430:	f8c3 21f0 	str.w	r2, [r3, #496]	; 0x1f0
	cylinder[0].Inj.OutputPin = INJ1_OUT;
   81434:	2202      	movs	r2, #2
   81436:	635a      	str	r2, [r3, #52]	; 0x34
	cylinder[1].Inj.OutputPin = INJ2_OUT;
   81438:	2201      	movs	r2, #1
   8143a:	679a      	str	r2, [r3, #120]	; 0x78
	cylinder[2].Inj.OutputPin = INJ3_OUT;
   8143c:	2208      	movs	r2, #8
   8143e:	f8c3 20bc 	str.w	r2, [r3, #188]	; 0xbc
	cylinder[3].Inj.OutputPin = INJ4_OUT;
   81442:	2220      	movs	r2, #32
   81444:	f8c3 2100 	str.w	r2, [r3, #256]	; 0x100
	cylinder[4].Inj.OutputPin = INJ5_OUT;
   81448:	f44f 5200 	mov.w	r2, #8192	; 0x2000
   8144c:	f8c3 2144 	str.w	r2, [r3, #324]	; 0x144
	cylinder[5].Inj.OutputPin = INJ6_OUT;
   81450:	2280      	movs	r2, #128	; 0x80
   81452:	f8c3 2188 	str.w	r2, [r3, #392]	; 0x188
	cylinder[6].Inj.OutputPin = INJ7_OUT;
   81456:	f44f 4200 	mov.w	r2, #32768	; 0x8000
   8145a:	f8c3 21cc 	str.w	r2, [r3, #460]	; 0x1cc
	cylinder[7].Inj.OutputPin = INJ8_OUT;
   8145e:	f44f 7200 	mov.w	r2, #512	; 0x200
   81462:	f8c3 2210 	str.w	r2, [r3, #528]	; 0x210
	for (uint8_t i = 0; i < engine_config2.NrCylinders; i++)
   81466:	4b18      	ldr	r3, [pc, #96]	; (814c8 <cylinder_init+0x188>)
   81468:	f893 3036 	ldrb.w	r3, [r3, #54]	; 0x36
   8146c:	091b      	lsrs	r3, r3, #4
   8146e:	d027      	beq.n	814c0 <cylinder_init+0x180>
   81470:	f04f 0b00 	mov.w	fp, #0
   81474:	465d      	mov	r5, fp
	{
		pio_set_output(cylinder[i].Ign.pio, cylinder[i].Ign.OutputPin, HIGH, FALSE, FALSE);
   81476:	f8df 9054 	ldr.w	r9, [pc, #84]	; 814cc <cylinder_init+0x18c>
   8147a:	f04f 0801 	mov.w	r8, #1
   8147e:	4f1a      	ldr	r7, [pc, #104]	; (814e8 <cylinder_init+0x1a8>)
   81480:	ea4f 140b 	mov.w	r4, fp, lsl #4
   81484:	eb04 0a0b 	add.w	sl, r4, fp
   81488:	eb09 0a8a 	add.w	sl, r9, sl, lsl #2
   8148c:	f8da 0018 	ldr.w	r0, [sl, #24]
   81490:	f8da 1014 	ldr.w	r1, [sl, #20]
   81494:	2600      	movs	r6, #0
   81496:	9600      	str	r6, [sp, #0]
   81498:	4633      	mov	r3, r6
   8149a:	4642      	mov	r2, r8
   8149c:	47b8      	blx	r7
		pio_set_output(cylinder[i].Inj.pio, cylinder[i].Inj.OutputPin, HIGH, FALSE, FALSE);
   8149e:	f8da 0038 	ldr.w	r0, [sl, #56]	; 0x38
   814a2:	f8da 1034 	ldr.w	r1, [sl, #52]	; 0x34
   814a6:	9600      	str	r6, [sp, #0]
   814a8:	4633      	mov	r3, r6
   814aa:	4642      	mov	r2, r8
   814ac:	47b8      	blx	r7
	for (uint8_t i = 0; i < engine_config2.NrCylinders; i++)
   814ae:	3501      	adds	r5, #1
   814b0:	b2ed      	uxtb	r5, r5
   814b2:	46ab      	mov	fp, r5
   814b4:	4b04      	ldr	r3, [pc, #16]	; (814c8 <cylinder_init+0x188>)
   814b6:	f893 3036 	ldrb.w	r3, [r3, #54]	; 0x36
   814ba:	ebb5 1f13 	cmp.w	r5, r3, lsr #4
   814be:	dbdf      	blt.n	81480 <cylinder_init+0x140>
	}
}
   814c0:	b003      	add	sp, #12
   814c2:	e8bd 8ff0 	ldmia.w	sp!, {r4, r5, r6, r7, r8, r9, sl, fp, pc}
   814c6:	bf00      	nop
   814c8:	20071128 	.word	0x20071128
   814cc:	20070e38 	.word	0x20070e38
   814d0:	400e1200 	.word	0x400e1200
   814d4:	aaaaaaab 	.word	0xaaaaaaab
   814d8:	200715e8 	.word	0x200715e8
   814dc:	40088000 	.word	0x40088000
   814e0:	40084000 	.word	0x40084000
   814e4:	400e1400 	.word	0x400e1400
   814e8:	0008047d 	.word	0x0008047d
   814ec:	40080000 	.word	0x40080000
   814f0:	00082065 	.word	0x00082065

000814f4 <global_init>:
{
   814f4:	e92d 41f0 	stmdb	sp!, {r4, r5, r6, r7, r8, lr}
	DebugCounter = 0;
   814f8:	2400      	movs	r4, #0
   814fa:	4b4f      	ldr	r3, [pc, #316]	; (81638 <global_init+0x144>)
   814fc:	601c      	str	r4, [r3, #0]
	isDebug = 0;
   814fe:	4b4f      	ldr	r3, [pc, #316]	; (8163c <global_init+0x148>)
   81500:	601c      	str	r4, [r3, #0]
	GlobalTimerFreqADCScaler = 50;
   81502:	2232      	movs	r2, #50	; 0x32
   81504:	4b4e      	ldr	r3, [pc, #312]	; (81640 <global_init+0x14c>)
   81506:	801a      	strh	r2, [r3, #0]
	GlobalTimerFreqUARTScaler = 1;
   81508:	2701      	movs	r7, #1
   8150a:	4b4e      	ldr	r3, [pc, #312]	; (81644 <global_init+0x150>)
   8150c:	801f      	strh	r7, [r3, #0]
	GlobalTimerFreqTelemetryScaler = 1;
   8150e:	4b4e      	ldr	r3, [pc, #312]	; (81648 <global_init+0x154>)
   81510:	801f      	strh	r7, [r3, #0]
	CrankCurrCycleCounts = 0;
   81512:	4b4e      	ldr	r3, [pc, #312]	; (8164c <global_init+0x158>)
   81514:	601c      	str	r4, [r3, #0]
	CrankPrevCycleCounts = 0;
   81516:	4b4e      	ldr	r3, [pc, #312]	; (81650 <global_init+0x15c>)
   81518:	601c      	str	r4, [r3, #0]
	CamCurrCycleCounts = 0;
   8151a:	4b4e      	ldr	r3, [pc, #312]	; (81654 <global_init+0x160>)
   8151c:	601c      	str	r4, [r3, #0]
	CrankTimerCounts = 0;
   8151e:	4b4e      	ldr	r3, [pc, #312]	; (81658 <global_init+0x164>)
   81520:	601c      	str	r4, [r3, #0]
	CamTimerCounts = 0;
   81522:	4b4e      	ldr	r3, [pc, #312]	; (8165c <global_init+0x168>)
   81524:	601c      	str	r4, [r3, #0]
	CrankTooth = 0;
   81526:	4b4e      	ldr	r3, [pc, #312]	; (81660 <global_init+0x16c>)
   81528:	701c      	strb	r4, [r3, #0]
	CrankToothCounter = 0;
   8152a:	4b4e      	ldr	r3, [pc, #312]	; (81664 <global_init+0x170>)
   8152c:	601c      	str	r4, [r3, #0]
	CrankCycleCounter = 0;
   8152e:	4b4e      	ldr	r3, [pc, #312]	; (81668 <global_init+0x174>)
   81530:	601c      	str	r4, [r3, #0]
	CrankSignalFlag = FALSE;
   81532:	4b4e      	ldr	r3, [pc, #312]	; (8166c <global_init+0x178>)
   81534:	701c      	strb	r4, [r3, #0]
	CamSignalFlag = FALSE;
   81536:	4b4e      	ldr	r3, [pc, #312]	; (81670 <global_init+0x17c>)
   81538:	701c      	strb	r4, [r3, #0]
	CrankRevCounts = 0;
   8153a:	4b4e      	ldr	r3, [pc, #312]	; (81674 <global_init+0x180>)
   8153c:	601c      	str	r4, [r3, #0]
	LastCrankRevCounts = 0;
   8153e:	4b4e      	ldr	r3, [pc, #312]	; (81678 <global_init+0x184>)
   81540:	601c      	str	r4, [r3, #0]
	storage_struct_read_eeprom_init(&engine_config2, sizeof(engine_config2), EEPROM_CONFIG2_INDEX);
   81542:	4d4e      	ldr	r5, [pc, #312]	; (8167c <global_init+0x188>)
   81544:	f241 3288 	movw	r2, #5000	; 0x1388
   81548:	214a      	movs	r1, #74	; 0x4a
   8154a:	4628      	mov	r0, r5
   8154c:	f8df 8178 	ldr.w	r8, [pc, #376]	; 816c8 <global_init+0x1d4>
   81550:	47c0      	blx	r8
	storage_struct_read_eeprom_init(&engine_config4, sizeof(engine_config4), EEPROM_CONFIG4_INDEX);
   81552:	4e4b      	ldr	r6, [pc, #300]	; (81680 <global_init+0x18c>)
   81554:	f241 4250 	movw	r2, #5200	; 0x1450
   81558:	2140      	movs	r1, #64	; 0x40
   8155a:	4630      	mov	r0, r6
   8155c:	47c0      	blx	r8
	storage_struct_read_eeprom_init(&engine_config6, sizeof(engine_config6), EEPROM_CONFIG6_INDEX);
   8155e:	f241 5218 	movw	r2, #5400	; 0x1518
   81562:	2140      	movs	r1, #64	; 0x40
   81564:	4847      	ldr	r0, [pc, #284]	; (81684 <global_init+0x190>)
   81566:	47c0      	blx	r8
	storage_struct_read_eeprom_init(&engine_config7, sizeof(engine_config7), EEPROM_CONFIG7_INDEX);
   81568:	f44f 52af 	mov.w	r2, #5600	; 0x15e0
   8156c:	2140      	movs	r1, #64	; 0x40
   8156e:	4846      	ldr	r0, [pc, #280]	; (81688 <global_init+0x194>)
   81570:	47c0      	blx	r8
	storage_struct_read_eeprom_init(&engine_config8, sizeof(engine_config8), EEPROM_CONFIG8_INDEX);
   81572:	f241 62a8 	movw	r2, #5800	; 0x16a8
   81576:	21a0      	movs	r1, #160	; 0xa0
   81578:	4844      	ldr	r0, [pc, #272]	; (8168c <global_init+0x198>)
   8157a:	47c0      	blx	r8
	storage_struct_read_eeprom_init(&engine_config9, sizeof(engine_config9), EEPROM_CONFIG9_INDEX);
   8157c:	f241 7270 	movw	r2, #6000	; 0x1770
   81580:	21c0      	movs	r1, #192	; 0xc0
   81582:	4843      	ldr	r0, [pc, #268]	; (81690 <global_init+0x19c>)
   81584:	47c0      	blx	r8
	TachEvents = engine_config2.NrCylinders / 2; // TODO: should be divided by one for two stroke
   81586:	f895 3036 	ldrb.w	r3, [r5, #54]	; 0x36
   8158a:	095b      	lsrs	r3, r3, #5
   8158c:	4941      	ldr	r1, [pc, #260]	; (81694 <global_init+0x1a0>)
   8158e:	800b      	strh	r3, [r1, #0]
	TachPulse = engine_config4.TriggerTeethCount/TachEvents; // Calculate new RPM every half of the trigger wheel (24 tooths)
   81590:	7bf3      	ldrb	r3, [r6, #15]
   81592:	b2db      	uxtb	r3, r3
   81594:	880a      	ldrh	r2, [r1, #0]
   81596:	b292      	uxth	r2, r2
   81598:	fb93 f3f2 	sdiv	r3, r3, r2
   8159c:	4a3e      	ldr	r2, [pc, #248]	; (81698 <global_init+0x1a4>)
   8159e:	7013      	strb	r3, [r2, #0]
	TachEventDelayTeeths = (engine_config4.TriggerTeethCount * engine_config4.TriggerAngle) / (360);
   815a0:	7bf3      	ldrb	r3, [r6, #15]
   815a2:	8832      	ldrh	r2, [r6, #0]
   815a4:	b212      	sxth	r2, r2
   815a6:	fb03 f302 	mul.w	r3, r3, r2
   815aa:	4a3c      	ldr	r2, [pc, #240]	; (8169c <global_init+0x1a8>)
   815ac:	fb82 0203 	smull	r0, r2, r2, r3
   815b0:	441a      	add	r2, r3
   815b2:	17db      	asrs	r3, r3, #31
   815b4:	ebc3 2322 	rsb	r3, r3, r2, asr #8
   815b8:	b2db      	uxtb	r3, r3
   815ba:	4a39      	ldr	r2, [pc, #228]	; (816a0 <global_init+0x1ac>)
   815bc:	7013      	strb	r3, [r2, #0]
	TachCrankDegreeInterval = 360 / TachEvents;
   815be:	880b      	ldrh	r3, [r1, #0]
   815c0:	b29a      	uxth	r2, r3
   815c2:	f44f 73b4 	mov.w	r3, #360	; 0x168
   815c6:	fb93 f3f2 	sdiv	r3, r3, r2
   815ca:	4a36      	ldr	r2, [pc, #216]	; (816a4 <global_init+0x1b0>)
   815cc:	8013      	strh	r3, [r2, #0]
	CrankToothDegreeInterval = CRANK_DEGREE_RESOLUTION / engine_config4.TriggerTeethCount;
   815ce:	7bf3      	ldrb	r3, [r6, #15]
   815d0:	b2da      	uxtb	r2, r3
   815d2:	f44f 6361 	mov.w	r3, #3600	; 0xe10
   815d6:	fb93 f3f2 	sdiv	r3, r3, r2
   815da:	4a33      	ldr	r2, [pc, #204]	; (816a8 <global_init+0x1b4>)
   815dc:	6013      	str	r3, [r2, #0]
	InjectorOpenTime = engine_config2.injOpen * 1000; // injOpen is in 100 of s, convert it to 100 of ns
   815de:	f895 3025 	ldrb.w	r3, [r5, #37]	; 0x25
   815e2:	ebc3 1243 	rsb	r2, r3, r3, lsl #5
   815e6:	eb03 0382 	add.w	r3, r3, r2, lsl #2
   815ea:	00db      	lsls	r3, r3, #3
   815ec:	b29b      	uxth	r3, r3
   815ee:	4a2f      	ldr	r2, [pc, #188]	; (816ac <global_init+0x1b8>)
   815f0:	8013      	strh	r3, [r2, #0]
	IgnitionDwellLimit = engine_config4.DwellLimit * 10000;//DwellLimit is in 1 ms resolution, convert to 100 of ns
   815f2:	7ff3      	ldrb	r3, [r6, #31]
   815f4:	f242 7210 	movw	r2, #10000	; 0x2710
   815f8:	fb03 f302 	mul.w	r3, r3, r2
   815fc:	4a2c      	ldr	r2, [pc, #176]	; (816b0 <global_init+0x1bc>)
   815fe:	6013      	str	r3, [r2, #0]
	engine_config2.FiringOrder[0] = 1 - 1;
   81600:	f885 4042 	strb.w	r4, [r5, #66]	; 0x42
	engine_config2.FiringOrder[1] = 2 - 1;
   81604:	f885 7043 	strb.w	r7, [r5, #67]	; 0x43
	engine_config2.FiringOrder[2] = 4 - 1;
   81608:	2303      	movs	r3, #3
   8160a:	f885 3044 	strb.w	r3, [r5, #68]	; 0x44
	engine_config2.FiringOrder[3] = 3 - 1;
   8160e:	2302      	movs	r3, #2
   81610:	f885 3045 	strb.w	r3, [r5, #69]	; 0x45
	storage_init_struct_to_zero(&engine_realtime, sizeof(engine_realtime));
   81614:	2122      	movs	r1, #34	; 0x22
   81616:	4827      	ldr	r0, [pc, #156]	; (816b4 <global_init+0x1c0>)
   81618:	4b27      	ldr	r3, [pc, #156]	; (816b8 <global_init+0x1c4>)
   8161a:	4798      	blx	r3
	table_init();
   8161c:	4b27      	ldr	r3, [pc, #156]	; (816bc <global_init+0x1c8>)
   8161e:	4798      	blx	r3
   81620:	4b27      	ldr	r3, [pc, #156]	; (816c0 <global_init+0x1cc>)
   81622:	f503 7100 	add.w	r1, r3, #512	; 0x200
		*(debug_cylinder_pointer + i) = 0;
   81626:	4622      	mov	r2, r4
   81628:	f843 2f04 	str.w	r2, [r3, #4]!
	for (uint32_t i = 0; i < sizeof(debug_cylinder); i++)
   8162c:	428b      	cmp	r3, r1
   8162e:	d1fb      	bne.n	81628 <global_init+0x134>
	cylinder_init();
   81630:	4b24      	ldr	r3, [pc, #144]	; (816c4 <global_init+0x1d0>)
   81632:	4798      	blx	r3
   81634:	e8bd 81f0 	ldmia.w	sp!, {r4, r5, r6, r7, r8, pc}
   81638:	20070a2c 	.word	0x20070a2c
   8163c:	20071f18 	.word	0x20071f18
   81640:	20071af4 	.word	0x20071af4
   81644:	20071acc 	.word	0x20071acc
   81648:	20071f14 	.word	0x20071f14
   8164c:	20070a30 	.word	0x20070a30
   81650:	20072438 	.word	0x20072438
   81654:	200709d4 	.word	0x200709d4
   81658:	200709cc 	.word	0x200709cc
   8165c:	200715dc 	.word	0x200715dc
   81660:	20072391 	.word	0x20072391
   81664:	20071f80 	.word	0x20071f80
   81668:	200709c8 	.word	0x200709c8
   8166c:	20072444 	.word	0x20072444
   81670:	20071f7c 	.word	0x20071f7c
   81674:	200709e4 	.word	0x200709e4
   81678:	200709dc 	.word	0x200709dc
   8167c:	20071128 	.word	0x20071128
   81680:	20071174 	.word	0x20071174
   81684:	200709e8 	.word	0x200709e8
   81688:	20071f1c 	.word	0x20071f1c
   8168c:	20072394 	.word	0x20072394
   81690:	20071068 	.word	0x20071068
   81694:	200711b4 	.word	0x200711b4
   81698:	20072446 	.word	0x20072446
   8169c:	b60b60b7 	.word	0xb60b60b7
   816a0:	20071a6e 	.word	0x20071a6e
   816a4:	20071aca 	.word	0x20071aca
   816a8:	20071f78 	.word	0x20071f78
   816ac:	200709c6 	.word	0x200709c6
   816b0:	20071ad0 	.word	0x20071ad0
   816b4:	200715b8 	.word	0x200715b8
   816b8:	00081f51 	.word	0x00081f51
   816bc:	0008202d 	.word	0x0008202d
   816c0:	200715e4 	.word	0x200715e4
   816c4:	00081341 	.word	0x00081341
   816c8:	00081f3d 	.word	0x00081f3d

000816cc <global_toggle_pin>:

void global_toggle_pin(Pio *PioInterface, uint32_t Pin)
{
	uint32_t Status = PioInterface->PIO_ODSR; // Should return 0 or 
   816cc:	6b83      	ldr	r3, [r0, #56]	; 0x38
	if (Status & Pin)
   816ce:	420b      	tst	r3, r1
		PioInterface->PIO_CODR = Pin;
   816d0:	bf14      	ite	ne
   816d2:	6341      	strne	r1, [r0, #52]	; 0x34
	else
		PioInterface->PIO_SODR = Pin;
   816d4:	6301      	streq	r1, [r0, #48]	; 0x30
   816d6:	4770      	bx	lr

000816d8 <igncalc_ign_time_teeth>:
// Calculate the amount of teeth to skip for the next ignition event
// Returns an integer to skip
// Example: Skip 7,4 teeth ---> the function returns the integer 7
uint16_t igncalc_ign_time_teeth(uint16_t ign_degree)
{
	uint32_t temp = ((CRANK_DEGREE_INTERVAL * 10 - ign_degree) * 10) / CRANK_DEGREE_INTERVAL;
   816d8:	f5c0 60e1 	rsb	r0, r0, #1800	; 0x708
   816dc:	eb00 0080 	add.w	r0, r0, r0, lsl #2
   816e0:	0040      	lsls	r0, r0, #1
   816e2:	4b08      	ldr	r3, [pc, #32]	; (81704 <igncalc_ign_time_teeth+0x2c>)
   816e4:	fb83 2300 	smull	r2, r3, r3, r0
   816e8:	4403      	add	r3, r0
   816ea:	17c0      	asrs	r0, r0, #31
   816ec:	ebc0 10e3 	rsb	r0, r0, r3, asr #7
	uint32_t temp1 = (temp * (CRANK_TEETH/TACH_EVENTS))/100;
   816f0:	eb00 0040 	add.w	r0, r0, r0, lsl #1
   816f4:	0080      	lsls	r0, r0, #2
   816f6:	4b04      	ldr	r3, [pc, #16]	; (81708 <igncalc_ign_time_teeth+0x30>)
   816f8:	fba3 3000 	umull	r3, r0, r3, r0
// 			uart_transfer('R'); uart_print_int(temp1); uart_new_line();
// 		}
// 		
// 		return	temp1;
// 	}
}
   816fc:	f3c0 104f 	ubfx	r0, r0, #5, #16
   81700:	4770      	bx	lr
   81702:	bf00      	nop
   81704:	b60b60b7 	.word	0xb60b60b7
   81708:	51eb851f 	.word	0x51eb851f

0008170c <igncalc_ign_time_interval>:

// Calculate the time between 2 teeth
// Returns the counts to interval from the current tooth
// Example: Skip 7,4 teeth ---> the function uses the decimal number 0,4 to calculate the spark event
uint32_t igncalc_ign_time_interval(uint16_t ign_degree)
{
   8170c:	b510      	push	{r4, lr}
   8170e:	4604      	mov	r4, r0
	uint32_t temp1;
	if (IgnATDC)
   81710:	4b1c      	ldr	r3, [pc, #112]	; (81784 <igncalc_ign_time_interval+0x78>)
   81712:	781b      	ldrb	r3, [r3, #0]
   81714:	b9f3      	cbnz	r3, 81754 <igncalc_ign_time_interval+0x48>
	{
		temp1 = (((CRANK_DEGREE_INTERVAL * 10 + ign_degree) * 10) / CRANK_DEGREE_INTERVAL) * (CRANK_TEETH/TACH_EVENTS) - (igncalc_ign_time_teeth(ign_degree) * 100);
	}
	else
	{
		temp1 = (((CRANK_DEGREE_INTERVAL * 10 - ign_degree) * 10) / CRANK_DEGREE_INTERVAL) * (CRANK_TEETH/TACH_EVENTS) - (igncalc_ign_time_teeth(ign_degree) * 100);
   81716:	4b1c      	ldr	r3, [pc, #112]	; (81788 <igncalc_ign_time_interval+0x7c>)
   81718:	4798      	blx	r3
   8171a:	f5c4 64e1 	rsb	r4, r4, #1800	; 0x708
   8171e:	eb04 0484 	add.w	r4, r4, r4, lsl #2
   81722:	0064      	lsls	r4, r4, #1
   81724:	4b19      	ldr	r3, [pc, #100]	; (8178c <igncalc_ign_time_interval+0x80>)
   81726:	fb83 2304 	smull	r2, r3, r3, r4
   8172a:	4423      	add	r3, r4
   8172c:	17e4      	asrs	r4, r4, #31
   8172e:	ebc4 14e3 	rsb	r4, r4, r3, asr #7
   81732:	eb04 0444 	add.w	r4, r4, r4, lsl #1
   81736:	f06f 0363 	mvn.w	r3, #99	; 0x63
   8173a:	fb03 f000 	mul.w	r0, r3, r0
   8173e:	eb00 0484 	add.w	r4, r0, r4, lsl #2
	}
	
	return (temp1 * CrankPrevCycleCounts)/100;
   81742:	4b13      	ldr	r3, [pc, #76]	; (81790 <igncalc_ign_time_interval+0x84>)
   81744:	6818      	ldr	r0, [r3, #0]
   81746:	fb00 f404 	mul.w	r4, r0, r4
   8174a:	4812      	ldr	r0, [pc, #72]	; (81794 <igncalc_ign_time_interval+0x88>)
   8174c:	fba0 3004 	umull	r3, r0, r0, r4
}
   81750:	0940      	lsrs	r0, r0, #5
   81752:	bd10      	pop	{r4, pc}
		temp1 = (((CRANK_DEGREE_INTERVAL * 10 + ign_degree) * 10) / CRANK_DEGREE_INTERVAL) * (CRANK_TEETH/TACH_EVENTS) - (igncalc_ign_time_teeth(ign_degree) * 100);
   81754:	4b0c      	ldr	r3, [pc, #48]	; (81788 <igncalc_ign_time_interval+0x7c>)
   81756:	4798      	blx	r3
   81758:	f504 64e1 	add.w	r4, r4, #1800	; 0x708
   8175c:	eb04 0484 	add.w	r4, r4, r4, lsl #2
   81760:	0064      	lsls	r4, r4, #1
   81762:	4b0a      	ldr	r3, [pc, #40]	; (8178c <igncalc_ign_time_interval+0x80>)
   81764:	fb83 2304 	smull	r2, r3, r3, r4
   81768:	4423      	add	r3, r4
   8176a:	17e4      	asrs	r4, r4, #31
   8176c:	ebc4 14e3 	rsb	r4, r4, r3, asr #7
   81770:	eb04 0444 	add.w	r4, r4, r4, lsl #1
   81774:	f06f 0363 	mvn.w	r3, #99	; 0x63
   81778:	fb03 f000 	mul.w	r0, r3, r0
   8177c:	eb00 0484 	add.w	r4, r0, r4, lsl #2
   81780:	e7df      	b.n	81742 <igncalc_ign_time_interval+0x36>
   81782:	bf00      	nop
   81784:	20071ef8 	.word	0x20071ef8
   81788:	000816d9 	.word	0x000816d9
   8178c:	b60b60b7 	.word	0xb60b60b7
   81790:	20072438 	.word	0x20072438
   81794:	51eb851f 	.word	0x51eb851f

00081798 <igncalc_dwell_correction>:


// Correction for dwell in regards to battery voltage
// Returns the dwell correction in percentage (%) 0.0 - 255.0% depending on the parameters set in TunerStudio (Scaled up by 0.1), 100.0% = 1000 
uint16_t igncalc_dwell_correction(void)
{
   81798:	b510      	push	{r4, lr}
   8179a:	b082      	sub	sp, #8
	uint8_t voltage = engine_realtime.BattVolt;
   8179c:	4b05      	ldr	r3, [pc, #20]	; (817b4 <igncalc_dwell_correction+0x1c>)
   8179e:	7a5a      	ldrb	r2, [r3, #9]
	// Use scaler 23.4.17 JBB
	uint32_t totalDwell = math_interpolation_vector(&engine_config6.BattRefVoltBins, &engine_config4.DwellCorrectionValues, voltage, 10, sizeof(engine_config4.DwellCorrectionValues));
   817a0:	2306      	movs	r3, #6
   817a2:	9300      	str	r3, [sp, #0]
   817a4:	230a      	movs	r3, #10
   817a6:	4904      	ldr	r1, [pc, #16]	; (817b8 <igncalc_dwell_correction+0x20>)
   817a8:	4804      	ldr	r0, [pc, #16]	; (817bc <igncalc_dwell_correction+0x24>)
   817aa:	4c05      	ldr	r4, [pc, #20]	; (817c0 <igncalc_dwell_correction+0x28>)
   817ac:	47a0      	blx	r4
	//uint32_t totalDwell = math_interpolation_vector(&engine_config6.BattRefVoltBins, &engine_config4.DwellCorrectionValues, voltage, 1, sizeof(engine_config4.DwellCorrectionValues));
	return totalDwell;
}
   817ae:	b002      	add	sp, #8
   817b0:	bd10      	pop	{r4, pc}
   817b2:	bf00      	nop
   817b4:	200715b8 	.word	0x200715b8
   817b8:	20071194 	.word	0x20071194
   817bc:	200709f7 	.word	0x200709f7
   817c0:	00081cf9 	.word	0x00081cf9

000817c4 <igncalc_dwell_degree>:
{
   817c4:	b508      	push	{r3, lr}
	uint8_t correction = igncalc_dwell_correction();
   817c6:	4b19      	ldr	r3, [pc, #100]	; (8182c <igncalc_dwell_degree+0x68>)
   817c8:	4798      	blx	r3
	uint16_t totalDwellms = (engine_config4.DwellTimeRunning * correction)/100; // tenths of milliseconds 
   817ca:	4919      	ldr	r1, [pc, #100]	; (81830 <igncalc_dwell_degree+0x6c>)
   817cc:	7b8b      	ldrb	r3, [r1, #14]
   817ce:	b2c0      	uxtb	r0, r0
   817d0:	fb03 f000 	mul.w	r0, r3, r0
   817d4:	4a17      	ldr	r2, [pc, #92]	; (81834 <igncalc_dwell_degree+0x70>)
   817d6:	fb82 3200 	smull	r3, r2, r2, r0
   817da:	17c3      	asrs	r3, r0, #31
   817dc:	ebc3 1362 	rsb	r3, r3, r2, asr #5
   817e0:	b29b      	uxth	r3, r3
	if ((totalDwellms > (engine_config4.DwellLimit * 10)) && engine_config4.DwellLimitEnable)
   817e2:	7fca      	ldrb	r2, [r1, #31]
   817e4:	eb02 0282 	add.w	r2, r2, r2, lsl #2
   817e8:	ebb3 0f42 	cmp.w	r3, r2, lsl #1
   817ec:	dd07      	ble.n	817fe <igncalc_dwell_degree+0x3a>
   817ee:	7b0a      	ldrb	r2, [r1, #12]
   817f0:	f012 0f02 	tst.w	r2, #2
   817f4:	d003      	beq.n	817fe <igncalc_dwell_degree+0x3a>
		totalDwellms = engine_config4.DwellLimit * 10;
   817f6:	7fcb      	ldrb	r3, [r1, #31]
   817f8:	eb03 0383 	add.w	r3, r3, r3, lsl #2
   817fc:	005b      	lsls	r3, r3, #1
	engine_realtime.Dwell = totalDwellms;
   817fe:	b2d9      	uxtb	r1, r3
   81800:	4a0d      	ldr	r2, [pc, #52]	; (81838 <igncalc_dwell_degree+0x74>)
   81802:	70d1      	strb	r1, [r2, #3]
	return (3600*temp2)/LastCrankRevCounts;
   81804:	4a0d      	ldr	r2, [pc, #52]	; (8183c <igncalc_dwell_degree+0x78>)
   81806:	6810      	ldr	r0, [r2, #0]
	uint32_t temp2 = ((GLOBAL_TIMER_FREQ/1000)*totalDwellms)/10;
   81808:	f640 2241 	movw	r2, #2625	; 0xa41
   8180c:	fb02 f303 	mul.w	r3, r2, r3
   81810:	4a0b      	ldr	r2, [pc, #44]	; (81840 <igncalc_dwell_degree+0x7c>)
   81812:	fb82 1203 	smull	r1, r2, r2, r3
   81816:	17db      	asrs	r3, r3, #31
   81818:	ebc3 03a2 	rsb	r3, r3, r2, asr #2
	return (3600*temp2)/LastCrankRevCounts;
   8181c:	f44f 6261 	mov.w	r2, #3600	; 0xe10
   81820:	fb02 f303 	mul.w	r3, r2, r3
}
   81824:	fbb3 f0f0 	udiv	r0, r3, r0
   81828:	bd08      	pop	{r3, pc}
   8182a:	bf00      	nop
   8182c:	00081799 	.word	0x00081799
   81830:	20071174 	.word	0x20071174
   81834:	51eb851f 	.word	0x51eb851f
   81838:	200715b8 	.word	0x200715b8
   8183c:	200709dc 	.word	0x200709dc
   81840:	66666667 	.word	0x66666667

00081844 <igncalc_dwell_pulsewidth>:
{
   81844:	b508      	push	{r3, lr}
	uint16_t correction = igncalc_dwell_correction(); // 0 - 1000 represents 0 - 100.0%
   81846:	4b10      	ldr	r3, [pc, #64]	; (81888 <igncalc_dwell_pulsewidth+0x44>)
   81848:	4798      	blx	r3
	if (engine_realtime.Rpm < engine_config2.CrankingRpm)
   8184a:	4b10      	ldr	r3, [pc, #64]	; (8188c <igncalc_dwell_pulsewidth+0x48>)
   8184c:	89db      	ldrh	r3, [r3, #14]
   8184e:	b29b      	uxth	r3, r3
   81850:	4a0f      	ldr	r2, [pc, #60]	; (81890 <igncalc_dwell_pulsewidth+0x4c>)
   81852:	7dd2      	ldrb	r2, [r2, #23]
   81854:	4293      	cmp	r3, r2
		TotalDwellus = (engine_config4.DwellTimeCranking * correction); // return hundred of nanoseconds 
   81856:	4b0f      	ldr	r3, [pc, #60]	; (81894 <igncalc_dwell_pulsewidth+0x50>)
   81858:	bf34      	ite	cc
   8185a:	7b5b      	ldrbcc	r3, [r3, #13]
		TotalDwellus = (engine_config4.DwellTimeRunning * correction); // return hundred of nanoseconds
   8185c:	7b9b      	ldrbcs	r3, [r3, #14]
   8185e:	fb03 f000 	mul.w	r0, r3, r0
	if (engine_config4.DwellLimitEnable && (TotalDwellus > IgnitionDwellLimit))
   81862:	4b0c      	ldr	r3, [pc, #48]	; (81894 <igncalc_dwell_pulsewidth+0x50>)
   81864:	7b1b      	ldrb	r3, [r3, #12]
   81866:	f013 0f02 	tst.w	r3, #2
   8186a:	d005      	beq.n	81878 <igncalc_dwell_pulsewidth+0x34>
   8186c:	4b0a      	ldr	r3, [pc, #40]	; (81898 <igncalc_dwell_pulsewidth+0x54>)
   8186e:	681b      	ldr	r3, [r3, #0]
   81870:	4298      	cmp	r0, r3
		TotalDwellus = IgnitionDwellLimit;
   81872:	bf84      	itt	hi
   81874:	4b08      	ldrhi	r3, [pc, #32]	; (81898 <igncalc_dwell_pulsewidth+0x54>)
   81876:	6818      	ldrhi	r0, [r3, #0]
	engine_realtime.Dwell = TotalDwellus/1000;
   81878:	4b08      	ldr	r3, [pc, #32]	; (8189c <igncalc_dwell_pulsewidth+0x58>)
   8187a:	fba3 2300 	umull	r2, r3, r3, r0
   8187e:	f3c3 1387 	ubfx	r3, r3, #6, #8
   81882:	4a02      	ldr	r2, [pc, #8]	; (8188c <igncalc_dwell_pulsewidth+0x48>)
   81884:	70d3      	strb	r3, [r2, #3]
}
   81886:	bd08      	pop	{r3, pc}
   81888:	00081799 	.word	0x00081799
   8188c:	200715b8 	.word	0x200715b8
   81890:	20071128 	.word	0x20071128
   81894:	20071174 	.word	0x20071174
   81898:	20071ad0 	.word	0x20071ad0
   8189c:	10624dd3 	.word	0x10624dd3

000818a0 <interrupts_enable_interrupt_vector>:

#include "interrupts.h"

/* Initialize nested vector interrupts */
void interrupts_enable_interrupt_vector(uint32_t IRQN, uint32_t Priority)
{
   818a0:	b410      	push	{r4}
	NVIC_DisableIRQ(IRQN);
   818a2:	b242      	sxtb	r2, r0

    \param [in]      IRQn  External interrupt number. Value cannot be negative.
 */
__STATIC_INLINE void NVIC_DisableIRQ(IRQn_Type IRQn)
{
  NVIC->ICER[((uint32_t)(IRQn) >> 5)] = (1 << ((uint32_t)(IRQn) & 0x1F)); /* disable interrupt */
   818a4:	b2c0      	uxtb	r0, r0
   818a6:	f000 031f 	and.w	r3, r0, #31
   818aa:	2401      	movs	r4, #1
   818ac:	409c      	lsls	r4, r3
   818ae:	0953      	lsrs	r3, r2, #5
   818b0:	009b      	lsls	r3, r3, #2
   818b2:	f103 4360 	add.w	r3, r3, #3758096384	; 0xe0000000
   818b6:	f503 4361 	add.w	r3, r3, #57600	; 0xe100
   818ba:	f8c3 4080 	str.w	r4, [r3, #128]	; 0x80

    \param [in]      IRQn  External interrupt number. Value cannot be negative.
 */
__STATIC_INLINE void NVIC_ClearPendingIRQ(IRQn_Type IRQn)
{
  NVIC->ICPR[((uint32_t)(IRQn) >> 5)] = (1 << ((uint32_t)(IRQn) & 0x1F)); /* Clear pending interrupt */
   818be:	f8c3 4180 	str.w	r4, [r3, #384]	; 0x180
    \param [in]      IRQn  Interrupt number.
    \param [in]  priority  Priority to set.
 */
__STATIC_INLINE void NVIC_SetPriority(IRQn_Type IRQn, uint32_t priority)
{
  if(IRQn < 0) {
   818c2:	2a00      	cmp	r2, #0
   818c4:	db0a      	blt.n	818dc <interrupts_enable_interrupt_vector+0x3c>
    SCB->SHP[((uint32_t)(IRQn) & 0xF)-4] = ((priority << (8 - __NVIC_PRIO_BITS)) & 0xff); } /* set Priority for Cortex-M  System Interrupts */
  else {
    NVIC->IP[(uint32_t)(IRQn)] = ((priority << (8 - __NVIC_PRIO_BITS)) & 0xff);    }        /* set Priority for device specific Interrupts  */
   818c6:	0109      	lsls	r1, r1, #4
   818c8:	b2c9      	uxtb	r1, r1
   818ca:	f102 4260 	add.w	r2, r2, #3758096384	; 0xe0000000
   818ce:	f502 4261 	add.w	r2, r2, #57600	; 0xe100
   818d2:	f882 1300 	strb.w	r1, [r2, #768]	; 0x300
  NVIC->ISER[((uint32_t)(IRQn) >> 5)] = (1 << ((uint32_t)(IRQn) & 0x1F)); /* enable interrupt */
   818d6:	601c      	str	r4, [r3, #0]
	NVIC_ClearPendingIRQ(IRQN);
	NVIC_SetPriority(IRQN, Priority); 
	NVIC_EnableIRQ(IRQN);
}
   818d8:	bc10      	pop	{r4}
   818da:	4770      	bx	lr
    SCB->SHP[((uint32_t)(IRQn) & 0xF)-4] = ((priority << (8 - __NVIC_PRIO_BITS)) & 0xff); } /* set Priority for Cortex-M  System Interrupts */
   818dc:	f000 000f 	and.w	r0, r0, #15
   818e0:	0109      	lsls	r1, r1, #4
   818e2:	b2c9      	uxtb	r1, r1
   818e4:	4a01      	ldr	r2, [pc, #4]	; (818ec <interrupts_enable_interrupt_vector+0x4c>)
   818e6:	5411      	strb	r1, [r2, r0]
   818e8:	e7f5      	b.n	818d6 <interrupts_enable_interrupt_vector+0x36>
   818ea:	bf00      	nop
   818ec:	e000ed14 	.word	0xe000ed14

000818f0 <interrupts_enable_pio>:


void interrupts_enable_pio(uint32_t PeripheralID, uint32_t Pin, uint32_t Priority, uint8_t Mode)
{
   818f0:	b570      	push	{r4, r5, r6, lr}
	// Check if the programmer is legit
	if (PeripheralID < ID_PIOA || PeripheralID > ID_PIOD)	// PIOD is the last register in SAM3x8e
   818f2:	f1a0 040b 	sub.w	r4, r0, #11
   818f6:	2c03      	cmp	r4, #3
   818f8:	d82a      	bhi.n	81950 <interrupts_enable_pio+0x60>
		return;
	
	// Enable interrupt registers 
	PMC->PMC_PCER0	=	(1 << PeripheralID);				// Enable the peripheral clock for port A
   818fa:	2401      	movs	r4, #1
   818fc:	4084      	lsls	r4, r0
   818fe:	4d15      	ldr	r5, [pc, #84]	; (81954 <interrupts_enable_pio+0x64>)
   81900:	612c      	str	r4, [r5, #16]
	
	// Choose the correct peripheral controller
	Pio *CurrentPio;
	switch (PeripheralID)
   81902:	f1a0 040b 	sub.w	r4, r0, #11
   81906:	2c03      	cmp	r4, #3
   81908:	d804      	bhi.n	81914 <interrupts_enable_pio+0x24>
   8190a:	e8df f004 	tbb	[pc, r4]
   8190e:	0e02      	.short	0x0e02
   81910:	1210      	.short	0x1210
	{
		case ID_PIOA:
			CurrentPio = PIOA;
   81912:	4e11      	ldr	r6, [pc, #68]	; (81958 <interrupts_enable_pio+0x68>)
   81914:	461d      	mov	r5, r3
   81916:	460c      	mov	r4, r1
			CurrentPio = PIOD;
			break;
		default: // SHOULD NEVER HAPPEN, because of if function above
			break;
	}
	CurrentPio->PIO_IER	=	Pin;										// Enable the interrupt register on the configured pin
   81918:	6431      	str	r1, [r6, #64]	; 0x40
	interrupts_enable_interrupt_vector(PeripheralID, Priority);		// Enable nested interrupt vector and set priority for the configured controller
   8191a:	4611      	mov	r1, r2
   8191c:	4b0f      	ldr	r3, [pc, #60]	; (8195c <interrupts_enable_pio+0x6c>)
   8191e:	4798      	blx	r3
	
	// Select the interrupt mode, if the programmer is stupid the default mode will be pin change
	switch (Mode)
   81920:	2d01      	cmp	r5, #1
   81922:	d008      	beq.n	81936 <interrupts_enable_pio+0x46>
   81924:	2d02      	cmp	r5, #2
   81926:	d00d      	beq.n	81944 <interrupts_enable_pio+0x54>
   81928:	bd70      	pop	{r4, r5, r6, pc}
			CurrentPio = PIOB;
   8192a:	4e0d      	ldr	r6, [pc, #52]	; (81960 <interrupts_enable_pio+0x70>)
			break;
   8192c:	e7f2      	b.n	81914 <interrupts_enable_pio+0x24>
			CurrentPio = PIOC;
   8192e:	4e0d      	ldr	r6, [pc, #52]	; (81964 <interrupts_enable_pio+0x74>)
			break;
   81930:	e7f0      	b.n	81914 <interrupts_enable_pio+0x24>
			CurrentPio = PIOD;
   81932:	4e0d      	ldr	r6, [pc, #52]	; (81968 <interrupts_enable_pio+0x78>)
			break;
   81934:	e7ee      	b.n	81914 <interrupts_enable_pio+0x24>
	{
		case INTERRUPT_PIN_CHANGE_MODE:
			break; // No need to configure anything else, just for show
		case INTERRUPT_RISING_EDGE_MODE:
			CurrentPio->PIO_AIMER		=	Pin;				// Enable additional interrupt modes
   81936:	f8c6 40b0 	str.w	r4, [r6, #176]	; 0xb0
			CurrentPio->PIO_ESR			=	Pin;				// Select edge detection
   8193a:	f8c6 40c0 	str.w	r4, [r6, #192]	; 0xc0
			CurrentPio->PIO_REHLSR		=	Pin;				// Select rising edge detection
   8193e:	f8c6 40d4 	str.w	r4, [r6, #212]	; 0xd4
			break;
   81942:	bd70      	pop	{r4, r5, r6, pc}
		case INTERRUPT_FALLING_EDGE_MODE:
			CurrentPio->PIO_AIMER		=	Pin;				// Enable additional interrupt modes
   81944:	f8c6 40b0 	str.w	r4, [r6, #176]	; 0xb0
			CurrentPio->PIO_ESR			=	Pin;				// Select edge detection
   81948:	f8c6 40c0 	str.w	r4, [r6, #192]	; 0xc0
			CurrentPio->PIO_FELLSR		=	Pin;				// Select falling edge detection
   8194c:	f8c6 40d0 	str.w	r4, [r6, #208]	; 0xd0
   81950:	bd70      	pop	{r4, r5, r6, pc}
   81952:	bf00      	nop
   81954:	400e0600 	.word	0x400e0600
   81958:	400e0e00 	.word	0x400e0e00
   8195c:	000818a1 	.word	0x000818a1
   81960:	400e1000 	.word	0x400e1000
   81964:	400e1200 	.word	0x400e1200
   81968:	400e1400 	.word	0x400e1400

0008196c <interrupts_check_timer_for_inj_or_ign>:
	
	PIOAHandlerTimeInCounts = TC2->TC_CHANNEL[2].TC_CV - TimerCounterValue; 
}

void interrupts_check_timer_for_inj_or_ign(struct cylinder_output_manager *Inj_or_Ign, struct cylinder_ *Cyl)
{
   8196c:	b510      	push	{r4, lr}
	if (Inj_or_Ign->ToothOn == CrankToothCounter) 
   8196e:	4b16      	ldr	r3, [pc, #88]	; (819c8 <interrupts_check_timer_for_inj_or_ign+0x5c>)
   81970:	681b      	ldr	r3, [r3, #0]
   81972:	6882      	ldr	r2, [r0, #8]
   81974:	429a      	cmp	r2, r3
   81976:	d007      	beq.n	81988 <interrupts_check_timer_for_inj_or_ign+0x1c>
		{
			Inj_or_Ign->EventPending = TRUE;
			*(Inj_or_Ign->TcCompareRegister) = math_sum_with_overflow_protection(Cyl->Tc_channel->TC_CV, Inj_or_Ign->CntTimingOn);
		}
	}
	else if (!Inj_or_Ign->EventOnSameTooth && (Inj_or_Ign->ToothOff == CrankToothCounter))
   81978:	7c43      	ldrb	r3, [r0, #17]
   8197a:	b923      	cbnz	r3, 81986 <interrupts_check_timer_for_inj_or_ign+0x1a>
   8197c:	4b12      	ldr	r3, [pc, #72]	; (819c8 <interrupts_check_timer_for_inj_or_ign+0x5c>)
   8197e:	681b      	ldr	r3, [r3, #0]
   81980:	68c2      	ldr	r2, [r0, #12]
   81982:	429a      	cmp	r2, r3
   81984:	d011      	beq.n	819aa <interrupts_check_timer_for_inj_or_ign+0x3e>
   81986:	bd10      	pop	{r4, pc}
		if (Inj_or_Ign->CntTimingOn < PIOA_HANDLER_TIME_IN_COUNTS) // The interrupt vector does not react when a value is stored in compare register which has been reached in the end of this function/handler
   81988:	6803      	ldr	r3, [r0, #0]
   8198a:	2b1d      	cmp	r3, #29
   8198c:	d803      	bhi.n	81996 <interrupts_check_timer_for_inj_or_ign+0x2a>
			Inj_or_Ign->pio->PIO_CODR = Inj_or_Ign->OutputPin;			// Sets pin to high
   8198e:	6983      	ldr	r3, [r0, #24]
   81990:	6942      	ldr	r2, [r0, #20]
   81992:	635a      	str	r2, [r3, #52]	; 0x34
   81994:	bd10      	pop	{r4, pc}
			Inj_or_Ign->EventPending = TRUE;
   81996:	2201      	movs	r2, #1
   81998:	7402      	strb	r2, [r0, #16]
			*(Inj_or_Ign->TcCompareRegister) = math_sum_with_overflow_protection(Cyl->Tc_channel->TC_CV, Inj_or_Ign->CntTimingOn);
   8199a:	69c4      	ldr	r4, [r0, #28]
   8199c:	6c0a      	ldr	r2, [r1, #64]	; 0x40
   8199e:	6910      	ldr	r0, [r2, #16]
   819a0:	4619      	mov	r1, r3
   819a2:	4b0a      	ldr	r3, [pc, #40]	; (819cc <interrupts_check_timer_for_inj_or_ign+0x60>)
   819a4:	4798      	blx	r3
   819a6:	6020      	str	r0, [r4, #0]
   819a8:	bd10      	pop	{r4, pc}
	{
		if (Inj_or_Ign->CntTimingOff < PIOA_HANDLER_TIME_IN_COUNTS) // The interrupt vector does not react when a value is stored in compare register which has been reached in the end of this function/handler
   819aa:	6843      	ldr	r3, [r0, #4]
   819ac:	2b1d      	cmp	r3, #29
   819ae:	d803      	bhi.n	819b8 <interrupts_check_timer_for_inj_or_ign+0x4c>
		{
			Inj_or_Ign->pio->PIO_SODR = Inj_or_Ign->OutputPin;			// Sets pin to low
   819b0:	6983      	ldr	r3, [r0, #24]
   819b2:	6942      	ldr	r2, [r0, #20]
   819b4:	631a      	str	r2, [r3, #48]	; 0x30
   819b6:	bd10      	pop	{r4, pc}
			//debug_cylinder[i].InjRealTimeTurnOffCount = Cyl->Tc_channel->TC_CV;
		}
		else
		{
			*(Inj_or_Ign->TcCompareRegister) = math_sum_with_overflow_protection(Cyl->Tc_channel->TC_CV, Inj_or_Ign->CntTimingOff);
   819b8:	69c4      	ldr	r4, [r0, #28]
   819ba:	6c0a      	ldr	r2, [r1, #64]	; 0x40
   819bc:	6910      	ldr	r0, [r2, #16]
   819be:	4619      	mov	r1, r3
   819c0:	4b02      	ldr	r3, [pc, #8]	; (819cc <interrupts_check_timer_for_inj_or_ign+0x60>)
   819c2:	4798      	blx	r3
   819c4:	6020      	str	r0, [r4, #0]
		}
	}
   819c6:	e7de      	b.n	81986 <interrupts_check_timer_for_inj_or_ign+0x1a>
   819c8:	20071f80 	.word	0x20071f80
   819cc:	00081d69 	.word	0x00081d69

000819d0 <PIOA_Handler>:
{
   819d0:	e92d 47f0 	stmdb	sp!, {r4, r5, r6, r7, r8, r9, sl, lr}
	uint32_t TimerCounterValue	=		TC2->TC_CHANNEL[2].TC_CV;
   819d4:	4b2e      	ldr	r3, [pc, #184]	; (81a90 <PIOA_Handler+0xc0>)
   819d6:	f8d3 8090 	ldr.w	r8, [r3, #144]	; 0x90
	uint32_t status_register	=		PIOA->PIO_ISR;
   819da:	f503 23b1 	add.w	r3, r3, #362496	; 0x58800
   819de:	f503 63c0 	add.w	r3, r3, #1536	; 0x600
   819e2:	f8d3 904c 	ldr.w	r9, [r3, #76]	; 0x4c
	if (status_register & CRANK_SIGNAL)
   819e6:	f019 0f80 	tst.w	r9, #128	; 0x80
   819ea:	d039      	beq.n	81a60 <PIOA_Handler+0x90>
		CrankPrevCycleCounts	=		CrankCurrCycleCounts;
   819ec:	4b29      	ldr	r3, [pc, #164]	; (81a94 <PIOA_Handler+0xc4>)
   819ee:	6819      	ldr	r1, [r3, #0]
   819f0:	4a29      	ldr	r2, [pc, #164]	; (81a98 <PIOA_Handler+0xc8>)
   819f2:	6011      	str	r1, [r2, #0]
		CrankCurrCycleCounts	=		TimerCounterValue - CrankTimerCounts;
   819f4:	4929      	ldr	r1, [pc, #164]	; (81a9c <PIOA_Handler+0xcc>)
   819f6:	680a      	ldr	r2, [r1, #0]
   819f8:	eba8 0202 	sub.w	r2, r8, r2
   819fc:	601a      	str	r2, [r3, #0]
		CrankTimerCounts		=		TimerCounterValue;
   819fe:	f8c1 8000 	str.w	r8, [r1]
		CrankRevCounts			+=		CrankCurrCycleCounts;
   81a02:	681b      	ldr	r3, [r3, #0]
   81a04:	4a26      	ldr	r2, [pc, #152]	; (81aa0 <PIOA_Handler+0xd0>)
   81a06:	6811      	ldr	r1, [r2, #0]
   81a08:	440b      	add	r3, r1
   81a0a:	6013      	str	r3, [r2, #0]
		CrankTooth++;
   81a0c:	4a25      	ldr	r2, [pc, #148]	; (81aa4 <PIOA_Handler+0xd4>)
   81a0e:	7813      	ldrb	r3, [r2, #0]
   81a10:	3301      	adds	r3, #1
   81a12:	b2db      	uxtb	r3, r3
   81a14:	7013      	strb	r3, [r2, #0]
		CrankToothCounter++;
   81a16:	4a24      	ldr	r2, [pc, #144]	; (81aa8 <PIOA_Handler+0xd8>)
   81a18:	6813      	ldr	r3, [r2, #0]
   81a1a:	3301      	adds	r3, #1
   81a1c:	6013      	str	r3, [r2, #0]
		CrankSignalFlag			=		TRUE;
   81a1e:	2201      	movs	r2, #1
   81a20:	4b22      	ldr	r3, [pc, #136]	; (81aac <PIOA_Handler+0xdc>)
   81a22:	701a      	strb	r2, [r3, #0]
		for (uint8_t i = 0; i < engine_config2.NrCylinders; i++)
   81a24:	4b22      	ldr	r3, [pc, #136]	; (81ab0 <PIOA_Handler+0xe0>)
   81a26:	f893 3036 	ldrb.w	r3, [r3, #54]	; 0x36
   81a2a:	091b      	lsrs	r3, r3, #4
   81a2c:	d018      	beq.n	81a60 <PIOA_Handler+0x90>
   81a2e:	2000      	movs	r0, #0
   81a30:	4604      	mov	r4, r0
			interrupts_check_timer_for_inj_or_ign(&cylinder[i].Inj, &cylinder[i]);
   81a32:	4e20      	ldr	r6, [pc, #128]	; (81ab4 <PIOA_Handler+0xe4>)
   81a34:	4d20      	ldr	r5, [pc, #128]	; (81ab8 <PIOA_Handler+0xe8>)
		for (uint8_t i = 0; i < engine_config2.NrCylinders; i++)
   81a36:	4f1e      	ldr	r7, [pc, #120]	; (81ab0 <PIOA_Handler+0xe0>)
   81a38:	eb00 1000 	add.w	r0, r0, r0, lsl #4
   81a3c:	0080      	lsls	r0, r0, #2
			interrupts_check_timer_for_inj_or_ign(&cylinder[i].Inj, &cylinder[i]);
   81a3e:	eb00 0a06 	add.w	sl, r0, r6
   81a42:	3020      	adds	r0, #32
   81a44:	4651      	mov	r1, sl
   81a46:	4430      	add	r0, r6
   81a48:	47a8      	blx	r5
			interrupts_check_timer_for_inj_or_ign(&cylinder[i].Ign, &cylinder[i]);
   81a4a:	4651      	mov	r1, sl
   81a4c:	4650      	mov	r0, sl
   81a4e:	47a8      	blx	r5
		for (uint8_t i = 0; i < engine_config2.NrCylinders; i++)
   81a50:	3401      	adds	r4, #1
   81a52:	b2e4      	uxtb	r4, r4
   81a54:	4620      	mov	r0, r4
   81a56:	f897 3036 	ldrb.w	r3, [r7, #54]	; 0x36
   81a5a:	ebb4 1f13 	cmp.w	r4, r3, lsr #4
   81a5e:	dbeb      	blt.n	81a38 <PIOA_Handler+0x68>
	if (status_register & CAM_SIGNAL)
   81a60:	f419 4f00 	tst.w	r9, #32768	; 0x8000
   81a64:	d00a      	beq.n	81a7c <PIOA_Handler+0xac>
		CamCurrCycleCounts		=		TimerCounterValue - CamTimerCounts;
   81a66:	4a15      	ldr	r2, [pc, #84]	; (81abc <PIOA_Handler+0xec>)
   81a68:	6813      	ldr	r3, [r2, #0]
   81a6a:	eba8 0303 	sub.w	r3, r8, r3
   81a6e:	4914      	ldr	r1, [pc, #80]	; (81ac0 <PIOA_Handler+0xf0>)
   81a70:	600b      	str	r3, [r1, #0]
		CamTimerCounts			=		TimerCounterValue;
   81a72:	f8c2 8000 	str.w	r8, [r2]
		CamSignalFlag			=		TRUE;
   81a76:	2201      	movs	r2, #1
   81a78:	4b12      	ldr	r3, [pc, #72]	; (81ac4 <PIOA_Handler+0xf4>)
   81a7a:	701a      	strb	r2, [r3, #0]
	PIOAHandlerTimeInCounts = TC2->TC_CHANNEL[2].TC_CV - TimerCounterValue; 
   81a7c:	4b04      	ldr	r3, [pc, #16]	; (81a90 <PIOA_Handler+0xc0>)
   81a7e:	f8d3 3090 	ldr.w	r3, [r3, #144]	; 0x90
   81a82:	eba3 0308 	sub.w	r3, r3, r8
   81a86:	4a10      	ldr	r2, [pc, #64]	; (81ac8 <PIOA_Handler+0xf8>)
   81a88:	6013      	str	r3, [r2, #0]
   81a8a:	e8bd 87f0 	ldmia.w	sp!, {r4, r5, r6, r7, r8, r9, sl, pc}
   81a8e:	bf00      	nop
   81a90:	40088000 	.word	0x40088000
   81a94:	20070a30 	.word	0x20070a30
   81a98:	20072438 	.word	0x20072438
   81a9c:	200709cc 	.word	0x200709cc
   81aa0:	200709e4 	.word	0x200709e4
   81aa4:	20072391 	.word	0x20072391
   81aa8:	20071f80 	.word	0x20071f80
   81aac:	20072444 	.word	0x20072444
   81ab0:	20071128 	.word	0x20071128
   81ab4:	20070e38 	.word	0x20070e38
   81ab8:	0008196d 	.word	0x0008196d
   81abc:	200715dc 	.word	0x200715dc
   81ac0:	200709d4 	.word	0x200709d4
   81ac4:	20071f7c 	.word	0x20071f7c
   81ac8:	20071f5c 	.word	0x20071f5c

00081acc <math_map_adc>:

#include "math.h"

uint32_t math_map_adc(uint16_t min, uint16_t max, uint16_t value)
{
	return ((value * max) >> ADC_RESOLUTION) + min;
   81acc:	fb01 f202 	mul.w	r2, r1, r2
}
   81ad0:	eb00 20a2 	add.w	r0, r0, r2, asr #10
   81ad4:	4770      	bx	lr

00081ad6 <math_map>:
uint32_t math_map(uint16_t min, uint16_t max, int16_t value, uint16_t div)
{
	if (value < 0)
   81ad6:	2a00      	cmp	r2, #0
		return 0;
	return ((value * max) / div) + min;
   81ad8:	bfa3      	ittte	ge
   81ada:	4351      	mulge	r1, r2
   81adc:	fb91 f3f3 	sdivge	r3, r1, r3
   81ae0:	18c0      	addge	r0, r0, r3
   81ae2:	2000      	movlt	r0, #0
}
   81ae4:	4770      	bx	lr
	...

00081ae8 <math_find_median>:

// ATTENTION this will not work if the vector is not 16 bit, not sure how to make it global size since it is a pointer
uint16_t math_find_median(uint16_t * Vector, uint16_t VectorLength)
{
   81ae8:	e92d 47f0 	stmdb	sp!, {r4, r5, r6, r7, r8, r9, sl, lr}
   81aec:	af00      	add	r7, sp, #0
	uint16_t TempVector[VectorLength];
   81aee:	004b      	lsls	r3, r1, #1
   81af0:	3308      	adds	r3, #8
   81af2:	f023 0307 	bic.w	r3, r3, #7
   81af6:	ebad 0d03 	sub.w	sp, sp, r3
   81afa:	46e8      	mov	r8, sp
	// Copy vector so we won't change him (copy constructor)
	for (uint16_t i = 0; i < VectorLength; i++)
   81afc:	b3d9      	cbz	r1, 81b76 <math_find_median+0x8e>
   81afe:	1e83      	subs	r3, r0, #2
   81b00:	f1ad 0202 	sub.w	r2, sp, #2
   81b04:	1e4c      	subs	r4, r1, #1
   81b06:	b2a4      	uxth	r4, r4
   81b08:	eb00 0444 	add.w	r4, r0, r4, lsl #1
	{
		TempVector[i] = Vector[i];
   81b0c:	f833 0f02 	ldrh.w	r0, [r3, #2]!
   81b10:	f822 0f02 	strh.w	r0, [r2, #2]!
	for (uint16_t i = 0; i < VectorLength; i++)
   81b14:	42a3      	cmp	r3, r4
   81b16:	d1f9      	bne.n	81b0c <math_find_median+0x24>
		//uart_print_string("her "); uart_print_int(Vector[i]); uart_new_line();
	}
	// Insertion sort
	for (uint16_t i = 1; i < VectorLength; i++)
   81b18:	2901      	cmp	r1, #1
   81b1a:	d92c      	bls.n	81b76 <math_find_median+0x8e>
   81b1c:	46c4      	mov	ip, r8
   81b1e:	46c2      	mov	sl, r8
   81b20:	f04f 0901 	mov.w	r9, #1
   81b24:	e007      	b.n	81b36 <math_find_median+0x4e>
   81b26:	f109 0901 	add.w	r9, r9, #1
   81b2a:	f10a 0a02 	add.w	sl, sl, #2
   81b2e:	fa1f f389 	uxth.w	r3, r9
   81b32:	4299      	cmp	r1, r3
   81b34:	d91f      	bls.n	81b76 <math_find_median+0x8e>
	{
		uint16_t j = i;
		while (j > 0 && TempVector[j] < TempVector[j-1])
   81b36:	fa1f f389 	uxth.w	r3, r9
   81b3a:	2b00      	cmp	r3, #0
   81b3c:	d0f3      	beq.n	81b26 <math_find_median+0x3e>
   81b3e:	46ce      	mov	lr, r9
   81b40:	f8ba 4002 	ldrh.w	r4, [sl, #2]
   81b44:	f109 36ff 	add.w	r6, r9, #4294967295
   81b48:	f8ba 5000 	ldrh.w	r5, [sl]
   81b4c:	42ac      	cmp	r4, r5
   81b4e:	d2ea      	bcs.n	81b26 <math_find_median+0x3e>
   81b50:	f1a9 0202 	sub.w	r2, r9, #2
   81b54:	4653      	mov	r3, sl
		{
			uint16_t temp = TempVector[j];
			TempVector[j] = TempVector[j-1];
   81b56:	f828 501e 	strh.w	r5, [r8, lr, lsl #1]
			TempVector[j-1] = temp;
   81b5a:	f828 4016 	strh.w	r4, [r8, r6, lsl #1]
		while (j > 0 && TempVector[j] < TempVector[j-1])
   81b5e:	4563      	cmp	r3, ip
   81b60:	d0e1      	beq.n	81b26 <math_find_median+0x3e>
   81b62:	f102 0e01 	add.w	lr, r2, #1
   81b66:	881c      	ldrh	r4, [r3, #0]
   81b68:	4616      	mov	r6, r2
   81b6a:	f833 5d02 	ldrh.w	r5, [r3, #-2]!
   81b6e:	3a01      	subs	r2, #1
   81b70:	42ac      	cmp	r4, r5
   81b72:	d3f0      	bcc.n	81b56 <math_find_median+0x6e>
   81b74:	e7d7      	b.n	81b26 <math_find_median+0x3e>
			j--;
		}
	}
	// Return median
	return TempVector[(uint16_t)((VectorLength * 1.0 + 0.5) / 2.0)];
   81b76:	4608      	mov	r0, r1
   81b78:	4b08      	ldr	r3, [pc, #32]	; (81b9c <math_find_median+0xb4>)
   81b7a:	4798      	blx	r3
   81b7c:	2200      	movs	r2, #0
   81b7e:	4b08      	ldr	r3, [pc, #32]	; (81ba0 <math_find_median+0xb8>)
   81b80:	4c08      	ldr	r4, [pc, #32]	; (81ba4 <math_find_median+0xbc>)
   81b82:	47a0      	blx	r4
   81b84:	2200      	movs	r2, #0
   81b86:	4b06      	ldr	r3, [pc, #24]	; (81ba0 <math_find_median+0xb8>)
   81b88:	4c07      	ldr	r4, [pc, #28]	; (81ba8 <math_find_median+0xc0>)
   81b8a:	47a0      	blx	r4
   81b8c:	4b07      	ldr	r3, [pc, #28]	; (81bac <math_find_median+0xc4>)
   81b8e:	4798      	blx	r3
   81b90:	b280      	uxth	r0, r0
}
   81b92:	f838 0010 	ldrh.w	r0, [r8, r0, lsl #1]
   81b96:	46bd      	mov	sp, r7
   81b98:	e8bd 87f0 	ldmia.w	sp!, {r4, r5, r6, r7, r8, r9, sl, pc}
   81b9c:	00083249 	.word	0x00083249
   81ba0:	3fe00000 	.word	0x3fe00000
   81ba4:	00082fb1 	.word	0x00082fb1
   81ba8:	00083315 	.word	0x00083315
   81bac:	00083739 	.word	0x00083739

00081bb0 <math_find_interpolation_index>:
	uint16_t calc2 = (uint32_t)Calculate[IndexHigh] * (Weight);
	return (calc1 + calc2) / Scaler;
}

void math_find_interpolation_index(uint8_t * Vector, uint16_t Value, uint8_t * Low, uint8_t * High, uint16_t Scaler, uint8_t Len)
{
   81bb0:	b4f0      	push	{r4, r5, r6, r7}
   81bb2:	f8bd 7010 	ldrh.w	r7, [sp, #16]
   81bb6:	f89d 6014 	ldrb.w	r6, [sp, #20]
	for (uint8_t Index = 0; Index < Len; Index++)
   81bba:	b1a6      	cbz	r6, 81be6 <math_find_interpolation_index+0x36>
   81bbc:	3801      	subs	r0, #1
   81bbe:	2500      	movs	r5, #0
   81bc0:	e007      	b.n	81bd2 <math_find_interpolation_index+0x22>
		uint16_t Temp = Vector[Index] * Scaler;
		
		if (Value > Temp) {
			*Low = Index;
		} 
		else if (Value < Temp) {
   81bc2:	428c      	cmp	r4, r1
   81bc4:	d80e      	bhi.n	81be4 <math_find_interpolation_index+0x34>
			*High = Index;
			break;
		} 
		else if (Value == Temp) {
   81bc6:	428c      	cmp	r4, r1
   81bc8:	d00f      	beq.n	81bea <math_find_interpolation_index+0x3a>
	for (uint8_t Index = 0; Index < Len; Index++)
   81bca:	3501      	adds	r5, #1
   81bcc:	b2ed      	uxtb	r5, r5
   81bce:	42ae      	cmp	r6, r5
   81bd0:	d009      	beq.n	81be6 <math_find_interpolation_index+0x36>
		uint16_t Temp = Vector[Index] * Scaler;
   81bd2:	f810 4f01 	ldrb.w	r4, [r0, #1]!
   81bd6:	fb04 f407 	mul.w	r4, r4, r7
   81bda:	b2a4      	uxth	r4, r4
		if (Value > Temp) {
   81bdc:	428c      	cmp	r4, r1
   81bde:	d2f0      	bcs.n	81bc2 <math_find_interpolation_index+0x12>
			*Low = Index;
   81be0:	7015      	strb	r5, [r2, #0]
   81be2:	e7f2      	b.n	81bca <math_find_interpolation_index+0x1a>
			*High = Index;
   81be4:	701d      	strb	r5, [r3, #0]
			*Low = Index;
			*High = Index;
			break;
		}
	}
}
   81be6:	bcf0      	pop	{r4, r5, r6, r7}
   81be8:	4770      	bx	lr
			*Low = Index;
   81bea:	7015      	strb	r5, [r2, #0]
			*High = Index;
   81bec:	701d      	strb	r5, [r3, #0]
			break;
   81bee:	e7fa      	b.n	81be6 <math_find_interpolation_index+0x36>

00081bf0 <math_interpolation>:


// Calculate the weight of the value compared to indexes x1 and x2
uint8_t math_interpolation(uint16_t value, uint16_t x1, uint16_t x2)
{
	if (value <= x1) // below or equal to lower bound
   81bf0:	4288      	cmp	r0, r1
   81bf2:	d90c      	bls.n	81c0e <math_interpolation+0x1e>
		return 0;

	if (value >= x2) // above or equal to upper bounds
   81bf4:	4290      	cmp	r0, r2
   81bf6:	d301      	bcc.n	81bfc <math_interpolation+0xc>
		return 100;
   81bf8:	2064      	movs	r0, #100	; 0x64

	return ((uint32_t)(value - x1) * 100)/((x2 - x1));
}
   81bfa:	4770      	bx	lr
	return ((uint32_t)(value - x1) * 100)/((x2 - x1));
   81bfc:	1a40      	subs	r0, r0, r1
   81bfe:	2364      	movs	r3, #100	; 0x64
   81c00:	fb03 f000 	mul.w	r0, r3, r0
   81c04:	1a51      	subs	r1, r2, r1
   81c06:	fbb0 f0f1 	udiv	r0, r0, r1
   81c0a:	b2c0      	uxtb	r0, r0
   81c0c:	4770      	bx	lr
		return 0;
   81c0e:	2000      	movs	r0, #0
   81c10:	4770      	bx	lr
	...

00081c14 <math_interpolation_array>:
{
   81c14:	e92d 4ff0 	stmdb	sp!, {r4, r5, r6, r7, r8, r9, sl, fp, lr}
   81c18:	b087      	sub	sp, #28
   81c1a:	4604      	mov	r4, r0
   81c1c:	4688      	mov	r8, r1
   81c1e:	4615      	mov	r5, r2
   81c20:	469b      	mov	fp, r3
	uint8_t RpmIndexLow = 0, MapIndexLow = 0;
   81c22:	2300      	movs	r3, #0
   81c24:	f88d 3017 	strb.w	r3, [sp, #23]
   81c28:	f88d 3016 	strb.w	r3, [sp, #22]
	uint8_t RpmIndexHigh = THREE_D_TABLE_SIZE - 1, MapIndexHigh = THREE_D_TABLE_SIZE - 1;
   81c2c:	230f      	movs	r3, #15
   81c2e:	f88d 3015 	strb.w	r3, [sp, #21]
   81c32:	f88d 3014 	strb.w	r3, [sp, #20]
	math_find_interpolation_index(Current->Xbin, Rpm, &RpmIndexLow, &RpmIndexHigh, RPM_SCALER, THREE_D_TABLE_SIZE);
   81c36:	2710      	movs	r7, #16
   81c38:	9701      	str	r7, [sp, #4]
   81c3a:	2364      	movs	r3, #100	; 0x64
   81c3c:	9300      	str	r3, [sp, #0]
   81c3e:	f10d 0315 	add.w	r3, sp, #21
   81c42:	f10d 0217 	add.w	r2, sp, #23
   81c46:	4601      	mov	r1, r0
   81c48:	6868      	ldr	r0, [r5, #4]
   81c4a:	4e29      	ldr	r6, [pc, #164]	; (81cf0 <math_interpolation_array+0xdc>)
   81c4c:	47b0      	blx	r6
	math_find_interpolation_index(Current->Ybin, Map, &MapIndexLow, &MapIndexHigh, 1, THREE_D_TABLE_SIZE);
   81c4e:	9701      	str	r7, [sp, #4]
   81c50:	2301      	movs	r3, #1
   81c52:	9300      	str	r3, [sp, #0]
   81c54:	ab05      	add	r3, sp, #20
   81c56:	f10d 0216 	add.w	r2, sp, #22
   81c5a:	f8cd 800c 	str.w	r8, [sp, #12]
   81c5e:	4641      	mov	r1, r8
   81c60:	68a8      	ldr	r0, [r5, #8]
   81c62:	47b0      	blx	r6
	uint8_t RpmWeight = math_interpolation(Rpm, Current->Xbin[RpmIndexLow] * RPM_SCALER, Current->Xbin[RpmIndexHigh] * RPM_SCALER);
   81c64:	686b      	ldr	r3, [r5, #4]
   81c66:	f89d 7017 	ldrb.w	r7, [sp, #23]
   81c6a:	f89d 6015 	ldrb.w	r6, [sp, #21]
   81c6e:	5d9a      	ldrb	r2, [r3, r6]
   81c70:	eb02 0282 	add.w	r2, r2, r2, lsl #2
   81c74:	eb02 0282 	add.w	r2, r2, r2, lsl #2
   81c78:	0092      	lsls	r2, r2, #2
   81c7a:	b292      	uxth	r2, r2
   81c7c:	5dd9      	ldrb	r1, [r3, r7]
   81c7e:	eb01 0181 	add.w	r1, r1, r1, lsl #2
   81c82:	eb01 0181 	add.w	r1, r1, r1, lsl #2
   81c86:	0089      	lsls	r1, r1, #2
   81c88:	b289      	uxth	r1, r1
   81c8a:	4620      	mov	r0, r4
   81c8c:	f8df a064 	ldr.w	sl, [pc, #100]	; 81cf4 <math_interpolation_array+0xe0>
   81c90:	47d0      	blx	sl
   81c92:	4604      	mov	r4, r0
	uint8_t MapWeight = math_interpolation(Map, Current->Ybin[MapIndexLow], Current->Ybin[MapIndexHigh]);
   81c94:	68ab      	ldr	r3, [r5, #8]
   81c96:	f89d 9016 	ldrb.w	r9, [sp, #22]
   81c9a:	f89d 8014 	ldrb.w	r8, [sp, #20]
   81c9e:	f813 2008 	ldrb.w	r2, [r3, r8]
   81ca2:	f813 1009 	ldrb.w	r1, [r3, r9]
   81ca6:	9803      	ldr	r0, [sp, #12]
   81ca8:	47d0      	blx	sl
	uint32_t calc1 = (uint32_t)Current->Table[MapIndexLow][RpmIndexLow] * (100 - MapWeight) * (100 - RpmWeight);
   81caa:	682b      	ldr	r3, [r5, #0]
   81cac:	f853 2029 	ldr.w	r2, [r3, r9, lsl #2]
   81cb0:	f1c4 0164 	rsb	r1, r4, #100	; 0x64
	uint32_t calc3 = (uint32_t)Current->Table[MapIndexHigh][RpmIndexLow] * (MapWeight) * (100 - RpmWeight);
   81cb4:	f853 5028 	ldr.w	r5, [r3, r8, lsl #2]
	uint32_t calc1 = (uint32_t)Current->Table[MapIndexLow][RpmIndexLow] * (100 - MapWeight) * (100 - RpmWeight);
   81cb8:	5dd3      	ldrb	r3, [r2, r7]
	uint32_t calc2 = (uint32_t)Current->Table[MapIndexLow][RpmIndexHigh] * (100 - MapWeight) * (RpmWeight);
   81cba:	5d92      	ldrb	r2, [r2, r6]
   81cbc:	fb04 f202 	mul.w	r2, r4, r2
	return (calc1 + calc2 + calc3 + calc4) / tempCalc;
   81cc0:	fb01 2303 	mla	r3, r1, r3, r2
	uint32_t calc1 = (uint32_t)Current->Table[MapIndexLow][RpmIndexLow] * (100 - MapWeight) * (100 - RpmWeight);
   81cc4:	f1c0 0e64 	rsb	lr, r0, #100	; 0x64
	uint32_t calc3 = (uint32_t)Current->Table[MapIndexHigh][RpmIndexLow] * (MapWeight) * (100 - RpmWeight);
   81cc8:	5dea      	ldrb	r2, [r5, r7]
	uint32_t calc4 = (uint32_t)Current->Table[MapIndexHigh][RpmIndexHigh] * (MapWeight) * (RpmWeight);
   81cca:	5dad      	ldrb	r5, [r5, r6]
   81ccc:	fb04 f405 	mul.w	r4, r4, r5
	return (calc1 + calc2 + calc3 + calc4) / tempCalc;
   81cd0:	fb01 4402 	mla	r4, r1, r2, r4
   81cd4:	fb00 f004 	mul.w	r0, r0, r4
   81cd8:	fb0e 0003 	mla	r0, lr, r3, r0
   81cdc:	f44f 737a 	mov.w	r3, #1000	; 0x3e8
   81ce0:	fb93 fbfb 	sdiv	fp, r3, fp
   81ce4:	fbb0 f0fb 	udiv	r0, r0, fp
}
   81ce8:	b280      	uxth	r0, r0
   81cea:	b007      	add	sp, #28
   81cec:	e8bd 8ff0 	ldmia.w	sp!, {r4, r5, r6, r7, r8, r9, sl, fp, pc}
   81cf0:	00081bb1 	.word	0x00081bb1
   81cf4:	00081bf1 	.word	0x00081bf1

00081cf8 <math_interpolation_vector>:
{
   81cf8:	e92d 43f0 	stmdb	sp!, {r4, r5, r6, r7, r8, r9, lr}
   81cfc:	b085      	sub	sp, #20
   81cfe:	4681      	mov	r9, r0
   81d00:	460e      	mov	r6, r1
   81d02:	4690      	mov	r8, r2
   81d04:	461c      	mov	r4, r3
   81d06:	f89d 2030 	ldrb.w	r2, [sp, #48]	; 0x30
	uint8_t IndexLow = 0;
   81d0a:	2300      	movs	r3, #0
   81d0c:	f88d 300f 	strb.w	r3, [sp, #15]
	uint8_t IndexHigh = Len - 1;
   81d10:	1e51      	subs	r1, r2, #1
   81d12:	ab04      	add	r3, sp, #16
   81d14:	f803 1d02 	strb.w	r1, [r3, #-2]!
	math_find_interpolation_index(LookUp, Value, &IndexLow, &IndexHigh, 1, Len);
   81d18:	9201      	str	r2, [sp, #4]
   81d1a:	2201      	movs	r2, #1
   81d1c:	9200      	str	r2, [sp, #0]
   81d1e:	f10d 020f 	add.w	r2, sp, #15
   81d22:	4641      	mov	r1, r8
   81d24:	4d0e      	ldr	r5, [pc, #56]	; (81d60 <math_interpolation_vector+0x68>)
   81d26:	47a8      	blx	r5
	uint8_t Weight = math_interpolation(Value, LookUp[IndexLow], LookUp[IndexHigh]);
   81d28:	f89d 700f 	ldrb.w	r7, [sp, #15]
   81d2c:	f89d 500e 	ldrb.w	r5, [sp, #14]
   81d30:	f819 2005 	ldrb.w	r2, [r9, r5]
   81d34:	f819 1007 	ldrb.w	r1, [r9, r7]
   81d38:	4640      	mov	r0, r8
   81d3a:	4b0a      	ldr	r3, [pc, #40]	; (81d64 <math_interpolation_vector+0x6c>)
   81d3c:	4798      	blx	r3
	uint16_t calc1 = (uint32_t)Calculate[IndexLow] * (100 - Weight);
   81d3e:	5df3      	ldrb	r3, [r6, r7]
   81d40:	f1c0 0264 	rsb	r2, r0, #100	; 0x64
   81d44:	fb03 f302 	mul.w	r3, r3, r2
	return (calc1 + calc2) / Scaler;
   81d48:	b29b      	uxth	r3, r3
	uint16_t calc2 = (uint32_t)Calculate[IndexHigh] * (Weight);
   81d4a:	5d72      	ldrb	r2, [r6, r5]
   81d4c:	fb02 f000 	mul.w	r0, r2, r0
	return (calc1 + calc2) / Scaler;
   81d50:	b280      	uxth	r0, r0
   81d52:	4418      	add	r0, r3
   81d54:	fb90 f0f4 	sdiv	r0, r0, r4
}
   81d58:	b280      	uxth	r0, r0
   81d5a:	b005      	add	sp, #20
   81d5c:	e8bd 83f0 	ldmia.w	sp!, {r4, r5, r6, r7, r8, r9, pc}
   81d60:	00081bb1 	.word	0x00081bb1
   81d64:	00081bf1 	.word	0x00081bf1

00081d68 <math_sum_with_overflow_protection>:

uint32_t math_sum_with_overflow_protection(uint32_t counter, uint32_t pulsewidth)
{
	uint32_t sum = counter + pulsewidth;
	if (sum < counter)
   81d68:	1840      	adds	r0, r0, r1
		return pulsewidth - (UINT32_T_MAX - counter);
   81d6a:	bf28      	it	cs
   81d6c:	3001      	addcs	r0, #1
	else
		return sum;
	// return ((a+b) < a) ? (UINT_MAX - a) : (a+b);
}
   81d6e:	4770      	bx	lr

00081d70 <math_convert_degree_to_teeth_count>:
// Calculate the amount of teeth to skip for the next event
// Returns an integer to skip
// Example: Skip 7,4 teeth ---> the function returns the integer 7
uint8_t math_convert_degree_to_teeth_count(uint16_t degree)
{
	uint32_t temp = degree * engine_config4.TriggerTeethCount / CRANK_DEGREE_RESOLUTION;
   81d70:	4b06      	ldr	r3, [pc, #24]	; (81d8c <math_convert_degree_to_teeth_count+0x1c>)
   81d72:	7bdb      	ldrb	r3, [r3, #15]
   81d74:	fb03 f000 	mul.w	r0, r3, r0
   81d78:	4b05      	ldr	r3, [pc, #20]	; (81d90 <math_convert_degree_to_teeth_count+0x20>)
   81d7a:	fb83 2300 	smull	r2, r3, r3, r0
   81d7e:	4403      	add	r3, r0
   81d80:	17c0      	asrs	r0, r0, #31
   81d82:	ebc0 20e3 	rsb	r0, r0, r3, asr #11
	// 		uart_transfer('C'); uart_print_int(temp); uart_new_line();
	// 		uart_transfer('R'); uart_print_int(temp1); uart_new_line();
	// 	}
	
	return (uint8_t) temp;
}
   81d86:	b2c0      	uxtb	r0, r0
   81d88:	4770      	bx	lr
   81d8a:	bf00      	nop
   81d8c:	20071174 	.word	0x20071174
   81d90:	91a2b3c5 	.word	0x91a2b3c5

00081d94 <math_convert_pulsewidth_to_crank_degrees>:
	return (uint32_t) temp; 
}

// Returns crank degrees in .1 resolution (36.1 = 361)
uint32_t math_convert_pulsewidth_to_crank_degrees(uint32_t PW)
{
   81d94:	b538      	push	{r3, r4, r5, lr}
	uint32_t PWCounts = math_convert_pulsewidth_to_timer_counts(PW);
	return (PWCounts * CRANK_DEGREE_RESOLUTION) / LastCrankRevCounts;
   81d96:	4b08      	ldr	r3, [pc, #32]	; (81db8 <math_convert_pulsewidth_to_crank_degrees+0x24>)
   81d98:	681c      	ldr	r4, [r3, #0]
	uint64_t temp = ((uint64_t) PW * GLOBAL_TIMER_FREQ) / 10000000;
   81d9a:	4a08      	ldr	r2, [pc, #32]	; (81dbc <math_convert_pulsewidth_to_crank_degrees+0x28>)
   81d9c:	2300      	movs	r3, #0
   81d9e:	4908      	ldr	r1, [pc, #32]	; (81dc0 <math_convert_pulsewidth_to_crank_degrees+0x2c>)
   81da0:	fba0 0101 	umull	r0, r1, r0, r1
   81da4:	4d07      	ldr	r5, [pc, #28]	; (81dc4 <math_convert_pulsewidth_to_crank_degrees+0x30>)
   81da6:	47a8      	blx	r5
	return (PWCounts * CRANK_DEGREE_RESOLUTION) / LastCrankRevCounts;
   81da8:	f44f 6361 	mov.w	r3, #3600	; 0xe10
   81dac:	fb03 f000 	mul.w	r0, r3, r0
}
   81db0:	fbb0 f0f4 	udiv	r0, r0, r4
   81db4:	bd38      	pop	{r3, r4, r5, pc}
   81db6:	bf00      	nop
   81db8:	200709dc 	.word	0x200709dc
   81dbc:	00989680 	.word	0x00989680
   81dc0:	00280de8 	.word	0x00280de8
   81dc4:	00083779 	.word	0x00083779

00081dc8 <math_find_event_tooth_from_number_of_teeths>:

uint8_t math_find_event_tooth_from_number_of_teeths(uint16_t CurrentCrankTooth, uint32_t *EventTooth, uint16_t NumberOfTeeths) // Find the event tooth(initiate timer tooth) from current tooth
{
   81dc8:	b5f0      	push	{r4, r5, r6, r7, lr}
   81dca:	4603      	mov	r3, r0
	uint8_t TriggerTeethMinusMiss = engine_config4.TriggerTeethCount - engine_config4.MissingTeethCount;
   81dcc:	4813      	ldr	r0, [pc, #76]	; (81e1c <math_find_event_tooth_from_number_of_teeths+0x54>)
   81dce:	7bc6      	ldrb	r6, [r0, #15]
   81dd0:	7c00      	ldrb	r0, [r0, #16]
   81dd2:	1a36      	subs	r6, r6, r0
// 			uart_print_string("EventTooth: "); uart_print_int(EventTooth); uart_new_line();
// 			uart_print_string("EventTooth*: "); uart_print_int(*EventTooth); uart_new_line();
// 		}
// 	}
	uint8_t NrOfMissingTeethsAtEvent = 0; // this should not exceed 2 generally
	for (uint8_t i = 0; i < NumberOfTeeths; i++)
   81dd4:	b302      	cbz	r2, 81e18 <math_find_event_tooth_from_number_of_teeths+0x50>
   81dd6:	b2f6      	uxtb	r6, r6
   81dd8:	4617      	mov	r7, r2
   81dda:	2200      	movs	r2, #0
   81ddc:	4610      	mov	r0, r2
	{
		CurrentCrankTooth = (CurrentCrankTooth + 1) % engine_config4.TriggerTeethCount;
   81dde:	f8df e03c 	ldr.w	lr, [pc, #60]	; 81e1c <math_find_event_tooth_from_number_of_teeths+0x54>
		if (!(CurrentCrankTooth >= TriggerTeethMinusMiss)) // Check if current tooth is NOT a missing tooth
   81de2:	b2b6      	uxth	r6, r6
		{
			(*EventTooth)++;
			NrOfMissingTeethsAtEvent = 0;
   81de4:	4694      	mov	ip, r2
   81de6:	e006      	b.n	81df6 <math_find_event_tooth_from_number_of_teeths+0x2e>
		}
		else // counting missing tooth for timer 
		{
			NrOfMissingTeethsAtEvent++;
   81de8:	3001      	adds	r0, #1
   81dea:	b2c0      	uxtb	r0, r0
	for (uint8_t i = 0; i < NumberOfTeeths; i++)
   81dec:	3201      	adds	r2, #1
   81dee:	b2d2      	uxtb	r2, r2
   81df0:	b294      	uxth	r4, r2
   81df2:	42bc      	cmp	r4, r7
   81df4:	d20f      	bcs.n	81e16 <math_find_event_tooth_from_number_of_teeths+0x4e>
		CurrentCrankTooth = (CurrentCrankTooth + 1) % engine_config4.TriggerTeethCount;
   81df6:	f89e 400f 	ldrb.w	r4, [lr, #15]
   81dfa:	b2e4      	uxtb	r4, r4
   81dfc:	1c5d      	adds	r5, r3, #1
   81dfe:	fb95 f3f4 	sdiv	r3, r5, r4
   81e02:	fb04 5313 	mls	r3, r4, r3, r5
   81e06:	b29b      	uxth	r3, r3
		if (!(CurrentCrankTooth >= TriggerTeethMinusMiss)) // Check if current tooth is NOT a missing tooth
   81e08:	42b3      	cmp	r3, r6
   81e0a:	d2ed      	bcs.n	81de8 <math_find_event_tooth_from_number_of_teeths+0x20>
			(*EventTooth)++;
   81e0c:	6808      	ldr	r0, [r1, #0]
   81e0e:	3001      	adds	r0, #1
   81e10:	6008      	str	r0, [r1, #0]
			NrOfMissingTeethsAtEvent = 0;
   81e12:	4660      	mov	r0, ip
   81e14:	e7ea      	b.n	81dec <math_find_event_tooth_from_number_of_teeths+0x24>
   81e16:	bdf0      	pop	{r4, r5, r6, r7, pc}
	uint8_t NrOfMissingTeethsAtEvent = 0; // this should not exceed 2 generally
   81e18:	2000      	movs	r0, #0
		}
	}
	// TODO: Check if CurrentCrankTooth is between 22 - 23 if so, change a variable pointer !!!!!!!!!!!!!!!!!!!!!!!!!!!!!!!!!!!!!
	return NrOfMissingTeethsAtEvent;
   81e1a:	bdf0      	pop	{r4, r5, r6, r7, pc}
   81e1c:	20071174 	.word	0x20071174

00081e20 <sensors_init>:
 */ 

 #include "sensors.h"

void sensors_init(void)
{
   81e20:	e92d 41f0 	stmdb	sp!, {r4, r5, r6, r7, r8, lr}
   81e24:	2400      	movs	r4, #0
	// Initialize sensor look up vector/table
	for (uint16_t i = 0; i < LUT_SIZE; i++)
	{
		CltAdc_LUT[i]		= eeprom_read_byte(EEPROM_CLT_ADC_INDEX + i);
   81e26:	4e0e      	ldr	r6, [pc, #56]	; (81e60 <sensors_init+0x40>)
   81e28:	f8df 8040 	ldr.w	r8, [pc, #64]	; 81e6c <sensors_init+0x4c>
		IatAdc_LUT[i]		= eeprom_read_byte(EEPROM_IAT_ADC_INDEX + i);
   81e2c:	4f0d      	ldr	r7, [pc, #52]	; (81e64 <sensors_init+0x44>)
   81e2e:	b2a5      	uxth	r5, r4
		CltAdc_LUT[i]		= eeprom_read_byte(EEPROM_CLT_ADC_INDEX + i);
   81e30:	f505 7058 	add.w	r0, r5, #864	; 0x360
   81e34:	b280      	uxth	r0, r0
   81e36:	47b0      	blx	r6
   81e38:	f808 0004 	strb.w	r0, [r8, r4]
		IatAdc_LUT[i]		= eeprom_read_byte(EEPROM_IAT_ADC_INDEX + i);
   81e3c:	f505 60ec 	add.w	r0, r5, #1888	; 0x760
   81e40:	b280      	uxth	r0, r0
   81e42:	47b0      	blx	r6
   81e44:	5538      	strb	r0, [r7, r4]
		AfrAdc_LUT[i]		= eeprom_read_byte(EEPROM_AFR_ADC_INDEX + i);
   81e46:	f505 6036 	add.w	r0, r5, #2912	; 0xb60
   81e4a:	b280      	uxth	r0, r0
   81e4c:	47b0      	blx	r6
   81e4e:	4b06      	ldr	r3, [pc, #24]	; (81e68 <sensors_init+0x48>)
   81e50:	5518      	strb	r0, [r3, r4]
   81e52:	3401      	adds	r4, #1
	for (uint16_t i = 0; i < LUT_SIZE; i++)
   81e54:	f5b4 6f80 	cmp.w	r4, #1024	; 0x400
   81e58:	d1e9      	bne.n	81e2e <sensors_init+0xe>
	}
}
   81e5a:	e8bd 81f0 	ldmia.w	sp!, {r4, r5, r6, r7, r8, pc}
   81e5e:	bf00      	nop
   81e60:	00081129 	.word	0x00081129
   81e64:	20071af8 	.word	0x20071af8
   81e68:	20071f90 	.word	0x20071f90
   81e6c:	2007166c 	.word	0x2007166c

00081e70 <sensors_read_adc>:

void sensors_read_adc(void)
{
   81e70:	e92d 43f8 	stmdb	sp!, {r3, r4, r5, r6, r7, r8, r9, lr}
	// TODO: TURN GLOBAL INTERRUPTS OFF
	engine_realtime.Clt = CltAdc_LUT[math_find_median(AdcData[ADC_CLT_CH], ADC_MEDIAN_FILTER_LENGTH)];
   81e74:	4d28      	ldr	r5, [pc, #160]	; (81f18 <sensors_read_adc+0xa8>)
   81e76:	2103      	movs	r1, #3
   81e78:	4628      	mov	r0, r5
   81e7a:	4e28      	ldr	r6, [pc, #160]	; (81f1c <sensors_read_adc+0xac>)
   81e7c:	47b0      	blx	r6
   81e7e:	4b28      	ldr	r3, [pc, #160]	; (81f20 <sensors_read_adc+0xb0>)
   81e80:	5c1b      	ldrb	r3, [r3, r0]
   81e82:	b2db      	uxtb	r3, r3
   81e84:	4c27      	ldr	r4, [pc, #156]	; (81f24 <sensors_read_adc+0xb4>)
   81e86:	71e3      	strb	r3, [r4, #7]
	engine_realtime.Iat = IatAdc_LUT[math_find_median(AdcData[ADC_IAT_CH], ADC_MEDIAN_FILTER_LENGTH)];
   81e88:	2103      	movs	r1, #3
   81e8a:	f105 000c 	add.w	r0, r5, #12
   81e8e:	47b0      	blx	r6
   81e90:	4b25      	ldr	r3, [pc, #148]	; (81f28 <sensors_read_adc+0xb8>)
   81e92:	5c1b      	ldrb	r3, [r3, r0]
   81e94:	b2db      	uxtb	r3, r3
   81e96:	71a3      	strb	r3, [r4, #6]
	engine_realtime.Afr = AfrAdc_LUT[math_find_median(AdcData[ADC_AFR_CH], ADC_MEDIAN_FILTER_LENGTH)];
   81e98:	2103      	movs	r1, #3
   81e9a:	1da8      	adds	r0, r5, #6
   81e9c:	47b0      	blx	r6
   81e9e:	4b23      	ldr	r3, [pc, #140]	; (81f2c <sensors_read_adc+0xbc>)
   81ea0:	5c1b      	ldrb	r3, [r3, r0]
   81ea2:	b2db      	uxtb	r3, r3
   81ea4:	72a3      	strb	r3, [r4, #10]
	engine_realtime.Map = math_map_adc(engine_config2.MapMin, engine_config2.MapMax, math_find_median(AdcData[ADC_MAP_CH], ADC_MEDIAN_FILTER_LENGTH));
   81ea6:	4f22      	ldr	r7, [pc, #136]	; (81f30 <sensors_read_adc+0xc0>)
   81ea8:	f897 803d 	ldrb.w	r8, [r7, #61]	; 0x3d
   81eac:	fa5f f888 	uxtb.w	r8, r8
   81eb0:	f8b7 903e 	ldrh.w	r9, [r7, #62]	; 0x3e
   81eb4:	fa1f f989 	uxth.w	r9, r9
   81eb8:	2103      	movs	r1, #3
   81eba:	f105 0012 	add.w	r0, r5, #18
   81ebe:	47b0      	blx	r6
   81ec0:	4602      	mov	r2, r0
   81ec2:	4649      	mov	r1, r9
   81ec4:	4640      	mov	r0, r8
   81ec6:	f8df 8070 	ldr.w	r8, [pc, #112]	; 81f38 <sensors_read_adc+0xc8>
   81eca:	47c0      	blx	r8
   81ecc:	b280      	uxth	r0, r0
   81ece:	80a0      	strh	r0, [r4, #4]
	engine_realtime.TpsAdc = math_find_median(AdcData[ADC_TPS_CH], ADC_MEDIAN_FILTER_LENGTH) >> 2; // Change to 8 bit 
   81ed0:	3d18      	subs	r5, #24
   81ed2:	2103      	movs	r1, #3
   81ed4:	4628      	mov	r0, r5
   81ed6:	47b0      	blx	r6
   81ed8:	f3c0 0087 	ubfx	r0, r0, #2, #8
   81edc:	7220      	strb	r0, [r4, #8]
	engine_realtime.Tps = math_map(0, 100, engine_realtime.TpsAdc - engine_config2.TpsMin, engine_config2.TpsMax - engine_config2.TpsMin);
   81ede:	7a21      	ldrb	r1, [r4, #8]
   81ee0:	f897 203b 	ldrb.w	r2, [r7, #59]	; 0x3b
   81ee4:	f897 303c 	ldrb.w	r3, [r7, #60]	; 0x3c
   81ee8:	f897 003b 	ldrb.w	r0, [r7, #59]	; 0x3b
   81eec:	1a1b      	subs	r3, r3, r0
   81eee:	b29b      	uxth	r3, r3
   81ef0:	1a8a      	subs	r2, r1, r2
   81ef2:	2164      	movs	r1, #100	; 0x64
   81ef4:	2000      	movs	r0, #0
   81ef6:	4f0f      	ldr	r7, [pc, #60]	; (81f34 <sensors_read_adc+0xc4>)
   81ef8:	47b8      	blx	r7
   81efa:	b2c0      	uxtb	r0, r0
   81efc:	7620      	strb	r0, [r4, #24]
	engine_realtime.BattVolt = math_map_adc(0, 160, math_find_median(AdcData[ADC_BATT_CH], ADC_MEDIAN_FILTER_LENGTH));
   81efe:	2103      	movs	r1, #3
   81f00:	f105 0048 	add.w	r0, r5, #72	; 0x48
   81f04:	47b0      	blx	r6
   81f06:	4602      	mov	r2, r0
   81f08:	21a0      	movs	r1, #160	; 0xa0
   81f0a:	2000      	movs	r0, #0
   81f0c:	47c0      	blx	r8
   81f0e:	b2c0      	uxtb	r0, r0
   81f10:	7260      	strb	r0, [r4, #9]
   81f12:	e8bd 83f8 	ldmia.w	sp!, {r3, r4, r5, r6, r7, r8, r9, pc}
   81f16:	bf00      	nop
   81f18:	20071a88 	.word	0x20071a88
   81f1c:	00081ae9 	.word	0x00081ae9
   81f20:	2007166c 	.word	0x2007166c
   81f24:	200715b8 	.word	0x200715b8
   81f28:	20071af8 	.word	0x20071af8
   81f2c:	20071f90 	.word	0x20071f90
   81f30:	20071128 	.word	0x20071128
   81f34:	00081ad7 	.word	0x00081ad7
   81f38:	00081acd 	.word	0x00081acd

00081f3c <storage_struct_read_eeprom_init>:
 #include "storage.h"


 // Read the EEPROM and store the according byte in ascending order
 void storage_struct_read_eeprom_init(uint8_t *ConfigStructPointer, uint16_t ConfigLen, uint16_t EepromIndex)
 {
   81f3c:	b508      	push	{r3, lr}
   81f3e:	4613      	mov	r3, r2
	at24cxx_read_continuous(EepromIndex, ConfigLen, ConfigStructPointer);
   81f40:	4602      	mov	r2, r0
   81f42:	4618      	mov	r0, r3
   81f44:	4b01      	ldr	r3, [pc, #4]	; (81f4c <storage_struct_read_eeprom_init+0x10>)
   81f46:	4798      	blx	r3
   81f48:	bd08      	pop	{r3, pc}
   81f4a:	bf00      	nop
   81f4c:	00080241 	.word	0x00080241

00081f50 <storage_init_struct_to_zero>:
 }

 void storage_init_struct_to_zero(uint8_t *ConfigStructPointer, uint16_t ConfigLen)
 {
	 for (uint16_t i = 0; i < ConfigLen; i++)
   81f50:	b141      	cbz	r1, 81f64 <storage_init_struct_to_zero+0x14>
   81f52:	1e43      	subs	r3, r0, #1
   81f54:	1e4a      	subs	r2, r1, #1
   81f56:	b292      	uxth	r2, r2
   81f58:	4410      	add	r0, r2
		 *(ConfigStructPointer + i) = 0;
   81f5a:	2200      	movs	r2, #0
   81f5c:	f803 2f01 	strb.w	r2, [r3, #1]!
	 for (uint16_t i = 0; i < ConfigLen; i++)
   81f60:	4283      	cmp	r3, r0
   81f62:	d1fb      	bne.n	81f5c <storage_init_struct_to_zero+0xc>
   81f64:	4770      	bx	lr
	...

00081f68 <tables_Table3D_alloc_mem>:
 */ 

#include "tables.h"

void tables_Table3D_alloc_mem(struct Table3D *Current, uint8_t Xsize, uint8_t Ysize)
{
   81f68:	e92d 47f0 	stmdb	sp!, {r4, r5, r6, r7, r8, r9, sl, lr}
   81f6c:	4607      	mov	r7, r0
   81f6e:	460e      	mov	r6, r1
   81f70:	4691      	mov	r9, r2
// LSD, lna svo dlkur (line then column)
	Current->Table = (uint8_t **)malloc(Ysize * sizeof(uint8_t*));
   81f72:	0090      	lsls	r0, r2, #2
   81f74:	4b13      	ldr	r3, [pc, #76]	; (81fc4 <tables_Table3D_alloc_mem+0x5c>)
   81f76:	4798      	blx	r3
   81f78:	6038      	str	r0, [r7, #0]
	for (uint8_t i = 0; i < Ysize; i++)
   81f7a:	f1b9 0f00 	cmp.w	r9, #0
   81f7e:	d011      	beq.n	81fa4 <tables_Table3D_alloc_mem+0x3c>
   81f80:	f109 38ff 	add.w	r8, r9, #4294967295
   81f84:	fa5f f888 	uxtb.w	r8, r8
   81f88:	f108 0801 	add.w	r8, r8, #1
   81f8c:	ea4f 0888 	mov.w	r8, r8, lsl #2
   81f90:	2400      	movs	r4, #0
		Current->Table[i] = (uint8_t *)malloc(Xsize * sizeof(uint8_t));
   81f92:	f8df a030 	ldr.w	sl, [pc, #48]	; 81fc4 <tables_Table3D_alloc_mem+0x5c>
   81f96:	683d      	ldr	r5, [r7, #0]
   81f98:	4630      	mov	r0, r6
   81f9a:	47d0      	blx	sl
   81f9c:	5128      	str	r0, [r5, r4]
   81f9e:	3404      	adds	r4, #4
	for (uint8_t i = 0; i < Ysize; i++)
   81fa0:	4544      	cmp	r4, r8
   81fa2:	d1f8      	bne.n	81f96 <tables_Table3D_alloc_mem+0x2e>
	Current->Xbin = (uint8_t *)malloc(Xsize * sizeof(uint8_t));
   81fa4:	4630      	mov	r0, r6
   81fa6:	4c07      	ldr	r4, [pc, #28]	; (81fc4 <tables_Table3D_alloc_mem+0x5c>)
   81fa8:	47a0      	blx	r4
   81faa:	6078      	str	r0, [r7, #4]
	Current->Ybin = (uint8_t *)malloc(Ysize * sizeof(uint8_t));
   81fac:	4648      	mov	r0, r9
   81fae:	47a0      	blx	r4
   81fb0:	60b8      	str	r0, [r7, #8]
	Current->Xsize = Xsize;
   81fb2:	733e      	strb	r6, [r7, #12]
	Current->Ysize = Ysize;
   81fb4:	f887 900d 	strb.w	r9, [r7, #13]
	Current->Bytes = (uint16_t) Xsize * Ysize + Xsize + Ysize;
   81fb8:	fb09 6606 	mla	r6, r9, r6, r6
   81fbc:	444e      	add	r6, r9
   81fbe:	81fe      	strh	r6, [r7, #14]
   81fc0:	e8bd 87f0 	ldmia.w	sp!, {r4, r5, r6, r7, r8, r9, sl, pc}
   81fc4:	00083ad9 	.word	0x00083ad9

00081fc8 <tables_Table3D_read_eeprom>:
}

void tables_Table3D_read_eeprom(struct Table3D *Current, uint16_t EepromIndex)
{
   81fc8:	b5f8      	push	{r3, r4, r5, r6, r7, lr}
   81fca:	4605      	mov	r5, r0
   81fcc:	460e      	mov	r6, r1
	for (uint8_t i = 0; i < Current->Ysize; i++)
   81fce:	7b43      	ldrb	r3, [r0, #13]
   81fd0:	b17b      	cbz	r3, 81ff2 <tables_Table3D_read_eeprom+0x2a>
   81fd2:	2400      	movs	r4, #0
	{
		storage_struct_read_eeprom_init(Current->Table[i], Current->Xsize, EepromIndex);
   81fd4:	4f0d      	ldr	r7, [pc, #52]	; (8200c <tables_Table3D_read_eeprom+0x44>)
   81fd6:	682b      	ldr	r3, [r5, #0]
   81fd8:	4632      	mov	r2, r6
   81fda:	7b29      	ldrb	r1, [r5, #12]
   81fdc:	f853 0024 	ldr.w	r0, [r3, r4, lsl #2]
   81fe0:	47b8      	blx	r7
		EepromIndex += Current->Xsize;
   81fe2:	7b2a      	ldrb	r2, [r5, #12]
   81fe4:	4432      	add	r2, r6
   81fe6:	b296      	uxth	r6, r2
	for (uint8_t i = 0; i < Current->Ysize; i++)
   81fe8:	3401      	adds	r4, #1
   81fea:	b2e4      	uxtb	r4, r4
   81fec:	7b6b      	ldrb	r3, [r5, #13]
   81fee:	42a3      	cmp	r3, r4
   81ff0:	d8f1      	bhi.n	81fd6 <tables_Table3D_read_eeprom+0xe>
	} 
	storage_struct_read_eeprom_init(Current->Xbin, Current->Xsize, EepromIndex);
   81ff2:	4632      	mov	r2, r6
   81ff4:	7b29      	ldrb	r1, [r5, #12]
   81ff6:	6868      	ldr	r0, [r5, #4]
   81ff8:	4c04      	ldr	r4, [pc, #16]	; (8200c <tables_Table3D_read_eeprom+0x44>)
   81ffa:	47a0      	blx	r4
	EepromIndex += Current->Xsize;
   81ffc:	7b2a      	ldrb	r2, [r5, #12]
   81ffe:	4432      	add	r2, r6
	storage_struct_read_eeprom_init(Current->Ybin, Current->Ysize, EepromIndex);
   82000:	b292      	uxth	r2, r2
   82002:	7b69      	ldrb	r1, [r5, #13]
   82004:	68a8      	ldr	r0, [r5, #8]
   82006:	47a0      	blx	r4
   82008:	bdf8      	pop	{r3, r4, r5, r6, r7, pc}
   8200a:	bf00      	nop
   8200c:	00081f3d 	.word	0x00081f3d

00082010 <tables_Table3D_init>:
}

void tables_Table3D_init(struct Table3D *Current, uint8_t Xsize, uint8_t Ysize, uint16_t EepromIndex)
{
   82010:	b538      	push	{r3, r4, r5, lr}
   82012:	4604      	mov	r4, r0
   82014:	461d      	mov	r5, r3
	tables_Table3D_alloc_mem(Current, Xsize, Ysize);
   82016:	4b03      	ldr	r3, [pc, #12]	; (82024 <tables_Table3D_init+0x14>)
   82018:	4798      	blx	r3
	tables_Table3D_read_eeprom(Current, EepromIndex);
   8201a:	4629      	mov	r1, r5
   8201c:	4620      	mov	r0, r4
   8201e:	4b02      	ldr	r3, [pc, #8]	; (82028 <tables_Table3D_init+0x18>)
   82020:	4798      	blx	r3
   82022:	bd38      	pop	{r3, r4, r5, pc}
   82024:	00081f69 	.word	0x00081f69
   82028:	00081fc9 	.word	0x00081fc9

0008202c <table_init>:
}

// Initialization function for arrays
void table_init(void)
{
   8202c:	b510      	push	{r4, lr}
	tables_Table3D_init(&VE, THREE_D_TABLE_SIZE, THREE_D_TABLE_SIZE, EEPROM_VE_INDEX);
   8202e:	2300      	movs	r3, #0
   82030:	2210      	movs	r2, #16
   82032:	4611      	mov	r1, r2
   82034:	4807      	ldr	r0, [pc, #28]	; (82054 <table_init+0x28>)
   82036:	4c08      	ldr	r4, [pc, #32]	; (82058 <table_init+0x2c>)
   82038:	47a0      	blx	r4
	tables_Table3D_init(&AFR, THREE_D_TABLE_SIZE, THREE_D_TABLE_SIZE, EEPROM_AFR_INDEX);
   8203a:	f44f 7390 	mov.w	r3, #288	; 0x120
   8203e:	2210      	movs	r2, #16
   82040:	4611      	mov	r1, r2
   82042:	4806      	ldr	r0, [pc, #24]	; (8205c <table_init+0x30>)
   82044:	47a0      	blx	r4
	tables_Table3D_init(&IGN, THREE_D_TABLE_SIZE, THREE_D_TABLE_SIZE, EEPROM_IGN_INDEX);
   82046:	f44f 7310 	mov.w	r3, #576	; 0x240
   8204a:	2210      	movs	r2, #16
   8204c:	4611      	mov	r1, r2
   8204e:	4804      	ldr	r0, [pc, #16]	; (82060 <table_init+0x34>)
   82050:	47a0      	blx	r4
   82052:	bd10      	pop	{r4, pc}
   82054:	20071058 	.word	0x20071058
   82058:	00082011 	.word	0x00082011
   8205c:	20071efc 	.word	0x20071efc
   82060:	20071f68 	.word	0x20071f68

00082064 <timer_init>:

/* TimerChannel is 0-8 and priority is nested vector interrupt priority */
void timer_init(uint32_t TimerChannel, uint32_t TimerMode, uint32_t InterruptMode, uint8_t TimerInterruptPriority)
{
	// Check if the programmer is screwed
	if (TimerChannel > 8)
   82064:	2808      	cmp	r0, #8
   82066:	d900      	bls.n	8206a <timer_init+0x6>
   82068:	4770      	bx	lr
{
   8206a:	e92d 47f0 	stmdb	sp!, {r4, r5, r6, r7, r8, r9, sl, lr}
   8206e:	461f      	mov	r7, r3
   82070:	4616      	mov	r6, r2
   82072:	4688      	mov	r8, r1
   82074:	4605      	mov	r5, r0
		return;
		
	// Enable peripheral clock
	pmc_enable_periph_clk(ID_TC0 + TimerChannel);
   82076:	f100 0a1b 	add.w	sl, r0, #27
   8207a:	4650      	mov	r0, sl
   8207c:	4b16      	ldr	r3, [pc, #88]	; (820d8 <timer_init+0x74>)
   8207e:	4798      	blx	r3
	
	Tc *Timer;
	// Initialize timer
	if (TimerChannel < 3) // TC0
   82080:	2d02      	cmp	r5, #2
   82082:	d925      	bls.n	820d0 <timer_init+0x6c>
		Timer = TC0; 
	else if (TimerChannel < 6) // TC1
		Timer = TC1;
	else // TC2
		Timer = TC2;
   82084:	4b15      	ldr	r3, [pc, #84]	; (820dc <timer_init+0x78>)
   82086:	4a16      	ldr	r2, [pc, #88]	; (820e0 <timer_init+0x7c>)
   82088:	2d05      	cmp	r5, #5
   8208a:	bf94      	ite	ls
   8208c:	4691      	movls	r9, r2
   8208e:	4699      	movhi	r9, r3
		
	tc_init(Timer, (TimerChannel%3), TimerMode);
   82090:	4c14      	ldr	r4, [pc, #80]	; (820e4 <timer_init+0x80>)
   82092:	fba4 3405 	umull	r3, r4, r4, r5
   82096:	0864      	lsrs	r4, r4, #1
   82098:	eb04 0444 	add.w	r4, r4, r4, lsl #1
   8209c:	1b2c      	subs	r4, r5, r4
   8209e:	4642      	mov	r2, r8
   820a0:	4621      	mov	r1, r4
   820a2:	4648      	mov	r0, r9
   820a4:	4b10      	ldr	r3, [pc, #64]	; (820e8 <timer_init+0x84>)
   820a6:	4798      	blx	r3
	
	interrupts_enable_interrupt_vector(TC0_IRQn + TimerChannel, TimerInterruptPriority);
   820a8:	4639      	mov	r1, r7
   820aa:	4650      	mov	r0, sl
   820ac:	4b0f      	ldr	r3, [pc, #60]	; (820ec <timer_init+0x88>)
   820ae:	4798      	blx	r3
	
	tc_enable_interrupt(Timer, (TimerChannel%3), InterruptMode);
   820b0:	4632      	mov	r2, r6
   820b2:	4621      	mov	r1, r4
   820b4:	4648      	mov	r0, r9
   820b6:	4b0e      	ldr	r3, [pc, #56]	; (820f0 <timer_init+0x8c>)
   820b8:	4798      	blx	r3
	
	tc_start(Timer, (TimerChannel%3));
   820ba:	4621      	mov	r1, r4
   820bc:	4648      	mov	r0, r9
   820be:	4b0d      	ldr	r3, [pc, #52]	; (820f4 <timer_init+0x90>)
   820c0:	4798      	blx	r3
	
	// TODO !!!!!!!!!!!!!
	TC8_Overflow = FALSE;
   820c2:	2300      	movs	r3, #0
   820c4:	4a0c      	ldr	r2, [pc, #48]	; (820f8 <timer_init+0x94>)
   820c6:	7013      	strb	r3, [r2, #0]
	millis = 0;
   820c8:	4a0c      	ldr	r2, [pc, #48]	; (820fc <timer_init+0x98>)
   820ca:	6013      	str	r3, [r2, #0]
   820cc:	e8bd 87f0 	ldmia.w	sp!, {r4, r5, r6, r7, r8, r9, sl, pc}
		Timer = TC0; 
   820d0:	f8df 902c 	ldr.w	r9, [pc, #44]	; 82100 <timer_init+0x9c>
   820d4:	e7dc      	b.n	82090 <timer_init+0x2c>
   820d6:	bf00      	nop
   820d8:	000806f9 	.word	0x000806f9
   820dc:	40088000 	.word	0x40088000
   820e0:	40084000 	.word	0x40084000
   820e4:	aaaaaaab 	.word	0xaaaaaaab
   820e8:	0008074d 	.word	0x0008074d
   820ec:	000818a1 	.word	0x000818a1
   820f0:	0008077d 	.word	0x0008077d
   820f4:	00080765 	.word	0x00080765
   820f8:	20070a34 	.word	0x20070a34
   820fc:	20072448 	.word	0x20072448
   82100:	40080000 	.word	0x40080000

00082104 <timer_do_inj_or_ign>:
		// TODO: Necessary to handle the Overflow probably best to check when loading RA, RB and RC
	}
}

void timer_do_inj_or_ign(struct cylinder_output_manager *Inj_or_Ign, struct cylinder_ *Cyl)
{
   82104:	b538      	push	{r3, r4, r5, lr}
	if (Inj_or_Ign->EventPending)
   82106:	7c03      	ldrb	r3, [r0, #16]
   82108:	b13b      	cbz	r3, 8211a <timer_do_inj_or_ign+0x16>
	{
		Inj_or_Ign->pio->PIO_CODR = Inj_or_Ign->OutputPin;			// Sets pin to high
   8210a:	6983      	ldr	r3, [r0, #24]
   8210c:	6942      	ldr	r2, [r0, #20]
   8210e:	635a      	str	r2, [r3, #52]	; 0x34
		Inj_or_Ign->EventPending = FALSE;
   82110:	2300      	movs	r3, #0
   82112:	7403      	strb	r3, [r0, #16]
	{
		Inj_or_Ign->pio->PIO_SODR = Inj_or_Ign->OutputPin;			// Sets pin to low
		//debug_cylinder[CylinderNr].InjRealTimeTurnOffCount = Cyl->Tc_channel->TC_CV;
	}
	// TODO: NEEDS TO BE TESTED
	if (Inj_or_Ign->EventOnSameTooth)							// Check if Off event is at the same tooth
   82114:	7c43      	ldrb	r3, [r0, #17]
   82116:	b923      	cbnz	r3, 82122 <timer_do_inj_or_ign+0x1e>
   82118:	bd38      	pop	{r3, r4, r5, pc}
		Inj_or_Ign->pio->PIO_SODR = Inj_or_Ign->OutputPin;			// Sets pin to low
   8211a:	6983      	ldr	r3, [r0, #24]
   8211c:	6942      	ldr	r2, [r0, #20]
   8211e:	631a      	str	r2, [r3, #48]	; 0x30
   82120:	e7f8      	b.n	82114 <timer_do_inj_or_ign+0x10>
   82122:	4604      	mov	r4, r0
	{
		*(Inj_or_Ign->TcCompareRegister) = math_sum_with_overflow_protection(Cyl->Tc_channel->TC_CV, Inj_or_Ign->CntTimingOff);
   82124:	69c5      	ldr	r5, [r0, #28]
   82126:	6c0b      	ldr	r3, [r1, #64]	; 0x40
   82128:	6918      	ldr	r0, [r3, #16]
   8212a:	6861      	ldr	r1, [r4, #4]
   8212c:	4b02      	ldr	r3, [pc, #8]	; (82138 <timer_do_inj_or_ign+0x34>)
   8212e:	4798      	blx	r3
   82130:	6028      	str	r0, [r5, #0]
		Inj_or_Ign->EventOnSameTooth = FALSE;
   82132:	2300      	movs	r3, #0
   82134:	7463      	strb	r3, [r4, #17]
	}
}
   82136:	e7ef      	b.n	82118 <timer_do_inj_or_ign+0x14>
   82138:	00081d69 	.word	0x00081d69

0008213c <timer_do_cylinder>:
{
   8213c:	b538      	push	{r3, r4, r5, lr}
   8213e:	4604      	mov	r4, r0
	uint32_t CounterValue = Cyl->Tc_channel->TC_CV;
   82140:	eb00 1200 	add.w	r2, r0, r0, lsl #4
   82144:	4b10      	ldr	r3, [pc, #64]	; (82188 <timer_do_cylinder+0x4c>)
   82146:	eb03 0382 	add.w	r3, r3, r2, lsl #2
   8214a:	6c1b      	ldr	r3, [r3, #64]	; 0x40
   8214c:	691a      	ldr	r2, [r3, #16]
	uint32_t TimerStatus = Cyl->Tc_channel->TC_SR;
   8214e:	6a1d      	ldr	r5, [r3, #32]
	if (TimerStatus & TC_SR_CPAS) // Compare register A ignition 1
   82150:	f015 0f04 	tst.w	r5, #4
   82154:	d103      	bne.n	8215e <timer_do_cylinder+0x22>
	if (TimerStatus & TC_SR_CPBS) // Compare register B injector 1
   82156:	f015 0f08 	tst.w	r5, #8
   8215a:	d109      	bne.n	82170 <timer_do_cylinder+0x34>
   8215c:	bd38      	pop	{r3, r4, r5, pc}
		timer_do_inj_or_ign(&cylinder[CylinderNr].Ign, &cylinder[CylinderNr]);
   8215e:	eb00 1000 	add.w	r0, r0, r0, lsl #4
   82162:	4b09      	ldr	r3, [pc, #36]	; (82188 <timer_do_cylinder+0x4c>)
   82164:	eb03 0080 	add.w	r0, r3, r0, lsl #2
   82168:	4601      	mov	r1, r0
   8216a:	4b08      	ldr	r3, [pc, #32]	; (8218c <timer_do_cylinder+0x50>)
   8216c:	4798      	blx	r3
   8216e:	e7f2      	b.n	82156 <timer_do_cylinder+0x1a>
   82170:	eb04 1404 	add.w	r4, r4, r4, lsl #4
   82174:	00a1      	lsls	r1, r4, #2
		timer_do_inj_or_ign(&cylinder[CylinderNr].Inj, &cylinder[CylinderNr]);
   82176:	4b04      	ldr	r3, [pc, #16]	; (82188 <timer_do_cylinder+0x4c>)
   82178:	f101 0020 	add.w	r0, r1, #32
   8217c:	4419      	add	r1, r3
   8217e:	4418      	add	r0, r3
   82180:	4b02      	ldr	r3, [pc, #8]	; (8218c <timer_do_cylinder+0x50>)
   82182:	4798      	blx	r3
}
   82184:	e7ea      	b.n	8215c <timer_do_cylinder+0x20>
   82186:	bf00      	nop
   82188:	20070e38 	.word	0x20070e38
   8218c:	00082105 	.word	0x00082105

00082190 <TC0_Handler>:
	CPBS: RB Compare Status 
	CPCS: RC Compare Status                                             */
/************************************************************************/

// Cylinder handlers
void TC0_Handler(void) { timer_do_cylinder(CYLINDER_1_TIMER); }
   82190:	b508      	push	{r3, lr}
   82192:	2000      	movs	r0, #0
   82194:	4b01      	ldr	r3, [pc, #4]	; (8219c <TC0_Handler+0xc>)
   82196:	4798      	blx	r3
   82198:	bd08      	pop	{r3, pc}
   8219a:	bf00      	nop
   8219c:	0008213d 	.word	0x0008213d

000821a0 <TC1_Handler>:
void TC1_Handler(void) { timer_do_cylinder(CYLINDER_2_TIMER); }
   821a0:	b508      	push	{r3, lr}
   821a2:	2001      	movs	r0, #1
   821a4:	4b01      	ldr	r3, [pc, #4]	; (821ac <TC1_Handler+0xc>)
   821a6:	4798      	blx	r3
   821a8:	bd08      	pop	{r3, pc}
   821aa:	bf00      	nop
   821ac:	0008213d 	.word	0x0008213d

000821b0 <TC2_Handler>:
void TC2_Handler(void) { timer_do_cylinder(CYLINDER_3_TIMER); }
   821b0:	b508      	push	{r3, lr}
   821b2:	2002      	movs	r0, #2
   821b4:	4b01      	ldr	r3, [pc, #4]	; (821bc <TC2_Handler+0xc>)
   821b6:	4798      	blx	r3
   821b8:	bd08      	pop	{r3, pc}
   821ba:	bf00      	nop
   821bc:	0008213d 	.word	0x0008213d

000821c0 <TC3_Handler>:
void TC3_Handler(void) { timer_do_cylinder(CYLINDER_4_TIMER); }
   821c0:	b508      	push	{r3, lr}
   821c2:	2003      	movs	r0, #3
   821c4:	4b01      	ldr	r3, [pc, #4]	; (821cc <TC3_Handler+0xc>)
   821c6:	4798      	blx	r3
   821c8:	bd08      	pop	{r3, pc}
   821ca:	bf00      	nop
   821cc:	0008213d 	.word	0x0008213d

000821d0 <TC4_Handler>:
void TC4_Handler(void) { timer_do_cylinder(CYLINDER_5_TIMER); }
   821d0:	b508      	push	{r3, lr}
   821d2:	2004      	movs	r0, #4
   821d4:	4b01      	ldr	r3, [pc, #4]	; (821dc <TC4_Handler+0xc>)
   821d6:	4798      	blx	r3
   821d8:	bd08      	pop	{r3, pc}
   821da:	bf00      	nop
   821dc:	0008213d 	.word	0x0008213d

000821e0 <TC5_Handler>:
void TC5_Handler(void) { timer_do_cylinder(CYLINDER_6_TIMER); }
   821e0:	b508      	push	{r3, lr}
   821e2:	2005      	movs	r0, #5
   821e4:	4b01      	ldr	r3, [pc, #4]	; (821ec <TC5_Handler+0xc>)
   821e6:	4798      	blx	r3
   821e8:	bd08      	pop	{r3, pc}
   821ea:	bf00      	nop
   821ec:	0008213d 	.word	0x0008213d

000821f0 <TC6_Handler>:
void TC6_Handler(void) { timer_do_cylinder(CYLINDER_7_TIMER); }
   821f0:	b508      	push	{r3, lr}
   821f2:	2006      	movs	r0, #6
   821f4:	4b01      	ldr	r3, [pc, #4]	; (821fc <TC6_Handler+0xc>)
   821f6:	4798      	blx	r3
   821f8:	bd08      	pop	{r3, pc}
   821fa:	bf00      	nop
   821fc:	0008213d 	.word	0x0008213d

00082200 <TC7_Handler>:
void TC7_Handler(void) { timer_do_cylinder(CYLINDER_8_TIMER); }
   82200:	b508      	push	{r3, lr}
   82202:	2007      	movs	r0, #7
   82204:	4b01      	ldr	r3, [pc, #4]	; (8220c <TC7_Handler+0xc>)
   82206:	4798      	blx	r3
   82208:	bd08      	pop	{r3, pc}
   8220a:	bf00      	nop
   8220c:	0008213d 	.word	0x0008213d

00082210 <TC8_Handler>:

// GLOBAL_TIMER
void TC8_Handler(void)
{
   82210:	b538      	push	{r3, r4, r5, lr}
	// Read the current TC8 Counter Value
	uint32_t CounterValue = TC2->TC_CHANNEL[2].TC_CV;
   82212:	4b22      	ldr	r3, [pc, #136]	; (8229c <TC8_Handler+0x8c>)
   82214:	f8d3 5090 	ldr.w	r5, [r3, #144]	; 0x90
	// Read the current TC8 Status, Compare or overflow
	uint32_t TimerStatus = TC2->TC_CHANNEL[2].TC_SR;
   82218:	f8d3 40a0 	ldr.w	r4, [r3, #160]	; 0xa0
	
	if (TimerStatus & TC_SR_CPAS) // Compare Register A ADC control
   8221c:	f014 0f04 	tst.w	r4, #4
   82220:	d10e      	bne.n	82240 <TC8_Handler+0x30>
	{
		tc_write_ra(TC2, 2, CounterValue + GLOBAL_TIMER_FREQ/GlobalTimerFreqADCScaler);
		adc_start(ADC);
		//uart_transfer('a');
	}
	if (TimerStatus & TC_SR_CPBS) // Compare register B extra
   82222:	f014 0f08 	tst.w	r4, #8
   82226:	d004      	beq.n	82232 <TC8_Handler+0x22>
	{
		TC2->TC_CHANNEL[2].TC_RB = CounterValue + GLOBAL_TIMER_FREQ/MILLI_SEC;
   82228:	f605 2341 	addw	r3, r5, #2625	; 0xa41
   8222c:	4a1b      	ldr	r2, [pc, #108]	; (8229c <TC8_Handler+0x8c>)
   8222e:	f8c2 3098 	str.w	r3, [r2, #152]	; 0x98
		//tc_write_rb(TC2, 2, CounterValue + GLOBAL_TIMER_FREQ/MILLI_SEC);
		//tc_write_rb(TC2, 2, CounterValue + GLOBAL_TIMER_FREQ/GlobalTimerFreqUARTScaler);
		// TODO: START UART
		//uart_transfer('b');
	}
	if (TimerStatus & TC_SR_CPCS) // Compare register C interrupt per millisec
   82232:	f014 0f10 	tst.w	r4, #16
   82236:	d111      	bne.n	8225c <TC8_Handler+0x4c>
	{
		tc_write_rc(TC2, 2, CounterValue + GLOBAL_TIMER_FREQ/MILLI_SEC);
		millis++;
		//tc_write_rc(TC2, 2, CounterValue + GLOBAL_TIMER_FREQ/GlobalTimerFreqTelemetryScaler);
	}
	if (TimerStatus & TC_SR_COVFS)
   82238:	f014 0f01 	tst.w	r4, #1
   8223c:	d119      	bne.n	82272 <TC8_Handler+0x62>
   8223e:	bd38      	pop	{r3, r4, r5, pc}
		tc_write_ra(TC2, 2, CounterValue + GLOBAL_TIMER_FREQ/GlobalTimerFreqADCScaler);
   82240:	4b17      	ldr	r3, [pc, #92]	; (822a0 <TC8_Handler+0x90>)
   82242:	881b      	ldrh	r3, [r3, #0]
   82244:	4a17      	ldr	r2, [pc, #92]	; (822a4 <TC8_Handler+0x94>)
   82246:	fb92 f2f3 	sdiv	r2, r2, r3
   8224a:	442a      	add	r2, r5
   8224c:	2102      	movs	r1, #2
   8224e:	4813      	ldr	r0, [pc, #76]	; (8229c <TC8_Handler+0x8c>)
   82250:	4b15      	ldr	r3, [pc, #84]	; (822a8 <TC8_Handler+0x98>)
   82252:	4798      	blx	r3
		adc_start(ADC);
   82254:	4815      	ldr	r0, [pc, #84]	; (822ac <TC8_Handler+0x9c>)
   82256:	4b16      	ldr	r3, [pc, #88]	; (822b0 <TC8_Handler+0xa0>)
   82258:	4798      	blx	r3
   8225a:	e7e2      	b.n	82222 <TC8_Handler+0x12>
		tc_write_rc(TC2, 2, CounterValue + GLOBAL_TIMER_FREQ/MILLI_SEC);
   8225c:	f605 2241 	addw	r2, r5, #2625	; 0xa41
   82260:	2102      	movs	r1, #2
   82262:	480e      	ldr	r0, [pc, #56]	; (8229c <TC8_Handler+0x8c>)
   82264:	4b13      	ldr	r3, [pc, #76]	; (822b4 <TC8_Handler+0xa4>)
   82266:	4798      	blx	r3
		millis++;
   82268:	4a13      	ldr	r2, [pc, #76]	; (822b8 <TC8_Handler+0xa8>)
   8226a:	6813      	ldr	r3, [r2, #0]
   8226c:	3301      	adds	r3, #1
   8226e:	6013      	str	r3, [r2, #0]
   82270:	e7e2      	b.n	82238 <TC8_Handler+0x28>
	{
		TC8_Overflow = TRUE;
   82272:	2201      	movs	r2, #1
   82274:	4b11      	ldr	r3, [pc, #68]	; (822bc <TC8_Handler+0xac>)
   82276:	701a      	strb	r2, [r3, #0]
		tc_write_ra(TC2, 2, GLOBAL_TIMER_FREQ/GlobalTimerFreqADCScaler);
   82278:	4b09      	ldr	r3, [pc, #36]	; (822a0 <TC8_Handler+0x90>)
   8227a:	881b      	ldrh	r3, [r3, #0]
   8227c:	4c07      	ldr	r4, [pc, #28]	; (8229c <TC8_Handler+0x8c>)
   8227e:	4a09      	ldr	r2, [pc, #36]	; (822a4 <TC8_Handler+0x94>)
   82280:	fb92 f2f3 	sdiv	r2, r2, r3
   82284:	2102      	movs	r1, #2
   82286:	4620      	mov	r0, r4
   82288:	4b07      	ldr	r3, [pc, #28]	; (822a8 <TC8_Handler+0x98>)
   8228a:	4798      	blx	r3
		//tc_write_rb(TC2, 2, GLOBAL_TIMER_FREQ/GlobalTimerFreqUARTScaler);
		tc_write_rc(TC2, 2, GLOBAL_TIMER_FREQ/MILLI_SEC);
   8228c:	f640 2241 	movw	r2, #2625	; 0xa41
   82290:	2102      	movs	r1, #2
   82292:	4620      	mov	r0, r4
   82294:	4b07      	ldr	r3, [pc, #28]	; (822b4 <TC8_Handler+0xa4>)
   82296:	4798      	blx	r3
		// TODO MAYBE
	}
}
   82298:	e7d1      	b.n	8223e <TC8_Handler+0x2e>
   8229a:	bf00      	nop
   8229c:	40088000 	.word	0x40088000
   822a0:	20071af4 	.word	0x20071af4
   822a4:	00280de8 	.word	0x00280de8
   822a8:	0008076d 	.word	0x0008076d
   822ac:	400c0000 	.word	0x400c0000
   822b0:	000802e7 	.word	0x000802e7
   822b4:	00080775 	.word	0x00080775
   822b8:	20072448 	.word	0x20072448
   822bc:	20070a34 	.word	0x20070a34

000822c0 <tunerstudio_init>:
#include "tunerstudiocomm.h"

// Initialization function
void tunerstudio_init(void)
{
	CurrPage = 255;
   822c0:	22ff      	movs	r2, #255	; 0xff
   822c2:	4b07      	ldr	r3, [pc, #28]	; (822e0 <tunerstudio_init+0x20>)
   822c4:	701a      	strb	r2, [r3, #0]
	NewPageFlag = FALSE;
   822c6:	2300      	movs	r3, #0
   822c8:	4a06      	ldr	r2, [pc, #24]	; (822e4 <tunerstudio_init+0x24>)
   822ca:	7013      	strb	r3, [r2, #0]
	WriteFlag = FALSE;
   822cc:	4a06      	ldr	r2, [pc, #24]	; (822e8 <tunerstudio_init+0x28>)
   822ce:	7013      	strb	r3, [r2, #0]
	Offset1 = 0;
   822d0:	4a06      	ldr	r2, [pc, #24]	; (822ec <tunerstudio_init+0x2c>)
   822d2:	7013      	strb	r3, [r2, #0]
	Offset2 = 0;
   822d4:	4a06      	ldr	r2, [pc, #24]	; (822f0 <tunerstudio_init+0x30>)
   822d6:	7013      	strb	r3, [r2, #0]
	OffsetFlag = FALSE;
   822d8:	4a06      	ldr	r2, [pc, #24]	; (822f4 <tunerstudio_init+0x34>)
   822da:	7013      	strb	r3, [r2, #0]
   822dc:	4770      	bx	lr
   822de:	bf00      	nop
   822e0:	20070a28 	.word	0x20070a28
   822e4:	20072445 	.word	0x20072445
   822e8:	200709da 	.word	0x200709da
   822ec:	20071efa 	.word	0x20071efa
   822f0:	20071f0c 	.word	0x20071f0c
   822f4:	20071ef9 	.word	0x20071ef9

000822f8 <tunerstudio_send_struct>:
	tunerstudio_send_struct(Current->Ybin, Current->Ysize);
}
 

void tunerstudio_send_struct(uint8_t *ConfigStructPointer, uint16_t ConfigLen)
{
   822f8:	b570      	push	{r4, r5, r6, lr}
	for (uint16_t i = 0; i < ConfigLen; i++)
   822fa:	b149      	cbz	r1, 82310 <tunerstudio_send_struct+0x18>
   822fc:	1e44      	subs	r4, r0, #1
   822fe:	1e4d      	subs	r5, r1, #1
   82300:	b2ad      	uxth	r5, r5
   82302:	4405      	add	r5, r0
		uart_load_tx_buffer(*((uint8_t *)ConfigStructPointer + i));
   82304:	4e04      	ldr	r6, [pc, #16]	; (82318 <tunerstudio_send_struct+0x20>)
   82306:	f814 0f01 	ldrb.w	r0, [r4, #1]!
   8230a:	47b0      	blx	r6
	for (uint16_t i = 0; i < ConfigLen; i++)
   8230c:	42ac      	cmp	r4, r5
   8230e:	d1fa      	bne.n	82306 <tunerstudio_send_struct+0xe>
	uart_enable_tx_interrupt();
   82310:	4b02      	ldr	r3, [pc, #8]	; (8231c <tunerstudio_send_struct+0x24>)
   82312:	4798      	blx	r3
   82314:	bd70      	pop	{r4, r5, r6, pc}
   82316:	bf00      	nop
   82318:	00082ac5 	.word	0x00082ac5
   8231c:	00082ae1 	.word	0x00082ae1

00082320 <tunerstudio_send_Table3D>:
{
   82320:	b570      	push	{r4, r5, r6, lr}
   82322:	4605      	mov	r5, r0
	for (uint8_t i = 0; i < Current->Ysize; i++)
   82324:	7b43      	ldrb	r3, [r0, #13]
   82326:	b15b      	cbz	r3, 82340 <tunerstudio_send_Table3D+0x20>
   82328:	2400      	movs	r4, #0
		tunerstudio_send_struct(Current->Table[i], Current->Xsize);
   8232a:	4e09      	ldr	r6, [pc, #36]	; (82350 <tunerstudio_send_Table3D+0x30>)
   8232c:	682b      	ldr	r3, [r5, #0]
   8232e:	7b29      	ldrb	r1, [r5, #12]
   82330:	f853 0024 	ldr.w	r0, [r3, r4, lsl #2]
   82334:	47b0      	blx	r6
	for (uint8_t i = 0; i < Current->Ysize; i++)
   82336:	3401      	adds	r4, #1
   82338:	b2e4      	uxtb	r4, r4
   8233a:	7b6b      	ldrb	r3, [r5, #13]
   8233c:	42a3      	cmp	r3, r4
   8233e:	d8f5      	bhi.n	8232c <tunerstudio_send_Table3D+0xc>
	tunerstudio_send_struct(Current->Xbin, Current->Xsize);
   82340:	7b29      	ldrb	r1, [r5, #12]
   82342:	6868      	ldr	r0, [r5, #4]
   82344:	4c02      	ldr	r4, [pc, #8]	; (82350 <tunerstudio_send_Table3D+0x30>)
   82346:	47a0      	blx	r4
	tunerstudio_send_struct(Current->Ybin, Current->Ysize);
   82348:	7b69      	ldrb	r1, [r5, #13]
   8234a:	68a8      	ldr	r0, [r5, #8]
   8234c:	47a0      	blx	r4
   8234e:	bd70      	pop	{r4, r5, r6, pc}
   82350:	000822f9 	.word	0x000822f9

00082354 <tunerstudio_send_page>:
{
   82354:	b508      	push	{r3, lr}
	switch(CurrPage)
   82356:	4b1b      	ldr	r3, [pc, #108]	; (823c4 <tunerstudio_send_page+0x70>)
   82358:	781b      	ldrb	r3, [r3, #0]
   8235a:	3b01      	subs	r3, #1
   8235c:	2b08      	cmp	r3, #8
   8235e:	d82f      	bhi.n	823c0 <tunerstudio_send_page+0x6c>
   82360:	e8df f003 	tbb	[pc, r3]
   82364:	120e0905 	.word	0x120e0905
   82368:	25201b17 	.word	0x25201b17
   8236c:	2a          	.byte	0x2a
   8236d:	00          	.byte	0x00
		case PAGE_VE:		tunerstudio_send_Table3D(&VE);										break;
   8236e:	4816      	ldr	r0, [pc, #88]	; (823c8 <tunerstudio_send_page+0x74>)
   82370:	4b16      	ldr	r3, [pc, #88]	; (823cc <tunerstudio_send_page+0x78>)
   82372:	4798      	blx	r3
   82374:	bd08      	pop	{r3, pc}
		case PAGE_CONFIG2:	tunerstudio_send_struct(&engine_config2, sizeof(engine_config2));	break;
   82376:	214a      	movs	r1, #74	; 0x4a
   82378:	4815      	ldr	r0, [pc, #84]	; (823d0 <tunerstudio_send_page+0x7c>)
   8237a:	4b16      	ldr	r3, [pc, #88]	; (823d4 <tunerstudio_send_page+0x80>)
   8237c:	4798      	blx	r3
   8237e:	bd08      	pop	{r3, pc}
		case PAGE_IGN:		tunerstudio_send_Table3D(&IGN);										break;
   82380:	4815      	ldr	r0, [pc, #84]	; (823d8 <tunerstudio_send_page+0x84>)
   82382:	4b12      	ldr	r3, [pc, #72]	; (823cc <tunerstudio_send_page+0x78>)
   82384:	4798      	blx	r3
   82386:	bd08      	pop	{r3, pc}
		case PAGE_CONFIG4:	tunerstudio_send_struct(&engine_config4, sizeof(engine_config4));	break;
   82388:	2140      	movs	r1, #64	; 0x40
   8238a:	4814      	ldr	r0, [pc, #80]	; (823dc <tunerstudio_send_page+0x88>)
   8238c:	4b11      	ldr	r3, [pc, #68]	; (823d4 <tunerstudio_send_page+0x80>)
   8238e:	4798      	blx	r3
   82390:	bd08      	pop	{r3, pc}
		case PAGE_AFR:		tunerstudio_send_Table3D(&AFR);										break;
   82392:	4813      	ldr	r0, [pc, #76]	; (823e0 <tunerstudio_send_page+0x8c>)
   82394:	4b0d      	ldr	r3, [pc, #52]	; (823cc <tunerstudio_send_page+0x78>)
   82396:	4798      	blx	r3
   82398:	bd08      	pop	{r3, pc}
		case PAGE_CONFIG6:	tunerstudio_send_struct(&engine_config6, sizeof(engine_config6));	break;
   8239a:	2140      	movs	r1, #64	; 0x40
   8239c:	4811      	ldr	r0, [pc, #68]	; (823e4 <tunerstudio_send_page+0x90>)
   8239e:	4b0d      	ldr	r3, [pc, #52]	; (823d4 <tunerstudio_send_page+0x80>)
   823a0:	4798      	blx	r3
   823a2:	bd08      	pop	{r3, pc}
		case PAGE_CONFIG7:	tunerstudio_send_struct(&engine_config7, sizeof(engine_config7));	break;
   823a4:	2140      	movs	r1, #64	; 0x40
   823a6:	4810      	ldr	r0, [pc, #64]	; (823e8 <tunerstudio_send_page+0x94>)
   823a8:	4b0a      	ldr	r3, [pc, #40]	; (823d4 <tunerstudio_send_page+0x80>)
   823aa:	4798      	blx	r3
   823ac:	bd08      	pop	{r3, pc}
		case PAGE_CONFIG8:	tunerstudio_send_struct(&engine_config8, sizeof(engine_config8));	break;
   823ae:	21a0      	movs	r1, #160	; 0xa0
   823b0:	480e      	ldr	r0, [pc, #56]	; (823ec <tunerstudio_send_page+0x98>)
   823b2:	4b08      	ldr	r3, [pc, #32]	; (823d4 <tunerstudio_send_page+0x80>)
   823b4:	4798      	blx	r3
   823b6:	bd08      	pop	{r3, pc}
		case PAGE_CONFIG9:	tunerstudio_send_struct(&engine_config9, sizeof(engine_config9));	break;
   823b8:	21c0      	movs	r1, #192	; 0xc0
   823ba:	480d      	ldr	r0, [pc, #52]	; (823f0 <tunerstudio_send_page+0x9c>)
   823bc:	4b05      	ldr	r3, [pc, #20]	; (823d4 <tunerstudio_send_page+0x80>)
   823be:	4798      	blx	r3
   823c0:	bd08      	pop	{r3, pc}
   823c2:	bf00      	nop
   823c4:	20070a28 	.word	0x20070a28
   823c8:	20071058 	.word	0x20071058
   823cc:	00082321 	.word	0x00082321
   823d0:	20071128 	.word	0x20071128
   823d4:	000822f9 	.word	0x000822f9
   823d8:	20071f68 	.word	0x20071f68
   823dc:	20071174 	.word	0x20071174
   823e0:	20071efc 	.word	0x20071efc
   823e4:	200709e8 	.word	0x200709e8
   823e8:	20071f1c 	.word	0x20071f1c
   823ec:	20072394 	.word	0x20072394
   823f0:	20071068 	.word	0x20071068

000823f4 <tunerstudio_write_Table3D>:
}

void tunerstudio_write_Table3D(struct Table3D *Current, uint8_t data)
{
	// table[line][column]
	if (!Offset2){ // Write data to table
   823f4:	4b0d      	ldr	r3, [pc, #52]	; (8242c <tunerstudio_write_Table3D+0x38>)
   823f6:	781b      	ldrb	r3, [r3, #0]
   823f8:	b143      	cbz	r3, 8240c <tunerstudio_write_Table3D+0x18>
		Current->Table[Offset1 >> 4][Offset1 & 0x0f] = data;
	}
	else 
	{
		if (Offset1 < THREE_D_TABLE_SIZE)
   823fa:	4b0d      	ldr	r3, [pc, #52]	; (82430 <tunerstudio_write_Table3D+0x3c>)
   823fc:	781b      	ldrb	r3, [r3, #0]
   823fe:	2b0f      	cmp	r3, #15
   82400:	d910      	bls.n	82424 <tunerstudio_write_Table3D+0x30>
		{
			Current->Xbin[Offset1] = data;
		}
		else
		{
			Current->Ybin[Offset1 - THREE_D_TABLE_SIZE] = data;
   82402:	6882      	ldr	r2, [r0, #8]
   82404:	4413      	add	r3, r2
   82406:	f803 1c10 	strb.w	r1, [r3, #-16]
		}
	}
}
   8240a:	4770      	bx	lr
{
   8240c:	b410      	push	{r4}
		Current->Table[Offset1 >> 4][Offset1 & 0x0f] = data;
   8240e:	4b08      	ldr	r3, [pc, #32]	; (82430 <tunerstudio_write_Table3D+0x3c>)
   82410:	781b      	ldrb	r3, [r3, #0]
   82412:	091c      	lsrs	r4, r3, #4
   82414:	6802      	ldr	r2, [r0, #0]
   82416:	f003 030f 	and.w	r3, r3, #15
   8241a:	f852 2024 	ldr.w	r2, [r2, r4, lsl #2]
   8241e:	54d1      	strb	r1, [r2, r3]
}
   82420:	bc10      	pop	{r4}
   82422:	4770      	bx	lr
			Current->Xbin[Offset1] = data;
   82424:	6842      	ldr	r2, [r0, #4]
   82426:	54d1      	strb	r1, [r2, r3]
   82428:	4770      	bx	lr
   8242a:	bf00      	nop
   8242c:	20071f0c 	.word	0x20071f0c
   82430:	20071efa 	.word	0x20071efa

00082434 <tunerstudio_write_data>:
{
   82434:	b508      	push	{r3, lr}
	switch(CurrPage)
   82436:	4b1c      	ldr	r3, [pc, #112]	; (824a8 <tunerstudio_write_data+0x74>)
   82438:	781b      	ldrb	r3, [r3, #0]
   8243a:	3b01      	subs	r3, #1
   8243c:	2b08      	cmp	r3, #8
   8243e:	d832      	bhi.n	824a6 <tunerstudio_write_data+0x72>
   82440:	e8df f003 	tbb	[pc, r3]
   82444:	140f0a05 	.word	0x140f0a05
   82448:	28231e19 	.word	0x28231e19
   8244c:	2d          	.byte	0x2d
   8244d:	00          	.byte	0x00
		case PAGE_VE:		tunerstudio_write_Table3D(&VE, data);				break;
   8244e:	b2c1      	uxtb	r1, r0
   82450:	4816      	ldr	r0, [pc, #88]	; (824ac <tunerstudio_write_data+0x78>)
   82452:	4b17      	ldr	r3, [pc, #92]	; (824b0 <tunerstudio_write_data+0x7c>)
   82454:	4798      	blx	r3
   82456:	bd08      	pop	{r3, pc}

void tunerstudio_write_struct(uint8_t *ConfigStructPointer, uint8_t data)
{
	*(ConfigStructPointer + Offset1) = data;
   82458:	4b16      	ldr	r3, [pc, #88]	; (824b4 <tunerstudio_write_data+0x80>)
   8245a:	781a      	ldrb	r2, [r3, #0]
   8245c:	4b16      	ldr	r3, [pc, #88]	; (824b8 <tunerstudio_write_data+0x84>)
		case PAGE_CONFIG2:	tunerstudio_write_struct(&engine_config2, data);	break;
   8245e:	54d0      	strb	r0, [r2, r3]
   82460:	bd08      	pop	{r3, pc}
		case PAGE_IGN:		tunerstudio_write_Table3D(&IGN, data);				break;
   82462:	b2c1      	uxtb	r1, r0
   82464:	4815      	ldr	r0, [pc, #84]	; (824bc <tunerstudio_write_data+0x88>)
   82466:	4b12      	ldr	r3, [pc, #72]	; (824b0 <tunerstudio_write_data+0x7c>)
   82468:	4798      	blx	r3
   8246a:	bd08      	pop	{r3, pc}
	*(ConfigStructPointer + Offset1) = data;
   8246c:	4b11      	ldr	r3, [pc, #68]	; (824b4 <tunerstudio_write_data+0x80>)
   8246e:	781a      	ldrb	r2, [r3, #0]
   82470:	4b13      	ldr	r3, [pc, #76]	; (824c0 <tunerstudio_write_data+0x8c>)
		case PAGE_CONFIG4:	tunerstudio_write_struct(&engine_config4, data);	break;
   82472:	54d0      	strb	r0, [r2, r3]
   82474:	bd08      	pop	{r3, pc}
		case PAGE_AFR:		tunerstudio_write_Table3D(&AFR, data);				break;
   82476:	b2c1      	uxtb	r1, r0
   82478:	4812      	ldr	r0, [pc, #72]	; (824c4 <tunerstudio_write_data+0x90>)
   8247a:	4b0d      	ldr	r3, [pc, #52]	; (824b0 <tunerstudio_write_data+0x7c>)
   8247c:	4798      	blx	r3
   8247e:	bd08      	pop	{r3, pc}
	*(ConfigStructPointer + Offset1) = data;
   82480:	4b0c      	ldr	r3, [pc, #48]	; (824b4 <tunerstudio_write_data+0x80>)
   82482:	781a      	ldrb	r2, [r3, #0]
   82484:	4b10      	ldr	r3, [pc, #64]	; (824c8 <tunerstudio_write_data+0x94>)
		case PAGE_CONFIG6:	tunerstudio_write_struct(&engine_config6, data);	break;
   82486:	54d0      	strb	r0, [r2, r3]
   82488:	bd08      	pop	{r3, pc}
	*(ConfigStructPointer + Offset1) = data;
   8248a:	4b0a      	ldr	r3, [pc, #40]	; (824b4 <tunerstudio_write_data+0x80>)
   8248c:	781a      	ldrb	r2, [r3, #0]
   8248e:	4b0f      	ldr	r3, [pc, #60]	; (824cc <tunerstudio_write_data+0x98>)
		case PAGE_CONFIG7:	tunerstudio_write_struct(&engine_config7, data);	break;
   82490:	54d0      	strb	r0, [r2, r3]
   82492:	bd08      	pop	{r3, pc}
	*(ConfigStructPointer + Offset1) = data;
   82494:	4b07      	ldr	r3, [pc, #28]	; (824b4 <tunerstudio_write_data+0x80>)
   82496:	781a      	ldrb	r2, [r3, #0]
   82498:	4b0d      	ldr	r3, [pc, #52]	; (824d0 <tunerstudio_write_data+0x9c>)
		case PAGE_CONFIG8:	tunerstudio_write_struct(&engine_config8, data);	break;
   8249a:	54d0      	strb	r0, [r2, r3]
   8249c:	bd08      	pop	{r3, pc}
	*(ConfigStructPointer + Offset1) = data;
   8249e:	4b05      	ldr	r3, [pc, #20]	; (824b4 <tunerstudio_write_data+0x80>)
   824a0:	781a      	ldrb	r2, [r3, #0]
   824a2:	4b0c      	ldr	r3, [pc, #48]	; (824d4 <tunerstudio_write_data+0xa0>)
		case PAGE_CONFIG9:	tunerstudio_write_struct(&engine_config9, data);	break;
   824a4:	54d0      	strb	r0, [r2, r3]
   824a6:	bd08      	pop	{r3, pc}
   824a8:	20070a28 	.word	0x20070a28
   824ac:	20071058 	.word	0x20071058
   824b0:	000823f5 	.word	0x000823f5
   824b4:	20071efa 	.word	0x20071efa
   824b8:	20071128 	.word	0x20071128
   824bc:	20071f68 	.word	0x20071f68
   824c0:	20071174 	.word	0x20071174
   824c4:	20071efc 	.word	0x20071efc
   824c8:	200709e8 	.word	0x200709e8
   824cc:	20071f1c 	.word	0x20071f1c
   824d0:	20072394 	.word	0x20072394
   824d4:	20071068 	.word	0x20071068

000824d8 <tunerstudio_burn_value_if_changed>:
	EepromIndex += Current->Xsize;
	tunerstudio_burn_struct(Current->Ybin, Current->Ysize, EepromIndex);
}

void tunerstudio_burn_value_if_changed(uint32_t TempValue, uint16_t EepromIndex)
{
   824d8:	b538      	push	{r3, r4, r5, lr}
   824da:	4605      	mov	r5, r0
   824dc:	460c      	mov	r4, r1
	if (eeprom_read_byte(EepromIndex) != TempValue){ // Compare current value with EEPROM value, update EEPROM if it is not the same
   824de:	4608      	mov	r0, r1
   824e0:	4b04      	ldr	r3, [pc, #16]	; (824f4 <tunerstudio_burn_value_if_changed+0x1c>)
   824e2:	4798      	blx	r3
   824e4:	42a8      	cmp	r0, r5
   824e6:	d003      	beq.n	824f0 <tunerstudio_burn_value_if_changed+0x18>
		at24cxx_write_byte(EepromIndex, TempValue);
   824e8:	b2e9      	uxtb	r1, r5
   824ea:	4620      	mov	r0, r4
   824ec:	4b02      	ldr	r3, [pc, #8]	; (824f8 <tunerstudio_burn_value_if_changed+0x20>)
   824ee:	4798      	blx	r3
   824f0:	bd38      	pop	{r3, r4, r5, pc}
   824f2:	bf00      	nop
   824f4:	00081129 	.word	0x00081129
   824f8:	000801b5 	.word	0x000801b5

000824fc <tunerstudio_burn_struct>:
	}
}

void tunerstudio_burn_struct(uint8_t *ConfigStructPointer, uint16_t ConfigLen, uint16_t EepromIndex)
{
   824fc:	b5f8      	push	{r3, r4, r5, r6, r7, lr}
	if (engine_realtime.TwiFault == TRUE) // check if communication with EEPROM is okay
   824fe:	4b0c      	ldr	r3, [pc, #48]	; (82530 <tunerstudio_burn_struct+0x34>)
   82500:	7fdb      	ldrb	r3, [r3, #31]
   82502:	b2db      	uxtb	r3, r3
   82504:	2b01      	cmp	r3, #1
   82506:	d00f      	beq.n	82528 <tunerstudio_burn_struct+0x2c>
   82508:	4614      	mov	r4, r2
	{	
		uart_print_string("EEPROM Fault");
		return;
	}
	for (uint16_t i = 0; i < ConfigLen; i++)
   8250a:	b161      	cbz	r1, 82526 <tunerstudio_burn_struct+0x2a>
   8250c:	1e45      	subs	r5, r0, #1
   8250e:	4411      	add	r1, r2
   82510:	b28e      	uxth	r6, r1
		tunerstudio_burn_value_if_changed(*((uint8_t *)ConfigStructPointer + i), EepromIndex + i);
   82512:	4f08      	ldr	r7, [pc, #32]	; (82534 <tunerstudio_burn_struct+0x38>)
   82514:	4621      	mov	r1, r4
   82516:	f815 0f01 	ldrb.w	r0, [r5, #1]!
   8251a:	47b8      	blx	r7
   8251c:	3401      	adds	r4, #1
   8251e:	b2a4      	uxth	r4, r4
	for (uint16_t i = 0; i < ConfigLen; i++)
   82520:	42b4      	cmp	r4, r6
   82522:	d1f7      	bne.n	82514 <tunerstudio_burn_struct+0x18>
   82524:	bdf8      	pop	{r3, r4, r5, r6, r7, pc}
   82526:	bdf8      	pop	{r3, r4, r5, r6, r7, pc}
		uart_print_string("EEPROM Fault");
   82528:	4803      	ldr	r0, [pc, #12]	; (82538 <tunerstudio_burn_struct+0x3c>)
   8252a:	4b04      	ldr	r3, [pc, #16]	; (8253c <tunerstudio_burn_struct+0x40>)
   8252c:	4798      	blx	r3
		return;
   8252e:	bdf8      	pop	{r3, r4, r5, r6, r7, pc}
   82530:	200715b8 	.word	0x200715b8
   82534:	000824d9 	.word	0x000824d9
   82538:	000843d0 	.word	0x000843d0
   8253c:	00082be1 	.word	0x00082be1

00082540 <tunerstudio_burn_Table3D>:
{
   82540:	b5f8      	push	{r3, r4, r5, r6, r7, lr}
	if (engine_realtime.TwiFault == TRUE) // check if communication with EEPROM is okay
   82542:	4b14      	ldr	r3, [pc, #80]	; (82594 <tunerstudio_burn_Table3D+0x54>)
   82544:	7fdb      	ldrb	r3, [r3, #31]
   82546:	b2db      	uxtb	r3, r3
   82548:	2b01      	cmp	r3, #1
   8254a:	d01f      	beq.n	8258c <tunerstudio_burn_Table3D+0x4c>
   8254c:	4605      	mov	r5, r0
   8254e:	460e      	mov	r6, r1
	for (uint8_t i = 0; i < Current->Ysize; i++)
   82550:	7b43      	ldrb	r3, [r0, #13]
   82552:	b17b      	cbz	r3, 82574 <tunerstudio_burn_Table3D+0x34>
   82554:	2400      	movs	r4, #0
		tunerstudio_burn_struct(Current->Table[i], Current->Xsize, EepromIndex);
   82556:	4f10      	ldr	r7, [pc, #64]	; (82598 <tunerstudio_burn_Table3D+0x58>)
   82558:	682b      	ldr	r3, [r5, #0]
   8255a:	4632      	mov	r2, r6
   8255c:	7b29      	ldrb	r1, [r5, #12]
   8255e:	f853 0024 	ldr.w	r0, [r3, r4, lsl #2]
   82562:	47b8      	blx	r7
		EepromIndex += Current->Xsize;
   82564:	7b2a      	ldrb	r2, [r5, #12]
   82566:	4432      	add	r2, r6
   82568:	b296      	uxth	r6, r2
	for (uint8_t i = 0; i < Current->Ysize; i++)
   8256a:	3401      	adds	r4, #1
   8256c:	b2e4      	uxtb	r4, r4
   8256e:	7b6b      	ldrb	r3, [r5, #13]
   82570:	42a3      	cmp	r3, r4
   82572:	d8f1      	bhi.n	82558 <tunerstudio_burn_Table3D+0x18>
	tunerstudio_burn_struct(Current->Xbin, Current->Xsize, EepromIndex);
   82574:	4632      	mov	r2, r6
   82576:	7b29      	ldrb	r1, [r5, #12]
   82578:	6868      	ldr	r0, [r5, #4]
   8257a:	4c07      	ldr	r4, [pc, #28]	; (82598 <tunerstudio_burn_Table3D+0x58>)
   8257c:	47a0      	blx	r4
	EepromIndex += Current->Xsize;
   8257e:	7b2a      	ldrb	r2, [r5, #12]
   82580:	4432      	add	r2, r6
	tunerstudio_burn_struct(Current->Ybin, Current->Ysize, EepromIndex);
   82582:	b292      	uxth	r2, r2
   82584:	7b69      	ldrb	r1, [r5, #13]
   82586:	68a8      	ldr	r0, [r5, #8]
   82588:	47a0      	blx	r4
   8258a:	bdf8      	pop	{r3, r4, r5, r6, r7, pc}
		uart_print_string("EEPROM Fault");
   8258c:	4803      	ldr	r0, [pc, #12]	; (8259c <tunerstudio_burn_Table3D+0x5c>)
   8258e:	4b04      	ldr	r3, [pc, #16]	; (825a0 <tunerstudio_burn_Table3D+0x60>)
   82590:	4798      	blx	r3
		return;
   82592:	bdf8      	pop	{r3, r4, r5, r6, r7, pc}
   82594:	200715b8 	.word	0x200715b8
   82598:	000824fd 	.word	0x000824fd
   8259c:	000843d0 	.word	0x000843d0
   825a0:	00082be1 	.word	0x00082be1

000825a4 <tunerstudio_burn_page_eeprom>:
{
   825a4:	b508      	push	{r3, lr}
	switch(CurrPage)
   825a6:	4b23      	ldr	r3, [pc, #140]	; (82634 <tunerstudio_burn_page_eeprom+0x90>)
   825a8:	781b      	ldrb	r3, [r3, #0]
   825aa:	3b01      	subs	r3, #1
   825ac:	2b08      	cmp	r3, #8
   825ae:	d840      	bhi.n	82632 <tunerstudio_burn_page_eeprom+0x8e>
   825b0:	e8df f003 	tbb	[pc, r3]
   825b4:	17110a05 	.word	0x17110a05
   825b8:	322b241e 	.word	0x322b241e
   825bc:	39          	.byte	0x39
   825bd:	00          	.byte	0x00
		case 1: tunerstudio_burn_Table3D(&VE, EEPROM_VE_INDEX);											break;
   825be:	2100      	movs	r1, #0
   825c0:	481d      	ldr	r0, [pc, #116]	; (82638 <tunerstudio_burn_page_eeprom+0x94>)
   825c2:	4b1e      	ldr	r3, [pc, #120]	; (8263c <tunerstudio_burn_page_eeprom+0x98>)
   825c4:	4798      	blx	r3
   825c6:	bd08      	pop	{r3, pc}
		case 2: tunerstudio_burn_struct(&engine_config2, sizeof(engine_config2), EEPROM_CONFIG2_INDEX);	break;
   825c8:	f241 3288 	movw	r2, #5000	; 0x1388
   825cc:	214a      	movs	r1, #74	; 0x4a
   825ce:	481c      	ldr	r0, [pc, #112]	; (82640 <tunerstudio_burn_page_eeprom+0x9c>)
   825d0:	4b1c      	ldr	r3, [pc, #112]	; (82644 <tunerstudio_burn_page_eeprom+0xa0>)
   825d2:	4798      	blx	r3
   825d4:	bd08      	pop	{r3, pc}
		case 3: tunerstudio_burn_Table3D(&IGN, EEPROM_IGN_INDEX);										break;
   825d6:	f44f 7110 	mov.w	r1, #576	; 0x240
   825da:	481b      	ldr	r0, [pc, #108]	; (82648 <tunerstudio_burn_page_eeprom+0xa4>)
   825dc:	4b17      	ldr	r3, [pc, #92]	; (8263c <tunerstudio_burn_page_eeprom+0x98>)
   825de:	4798      	blx	r3
   825e0:	bd08      	pop	{r3, pc}
		case 4: tunerstudio_burn_struct(&engine_config4, sizeof(engine_config4), EEPROM_CONFIG4_INDEX);	break;
   825e2:	f241 4250 	movw	r2, #5200	; 0x1450
   825e6:	2140      	movs	r1, #64	; 0x40
   825e8:	4818      	ldr	r0, [pc, #96]	; (8264c <tunerstudio_burn_page_eeprom+0xa8>)
   825ea:	4b16      	ldr	r3, [pc, #88]	; (82644 <tunerstudio_burn_page_eeprom+0xa0>)
   825ec:	4798      	blx	r3
   825ee:	bd08      	pop	{r3, pc}
		case 5: tunerstudio_burn_Table3D(&AFR, EEPROM_AFR_INDEX);										break;
   825f0:	f44f 7190 	mov.w	r1, #288	; 0x120
   825f4:	4816      	ldr	r0, [pc, #88]	; (82650 <tunerstudio_burn_page_eeprom+0xac>)
   825f6:	4b11      	ldr	r3, [pc, #68]	; (8263c <tunerstudio_burn_page_eeprom+0x98>)
   825f8:	4798      	blx	r3
   825fa:	bd08      	pop	{r3, pc}
		case 6: tunerstudio_burn_struct(&engine_config6, sizeof(engine_config6), EEPROM_CONFIG6_INDEX);	break;
   825fc:	f241 5218 	movw	r2, #5400	; 0x1518
   82600:	2140      	movs	r1, #64	; 0x40
   82602:	4814      	ldr	r0, [pc, #80]	; (82654 <tunerstudio_burn_page_eeprom+0xb0>)
   82604:	4b0f      	ldr	r3, [pc, #60]	; (82644 <tunerstudio_burn_page_eeprom+0xa0>)
   82606:	4798      	blx	r3
   82608:	bd08      	pop	{r3, pc}
		case 7: tunerstudio_burn_struct(&engine_config7, sizeof(engine_config7), EEPROM_CONFIG7_INDEX);	break;
   8260a:	f44f 52af 	mov.w	r2, #5600	; 0x15e0
   8260e:	2140      	movs	r1, #64	; 0x40
   82610:	4811      	ldr	r0, [pc, #68]	; (82658 <tunerstudio_burn_page_eeprom+0xb4>)
   82612:	4b0c      	ldr	r3, [pc, #48]	; (82644 <tunerstudio_burn_page_eeprom+0xa0>)
   82614:	4798      	blx	r3
   82616:	bd08      	pop	{r3, pc}
		case 8: tunerstudio_burn_struct(&engine_config8, sizeof(engine_config8), EEPROM_CONFIG8_INDEX);	break;
   82618:	f241 62a8 	movw	r2, #5800	; 0x16a8
   8261c:	21a0      	movs	r1, #160	; 0xa0
   8261e:	480f      	ldr	r0, [pc, #60]	; (8265c <tunerstudio_burn_page_eeprom+0xb8>)
   82620:	4b08      	ldr	r3, [pc, #32]	; (82644 <tunerstudio_burn_page_eeprom+0xa0>)
   82622:	4798      	blx	r3
   82624:	bd08      	pop	{r3, pc}
		case 9: tunerstudio_burn_struct(&engine_config9, sizeof(engine_config9), EEPROM_CONFIG9_INDEX);	break;
   82626:	f241 7270 	movw	r2, #6000	; 0x1770
   8262a:	21c0      	movs	r1, #192	; 0xc0
   8262c:	480c      	ldr	r0, [pc, #48]	; (82660 <tunerstudio_burn_page_eeprom+0xbc>)
   8262e:	4b05      	ldr	r3, [pc, #20]	; (82644 <tunerstudio_burn_page_eeprom+0xa0>)
   82630:	4798      	blx	r3
   82632:	bd08      	pop	{r3, pc}
   82634:	20070a28 	.word	0x20070a28
   82638:	20071058 	.word	0x20071058
   8263c:	00082541 	.word	0x00082541
   82640:	20071128 	.word	0x20071128
   82644:	000824fd 	.word	0x000824fd
   82648:	20071f68 	.word	0x20071f68
   8264c:	20071174 	.word	0x20071174
   82650:	20071efc 	.word	0x20071efc
   82654:	200709e8 	.word	0x200709e8
   82658:	20071f1c 	.word	0x20071f1c
   8265c:	20072394 	.word	0x20072394
   82660:	20071068 	.word	0x20071068

00082664 <tunerstudio_update_calib_vect_helper>:
			default: break;
		}
	}
}
void tunerstudio_update_calib_vect_helper(uint8_t NrOfBytes, uint16_t EepromIndex)
{
   82664:	e92d 4ff8 	stmdb	sp!, {r3, r4, r5, r6, r7, r8, r9, sl, fp, lr}
   82668:	4680      	mov	r8, r0
   8266a:	460d      	mov	r5, r1
   8266c:	f501 6780 	add.w	r7, r1, #1024	; 0x400
   82670:	b2bf      	uxth	r7, r7
	uint8_t receive[2];			// Receiving buffer
	receive[0] = receive[1] = 0;
	int16_t TempValue = 0;		// Integer, the value can be negative
	for (uint16_t i = 0; i < LUT_SIZE; i++)
	{
		receive[0] = uart_receive();
   82672:	4e18      	ldr	r6, [pc, #96]	; (826d4 <tunerstudio_update_calib_vect_helper+0x70>)
			TempValue = receive[0];		// AFR
		}
		else {
			receive[1] = uart_receive();
			TempValue = (int)((receive[1] << 8) | (receive[0]));// Put together the temperature value
			TempValue = ((TempValue - 320)  * 5) / 9;			// Change to celsius from fahrenheit
   82674:	f8df a064 	ldr.w	sl, [pc, #100]	; 826dc <tunerstudio_update_calib_vect_helper+0x78>
			TempValue /= 10;									// Tunerstudio sends the value scaled up by 10
   82678:	f8df 9064 	ldr.w	r9, [pc, #100]	; 826e0 <tunerstudio_update_calib_vect_helper+0x7c>
   8267c:	e00d      	b.n	8269a <tunerstudio_update_calib_vect_helper+0x36>
			TempValue = receive[0];		// AFR
   8267e:	b201      	sxth	r1, r0
			TempValue = 255;
		} 
		else if (TempValue < 0){ // For safety
			TempValue = 0;
		}
		at24cxx_write_byte(EepromIndex++, TempValue);
   82680:	f105 0b01 	add.w	fp, r5, #1
   82684:	fa1f fb8b 	uxth.w	fp, fp
   82688:	f381 0108 	usat	r1, #8, r1
   8268c:	b2c9      	uxtb	r1, r1
   8268e:	4628      	mov	r0, r5
   82690:	4b11      	ldr	r3, [pc, #68]	; (826d8 <tunerstudio_update_calib_vect_helper+0x74>)
   82692:	4798      	blx	r3
	for (uint16_t i = 0; i < LUT_SIZE; i++)
   82694:	455f      	cmp	r7, fp
   82696:	d01b      	beq.n	826d0 <tunerstudio_update_calib_vect_helper+0x6c>
		at24cxx_write_byte(EepromIndex++, TempValue);
   82698:	465d      	mov	r5, fp
		receive[0] = uart_receive();
   8269a:	47b0      	blx	r6
   8269c:	4604      	mov	r4, r0
		if (NrOfBytes == 1) {		
   8269e:	f1b8 0f01 	cmp.w	r8, #1
   826a2:	d0ec      	beq.n	8267e <tunerstudio_update_calib_vect_helper+0x1a>
			receive[1] = uart_receive();
   826a4:	47b0      	blx	r6
			TempValue = (int)((receive[1] << 8) | (receive[0]));// Put together the temperature value
   826a6:	ea44 2000 	orr.w	r0, r4, r0, lsl #8
			TempValue = ((TempValue - 320)  * 5) / 9;			// Change to celsius from fahrenheit
   826aa:	b200      	sxth	r0, r0
   826ac:	f5a0 70a0 	sub.w	r0, r0, #320	; 0x140
   826b0:	eb00 0080 	add.w	r0, r0, r0, lsl #2
   826b4:	fb8a 3200 	smull	r3, r2, sl, r0
   826b8:	17c3      	asrs	r3, r0, #31
   826ba:	ebc3 0362 	rsb	r3, r3, r2, asr #1
   826be:	b21b      	sxth	r3, r3
			TempValue /= 10;									// Tunerstudio sends the value scaled up by 10
   826c0:	fb89 2403 	smull	r2, r4, r9, r3
   826c4:	17d9      	asrs	r1, r3, #31
   826c6:	ebc1 01a4 	rsb	r1, r1, r4, asr #2
			TempValue += TEMPERATURE_OFFSET;					// Offset to discard the need of negative integer
   826ca:	3128      	adds	r1, #40	; 0x28
   826cc:	b209      	sxth	r1, r1
   826ce:	e7d7      	b.n	82680 <tunerstudio_update_calib_vect_helper+0x1c>
	}
}
   826d0:	e8bd 8ff8 	ldmia.w	sp!, {r3, r4, r5, r6, r7, r8, r9, sl, fp, pc}
   826d4:	00082cad 	.word	0x00082cad
   826d8:	000801b5 	.word	0x000801b5
   826dc:	38e38e39 	.word	0x38e38e39
   826e0:	66666667 	.word	0x66666667

000826e4 <tunerstudio_update_calib_vect>:
{
   826e4:	b508      	push	{r3, lr}
	if (RxStringTail != RxStringHead)
   826e6:	4b15      	ldr	r3, [pc, #84]	; (8273c <tunerstudio_update_calib_vect+0x58>)
   826e8:	881a      	ldrh	r2, [r3, #0]
   826ea:	b292      	uxth	r2, r2
   826ec:	4b14      	ldr	r3, [pc, #80]	; (82740 <tunerstudio_update_calib_vect+0x5c>)
   826ee:	881b      	ldrh	r3, [r3, #0]
   826f0:	b29b      	uxth	r3, r3
   826f2:	429a      	cmp	r2, r3
   826f4:	d008      	beq.n	82708 <tunerstudio_update_calib_vect+0x24>
		uart_print_string("ERROR calibration vector");
   826f6:	4813      	ldr	r0, [pc, #76]	; (82744 <tunerstudio_update_calib_vect+0x60>)
   826f8:	4b13      	ldr	r3, [pc, #76]	; (82748 <tunerstudio_update_calib_vect+0x64>)
   826fa:	4798      	blx	r3
		RxStringTail = RxStringHead = 0;
   826fc:	2300      	movs	r3, #0
   826fe:	4a10      	ldr	r2, [pc, #64]	; (82740 <tunerstudio_update_calib_vect+0x5c>)
   82700:	8013      	strh	r3, [r2, #0]
   82702:	4a0e      	ldr	r2, [pc, #56]	; (8273c <tunerstudio_update_calib_vect+0x58>)
   82704:	8013      	strh	r3, [r2, #0]
   82706:	bd08      	pop	{r3, pc}
		uint8_t receive = uart_receive();
   82708:	4b10      	ldr	r3, [pc, #64]	; (8274c <tunerstudio_update_calib_vect+0x68>)
   8270a:	4798      	blx	r3
		switch (receive)
   8270c:	2801      	cmp	r0, #1
   8270e:	d009      	beq.n	82724 <tunerstudio_update_calib_vect+0x40>
   82710:	b110      	cbz	r0, 82718 <tunerstudio_update_calib_vect+0x34>
   82712:	2802      	cmp	r0, #2
   82714:	d00c      	beq.n	82730 <tunerstudio_update_calib_vect+0x4c>
   82716:	bd08      	pop	{r3, pc}
			case CONFIG_CLT: tunerstudio_update_calib_vect_helper(2, EEPROM_CLT_ADC_INDEX); break;
   82718:	f44f 7158 	mov.w	r1, #864	; 0x360
   8271c:	2002      	movs	r0, #2
   8271e:	4b0c      	ldr	r3, [pc, #48]	; (82750 <tunerstudio_update_calib_vect+0x6c>)
   82720:	4798      	blx	r3
   82722:	bd08      	pop	{r3, pc}
			case CONFIG_IAT: tunerstudio_update_calib_vect_helper(2, EEPROM_IAT_ADC_INDEX); break;
   82724:	f44f 61ec 	mov.w	r1, #1888	; 0x760
   82728:	2002      	movs	r0, #2
   8272a:	4b09      	ldr	r3, [pc, #36]	; (82750 <tunerstudio_update_calib_vect+0x6c>)
   8272c:	4798      	blx	r3
   8272e:	bd08      	pop	{r3, pc}
			case CONFIG_AFR: tunerstudio_update_calib_vect_helper(1, EEPROM_AFR_ADC_INDEX); break;
   82730:	f44f 6136 	mov.w	r1, #2912	; 0xb60
   82734:	2001      	movs	r0, #1
   82736:	4b06      	ldr	r3, [pc, #24]	; (82750 <tunerstudio_update_calib_vect+0x6c>)
   82738:	4798      	blx	r3
   8273a:	bd08      	pop	{r3, pc}
   8273c:	2007166a 	.word	0x2007166a
   82740:	20071a6c 	.word	0x20071a6c
   82744:	000844d0 	.word	0x000844d0
   82748:	00082be1 	.word	0x00082be1
   8274c:	00082cad 	.word	0x00082cad
   82750:	00082665 	.word	0x00082665

00082754 <tunerstudio_debug_global_function>:

void tunerstudio_debug_global_function(void)
{
   82754:	e92d 41f0 	stmdb	sp!, {r4, r5, r6, r7, r8, lr}
	uart_print_string("MAP High: "); uart_print_int(engine_config2.MapMax); uart_new_line();
   82758:	4830      	ldr	r0, [pc, #192]	; (8281c <tunerstudio_debug_global_function+0xc8>)
   8275a:	4e31      	ldr	r6, [pc, #196]	; (82820 <tunerstudio_debug_global_function+0xcc>)
   8275c:	47b0      	blx	r6
   8275e:	f8df 8114 	ldr.w	r8, [pc, #276]	; 82874 <tunerstudio_debug_global_function+0x120>
   82762:	f8b8 003e 	ldrh.w	r0, [r8, #62]	; 0x3e
   82766:	b280      	uxth	r0, r0
   82768:	4d2e      	ldr	r5, [pc, #184]	; (82824 <tunerstudio_debug_global_function+0xd0>)
   8276a:	47a8      	blx	r5
   8276c:	4c2e      	ldr	r4, [pc, #184]	; (82828 <tunerstudio_debug_global_function+0xd4>)
   8276e:	47a0      	blx	r4
	uart_print_string("MAP Low: "); uart_print_int(engine_config2.MapMin); uart_new_line();
   82770:	482e      	ldr	r0, [pc, #184]	; (8282c <tunerstudio_debug_global_function+0xd8>)
   82772:	47b0      	blx	r6
   82774:	f898 003d 	ldrb.w	r0, [r8, #61]	; 0x3d
   82778:	47a8      	blx	r5
   8277a:	47a0      	blx	r4
	uart_print_string("TPS High: "); uart_print_int(engine_config2.TpsMax); uart_new_line();
   8277c:	482c      	ldr	r0, [pc, #176]	; (82830 <tunerstudio_debug_global_function+0xdc>)
   8277e:	47b0      	blx	r6
   82780:	f898 003c 	ldrb.w	r0, [r8, #60]	; 0x3c
   82784:	47a8      	blx	r5
   82786:	47a0      	blx	r4
	uart_print_string("TPS Low: "); uart_print_int(engine_config2.TpsMin); uart_new_line();
   82788:	482a      	ldr	r0, [pc, #168]	; (82834 <tunerstudio_debug_global_function+0xe0>)
   8278a:	47b0      	blx	r6
   8278c:	f898 003b 	ldrb.w	r0, [r8, #59]	; 0x3b
   82790:	47a8      	blx	r5
   82792:	47a0      	blx	r4
	uart_print_string("CLT: "); uart_print_int(engine_realtime.Clt); uart_new_line();
   82794:	4828      	ldr	r0, [pc, #160]	; (82838 <tunerstudio_debug_global_function+0xe4>)
   82796:	47b0      	blx	r6
   82798:	4f28      	ldr	r7, [pc, #160]	; (8283c <tunerstudio_debug_global_function+0xe8>)
   8279a:	79f8      	ldrb	r0, [r7, #7]
   8279c:	47a8      	blx	r5
   8279e:	47a0      	blx	r4
	uart_print_string("IAT: "); uart_print_int(engine_realtime.Iat); uart_new_line();
   827a0:	4827      	ldr	r0, [pc, #156]	; (82840 <tunerstudio_debug_global_function+0xec>)
   827a2:	47b0      	blx	r6
   827a4:	79b8      	ldrb	r0, [r7, #6]
   827a6:	47a8      	blx	r5
   827a8:	47a0      	blx	r4
	uart_print_string("AFR: "); uart_print_int(engine_realtime.Afr); uart_new_line();
   827aa:	4826      	ldr	r0, [pc, #152]	; (82844 <tunerstudio_debug_global_function+0xf0>)
   827ac:	47b0      	blx	r6
   827ae:	7ab8      	ldrb	r0, [r7, #10]
   827b0:	47a8      	blx	r5
   827b2:	47a0      	blx	r4
	uart_print_string("MAP: "); uart_print_int(engine_realtime.Map); uart_new_line();
   827b4:	4824      	ldr	r0, [pc, #144]	; (82848 <tunerstudio_debug_global_function+0xf4>)
   827b6:	47b0      	blx	r6
   827b8:	88b8      	ldrh	r0, [r7, #4]
   827ba:	b280      	uxth	r0, r0
   827bc:	47a8      	blx	r5
   827be:	47a0      	blx	r4
	uart_print_string("TPS: "); uart_print_int(engine_realtime.Tps); uart_new_line();
   827c0:	4822      	ldr	r0, [pc, #136]	; (8284c <tunerstudio_debug_global_function+0xf8>)
   827c2:	47b0      	blx	r6
   827c4:	7e38      	ldrb	r0, [r7, #24]
   827c6:	47a8      	blx	r5
   827c8:	47a0      	blx	r4
	uart_print_string("RPM: "); uart_print_int(engine_realtime.Rpm); uart_new_line();
   827ca:	4821      	ldr	r0, [pc, #132]	; (82850 <tunerstudio_debug_global_function+0xfc>)
   827cc:	47b0      	blx	r6
   827ce:	89f8      	ldrh	r0, [r7, #14]
   827d0:	b280      	uxth	r0, r0
   827d2:	47a8      	blx	r5
   827d4:	47a0      	blx	r4
	uart_print_string("TWIFault: "); uart_print_int(engine_realtime.TwiFault); uart_new_line();
   827d6:	481f      	ldr	r0, [pc, #124]	; (82854 <tunerstudio_debug_global_function+0x100>)
   827d8:	47b0      	blx	r6
   827da:	7ff8      	ldrb	r0, [r7, #31]
   827dc:	47a8      	blx	r5
   827de:	47a0      	blx	r4
	uart_print_string("Fuel Const: "); uart_print_int(FUEL_CONST); uart_new_line();
   827e0:	481d      	ldr	r0, [pc, #116]	; (82858 <tunerstudio_debug_global_function+0x104>)
   827e2:	47b0      	blx	r6
   827e4:	481d      	ldr	r0, [pc, #116]	; (8285c <tunerstudio_debug_global_function+0x108>)
   827e6:	47a8      	blx	r5
   827e8:	47a0      	blx	r4
	uart_print_string("AfterStartEnrichPct: "); uart_print_int(engine_config2.AfterStartEnrichPct); uart_new_line();
   827ea:	481d      	ldr	r0, [pc, #116]	; (82860 <tunerstudio_debug_global_function+0x10c>)
   827ec:	47b0      	blx	r6
   827ee:	f898 0000 	ldrb.w	r0, [r8]
   827f2:	47a8      	blx	r5
   827f4:	47a0      	blx	r4
	uart_print_string("AfterStartEnrichCycles: "); uart_print_int(engine_config2.AfterStartEnrichSec); uart_new_line();
   827f6:	481b      	ldr	r0, [pc, #108]	; (82864 <tunerstudio_debug_global_function+0x110>)
   827f8:	47b0      	blx	r6
   827fa:	f898 0001 	ldrb.w	r0, [r8, #1]
   827fe:	47a8      	blx	r5
   82800:	47a0      	blx	r4
	uart_print_string("millis: "); uart_print_int(millis); uart_new_line();
   82802:	4819      	ldr	r0, [pc, #100]	; (82868 <tunerstudio_debug_global_function+0x114>)
   82804:	47b0      	blx	r6
   82806:	4b19      	ldr	r3, [pc, #100]	; (8286c <tunerstudio_debug_global_function+0x118>)
   82808:	6818      	ldr	r0, [r3, #0]
   8280a:	47a8      	blx	r5
   8280c:	47a0      	blx	r4
	isDebug ^= 1;
   8280e:	4a18      	ldr	r2, [pc, #96]	; (82870 <tunerstudio_debug_global_function+0x11c>)
   82810:	6813      	ldr	r3, [r2, #0]
   82812:	f083 0301 	eor.w	r3, r3, #1
   82816:	6013      	str	r3, [r2, #0]
   82818:	e8bd 81f0 	ldmia.w	sp!, {r4, r5, r6, r7, r8, pc}
   8281c:	00084414 	.word	0x00084414
   82820:	00082be1 	.word	0x00082be1
   82824:	00082b7d 	.word	0x00082b7d
   82828:	00082bd1 	.word	0x00082bd1
   8282c:	00084420 	.word	0x00084420
   82830:	0008442c 	.word	0x0008442c
   82834:	00084438 	.word	0x00084438
   82838:	00084444 	.word	0x00084444
   8283c:	200715b8 	.word	0x200715b8
   82840:	0008444c 	.word	0x0008444c
   82844:	00084454 	.word	0x00084454
   82848:	0008445c 	.word	0x0008445c
   8284c:	00084464 	.word	0x00084464
   82850:	0008446c 	.word	0x0008446c
   82854:	00084474 	.word	0x00084474
   82858:	00084480 	.word	0x00084480
   8285c:	00033ba8 	.word	0x00033ba8
   82860:	00084490 	.word	0x00084490
   82864:	000844a8 	.word	0x000844a8
   82868:	000844c4 	.word	0x000844c4
   8286c:	20072448 	.word	0x20072448
   82870:	20071f18 	.word	0x20071f18
   82874:	20071128 	.word	0x20071128

00082878 <tunerstudio_command>:
{
   82878:	b508      	push	{r3, lr}
	if (NewPageFlag)
   8287a:	4b43      	ldr	r3, [pc, #268]	; (82988 <tunerstudio_command+0x110>)
   8287c:	781b      	ldrb	r3, [r3, #0]
   8287e:	b9cb      	cbnz	r3, 828b4 <tunerstudio_command+0x3c>
	if (WriteFlag)
   82880:	4b42      	ldr	r3, [pc, #264]	; (8298c <tunerstudio_command+0x114>)
   82882:	781b      	ldrb	r3, [r3, #0]
   82884:	b353      	cbz	r3, 828dc <tunerstudio_command+0x64>
		if (OffsetFlag == 0){		// Receive first offset value
   82886:	4b42      	ldr	r3, [pc, #264]	; (82990 <tunerstudio_command+0x118>)
   82888:	781b      	ldrb	r3, [r3, #0]
   8288a:	b1cb      	cbz	r3, 828c0 <tunerstudio_command+0x48>
		else if ((CurrPage == PAGE_VE || CurrPage == PAGE_AFR || CurrPage == PAGE_IGN) && OffsetFlag != 2)
   8288c:	4a41      	ldr	r2, [pc, #260]	; (82994 <tunerstudio_command+0x11c>)
   8288e:	7812      	ldrb	r2, [r2, #0]
   82890:	f002 01fd 	and.w	r1, r2, #253	; 0xfd
   82894:	2901      	cmp	r1, #1
   82896:	d019      	beq.n	828cc <tunerstudio_command+0x54>
   82898:	2a05      	cmp	r2, #5
   8289a:	d017      	beq.n	828cc <tunerstudio_command+0x54>
			tunerstudio_write_data(character);
   8289c:	4b3e      	ldr	r3, [pc, #248]	; (82998 <tunerstudio_command+0x120>)
   8289e:	4798      	blx	r3
			Offset1 = Offset2 = OffsetFlag = WriteFlag = 0;
   828a0:	2300      	movs	r3, #0
   828a2:	4a3a      	ldr	r2, [pc, #232]	; (8298c <tunerstudio_command+0x114>)
   828a4:	7013      	strb	r3, [r2, #0]
   828a6:	4a3a      	ldr	r2, [pc, #232]	; (82990 <tunerstudio_command+0x118>)
   828a8:	7013      	strb	r3, [r2, #0]
   828aa:	4a3c      	ldr	r2, [pc, #240]	; (8299c <tunerstudio_command+0x124>)
   828ac:	7013      	strb	r3, [r2, #0]
   828ae:	4a3c      	ldr	r2, [pc, #240]	; (829a0 <tunerstudio_command+0x128>)
   828b0:	7013      	strb	r3, [r2, #0]
			return;
   828b2:	bd08      	pop	{r3, pc}
		CurrPage = character; //- '0';	// Withdraw the character value 0 (48 decimal in ASCII)
   828b4:	4b37      	ldr	r3, [pc, #220]	; (82994 <tunerstudio_command+0x11c>)
   828b6:	7018      	strb	r0, [r3, #0]
		NewPageFlag = FALSE;			// Reset the newpageflag
   828b8:	2200      	movs	r2, #0
   828ba:	4b33      	ldr	r3, [pc, #204]	; (82988 <tunerstudio_command+0x110>)
   828bc:	701a      	strb	r2, [r3, #0]
		return;							// Nothing else to do in this function
   828be:	bd08      	pop	{r3, pc}
			Offset1 = character;
   828c0:	4b37      	ldr	r3, [pc, #220]	; (829a0 <tunerstudio_command+0x128>)
   828c2:	7018      	strb	r0, [r3, #0]
			OffsetFlag = 1;
   828c4:	2201      	movs	r2, #1
   828c6:	4b32      	ldr	r3, [pc, #200]	; (82990 <tunerstudio_command+0x118>)
   828c8:	701a      	strb	r2, [r3, #0]
			return;
   828ca:	bd08      	pop	{r3, pc}
		else if ((CurrPage == PAGE_VE || CurrPage == PAGE_AFR || CurrPage == PAGE_IGN) && OffsetFlag != 2)
   828cc:	2b02      	cmp	r3, #2
   828ce:	d0e5      	beq.n	8289c <tunerstudio_command+0x24>
			Offset2 = character;
   828d0:	4b32      	ldr	r3, [pc, #200]	; (8299c <tunerstudio_command+0x124>)
   828d2:	7018      	strb	r0, [r3, #0]
			OffsetFlag = 2;
   828d4:	2202      	movs	r2, #2
   828d6:	4b2e      	ldr	r3, [pc, #184]	; (82990 <tunerstudio_command+0x118>)
   828d8:	701a      	strb	r2, [r3, #0]
			return;
   828da:	bd08      	pop	{r3, pc}
	switch (character)
   828dc:	3841      	subs	r0, #65	; 0x41
   828de:	2833      	cmp	r0, #51	; 0x33
   828e0:	d850      	bhi.n	82984 <tunerstudio_command+0x10c>
   828e2:	e8df f000 	tbb	[pc, r0]
   828e6:	281a      	.short	0x281a
   828e8:	2f4f4d2b 	.word	0x2f4f4d2b
   828ec:	4f4f4f4f 	.word	0x4f4f4f4f
   828f0:	4f4f4f4f 	.word	0x4f4f4f4f
   828f4:	4f3b334f 	.word	0x4f3b334f
   828f8:	3f4f4f37 	.word	0x3f4f4f37
   828fc:	4f4f4f42 	.word	0x4f4f4f42
   82900:	4f4f4f4f 	.word	0x4f4f4f4f
   82904:	4f4f4f4f 	.word	0x4f4f4f4f
   82908:	4f4f4f4f 	.word	0x4f4f4f4f
   8290c:	4f4f4f4f 	.word	0x4f4f4f4f
   82910:	4f4f4f4f 	.word	0x4f4f4f4f
   82914:	4f4f4f4f 	.word	0x4f4f4f4f
   82918:	464f      	.short	0x464f
			engine_realtime.Seconds = millis / MILLI_SEC;
   8291a:	4b22      	ldr	r3, [pc, #136]	; (829a4 <tunerstudio_command+0x12c>)
   8291c:	681b      	ldr	r3, [r3, #0]
   8291e:	4a22      	ldr	r2, [pc, #136]	; (829a8 <tunerstudio_command+0x130>)
   82920:	fba2 2303 	umull	r2, r3, r2, r3
   82924:	f3c3 1387 	ubfx	r3, r3, #6, #8
   82928:	4820      	ldr	r0, [pc, #128]	; (829ac <tunerstudio_command+0x134>)
   8292a:	f880 3021 	strb.w	r3, [r0, #33]	; 0x21
	uart_load_pdc_tx_buffer(ConfigStructPointer, ConfigLen);
   8292e:	2122      	movs	r1, #34	; 0x22
   82930:	4b1f      	ldr	r3, [pc, #124]	; (829b0 <tunerstudio_command+0x138>)
   82932:	4798      	blx	r3
   82934:	bd08      	pop	{r3, pc}
		case 'B': tunerstudio_burn_page_eeprom();										break;
   82936:	4b1f      	ldr	r3, [pc, #124]	; (829b4 <tunerstudio_command+0x13c>)
   82938:	4798      	blx	r3
   8293a:	bd08      	pop	{r3, pc}
		case 'C': uart_interrupt_transfer(1);											break;
   8293c:	2001      	movs	r0, #1
   8293e:	4b1e      	ldr	r3, [pc, #120]	; (829b8 <tunerstudio_command+0x140>)
   82940:	4798      	blx	r3
   82942:	bd08      	pop	{r3, pc}
		case 'F': uart_interrupt_transfer("001");										break;
   82944:	481d      	ldr	r0, [pc, #116]	; (829bc <tunerstudio_command+0x144>)
   82946:	4b1c      	ldr	r3, [pc, #112]	; (829b8 <tunerstudio_command+0x140>)
   82948:	4798      	blx	r3
   8294a:	bd08      	pop	{r3, pc}
		case 'P': NewPageFlag = TRUE;													break;
   8294c:	2201      	movs	r2, #1
   8294e:	4b0e      	ldr	r3, [pc, #56]	; (82988 <tunerstudio_command+0x110>)
   82950:	701a      	strb	r2, [r3, #0]
   82952:	bd08      	pop	{r3, pc}
		case 'S': uart_interrupt_transfer("RUthless V1.0 Formula Student 2017");		break;
   82954:	481a      	ldr	r0, [pc, #104]	; (829c0 <tunerstudio_command+0x148>)
   82956:	4b18      	ldr	r3, [pc, #96]	; (829b8 <tunerstudio_command+0x140>)
   82958:	4798      	blx	r3
   8295a:	bd08      	pop	{r3, pc}
		case 'Q': uart_interrupt_transfer("speeduino");									break;
   8295c:	4819      	ldr	r0, [pc, #100]	; (829c4 <tunerstudio_command+0x14c>)
   8295e:	4b16      	ldr	r3, [pc, #88]	; (829b8 <tunerstudio_command+0x140>)
   82960:	4798      	blx	r3
   82962:	bd08      	pop	{r3, pc}
		case 'V': tunerstudio_send_page(); 												break;
   82964:	4b18      	ldr	r3, [pc, #96]	; (829c8 <tunerstudio_command+0x150>)
   82966:	4798      	blx	r3
   82968:	bd08      	pop	{r3, pc}
		case 'W': WriteFlag = TRUE;														break;
   8296a:	2201      	movs	r2, #1
   8296c:	4b07      	ldr	r3, [pc, #28]	; (8298c <tunerstudio_command+0x114>)
   8296e:	701a      	strb	r2, [r3, #0]
   82970:	bd08      	pop	{r3, pc}
			uart_disable_rx_interrupt();			// Read manually from buffer simplifies this since it is not necessary to do this in realtime
   82972:	4b16      	ldr	r3, [pc, #88]	; (829cc <tunerstudio_command+0x154>)
   82974:	4798      	blx	r3
			tunerstudio_update_calib_vect();
   82976:	4b16      	ldr	r3, [pc, #88]	; (829d0 <tunerstudio_command+0x158>)
   82978:	4798      	blx	r3
			uart_enable_rx_interrupt();
   8297a:	4b16      	ldr	r3, [pc, #88]	; (829d4 <tunerstudio_command+0x15c>)
   8297c:	4798      	blx	r3
			break;
   8297e:	bd08      	pop	{r3, pc}
		case 'D': tunerstudio_debug_global_function(); break;
   82980:	4b15      	ldr	r3, [pc, #84]	; (829d8 <tunerstudio_command+0x160>)
   82982:	4798      	blx	r3
   82984:	bd08      	pop	{r3, pc}
   82986:	bf00      	nop
   82988:	20072445 	.word	0x20072445
   8298c:	200709da 	.word	0x200709da
   82990:	20071ef9 	.word	0x20071ef9
   82994:	20070a28 	.word	0x20070a28
   82998:	00082435 	.word	0x00082435
   8299c:	20071f0c 	.word	0x20071f0c
   829a0:	20071efa 	.word	0x20071efa
   829a4:	20072448 	.word	0x20072448
   829a8:	10624dd3 	.word	0x10624dd3
   829ac:	200715b8 	.word	0x200715b8
   829b0:	00082cc5 	.word	0x00082cc5
   829b4:	000825a5 	.word	0x000825a5
   829b8:	00082a69 	.word	0x00082a69
   829bc:	000843e0 	.word	0x000843e0
   829c0:	000843e4 	.word	0x000843e4
   829c4:	00084408 	.word	0x00084408
   829c8:	00082355 	.word	0x00082355
   829cc:	00082b09 	.word	0x00082b09
   829d0:	000826e5 	.word	0x000826e5
   829d4:	00082aed 	.word	0x00082aed
   829d8:	00082755 	.word	0x00082755

000829dc <uart_init>:

// viljum 2 bit stop bits 8 bit data, asynchronous mode, parity mode off,
void uart_init(void)
{
	/* Configure peripheral clock UART. */
	PMC->PMC_PCER0 = (1 << ID_UART);
   829dc:	f44f 7280 	mov.w	r2, #256	; 0x100
   829e0:	4b08      	ldr	r3, [pc, #32]	; (82a04 <uart_init+0x28>)
   829e2:	611a      	str	r2, [r3, #16]
	/* Enable receiver and transmitter */
	UART->UART_CR = UART_CR_RXEN | UART_CR_TXEN;
   829e4:	f503 7300 	add.w	r3, r3, #512	; 0x200
   829e8:	2250      	movs	r2, #80	; 0x50
   829ea:	601a      	str	r2, [r3, #0]
	/* Turn parity mode off */
	UART->UART_MR = UART_MR_PAR_NO;	
   829ec:	f44f 6200 	mov.w	r2, #2048	; 0x800
   829f0:	605a      	str	r2, [r3, #4]
	/* Baud rate generator register */
	UART->UART_BRGR = CLOCKDIVISION;
   829f2:	220b      	movs	r2, #11
   829f4:	621a      	str	r2, [r3, #32]
	/* Reset interrupt enable register */
	UART->UART_IDR = 0xFFFF;
   829f6:	f64f 72ff 	movw	r2, #65535	; 0xffff
   829fa:	60da      	str	r2, [r3, #12]
	// Initialize PDC
	PdcInterface = PDC_UART;
   829fc:	4a02      	ldr	r2, [pc, #8]	; (82a08 <uart_init+0x2c>)
   829fe:	4b03      	ldr	r3, [pc, #12]	; (82a0c <uart_init+0x30>)
   82a00:	601a      	str	r2, [r3, #0]
   82a02:	4770      	bx	lr
   82a04:	400e0600 	.word	0x400e0600
   82a08:	400e0900 	.word	0x400e0900
   82a0c:	200715e4 	.word	0x200715e4

00082a10 <uart_tx_interrupt_init>:
}

// Transmission interrupt enable to minimize calculation downtime
void uart_tx_interrupt_init(void)
{
   82a10:	b508      	push	{r3, lr}
	//UART->UART_IER = UART_IER_TXRDY;
	
	interrupts_enable_interrupt_vector(UART_IRQn, UART_PRIORITY);
   82a12:	210c      	movs	r1, #12
   82a14:	2008      	movs	r0, #8
   82a16:	4b0c      	ldr	r3, [pc, #48]	; (82a48 <uart_tx_interrupt_init+0x38>)
   82a18:	4798      	blx	r3
   82a1a:	2300      	movs	r3, #0
	
	// Initialize Transmit buffer character array
	for (uint16_t i = 0; i < TXBUFFERSIZE; i++)
	{
		TxString[i] = NULL;
   82a1c:	480b      	ldr	r0, [pc, #44]	; (82a4c <uart_tx_interrupt_init+0x3c>)
   82a1e:	461a      	mov	r2, r3
		RxString[i] = NULL;
   82a20:	490b      	ldr	r1, [pc, #44]	; (82a50 <uart_tx_interrupt_init+0x40>)
		TxString[i] = NULL;
   82a22:	54c2      	strb	r2, [r0, r3]
		RxString[i] = NULL;
   82a24:	54ca      	strb	r2, [r1, r3]
   82a26:	3301      	adds	r3, #1
	for (uint16_t i = 0; i < TXBUFFERSIZE; i++)
   82a28:	f5b3 6f80 	cmp.w	r3, #1024	; 0x400
   82a2c:	d1f9      	bne.n	82a22 <uart_tx_interrupt_init+0x12>
	}
	// Initialize Transmit/receive buffer iterator for array
	TxStringHead = TxStringTail = 0;
   82a2e:	2300      	movs	r3, #0
   82a30:	4a08      	ldr	r2, [pc, #32]	; (82a54 <uart_tx_interrupt_init+0x44>)
   82a32:	8013      	strh	r3, [r2, #0]
   82a34:	4a08      	ldr	r2, [pc, #32]	; (82a58 <uart_tx_interrupt_init+0x48>)
   82a36:	8013      	strh	r3, [r2, #0]
	RxStringHead = RxStringTail = 0;
   82a38:	4a08      	ldr	r2, [pc, #32]	; (82a5c <uart_tx_interrupt_init+0x4c>)
   82a3a:	8013      	strh	r3, [r2, #0]
   82a3c:	4a08      	ldr	r2, [pc, #32]	; (82a60 <uart_tx_interrupt_init+0x50>)
   82a3e:	8013      	strh	r3, [r2, #0]
	RxFlag = LOW;
   82a40:	4a08      	ldr	r2, [pc, #32]	; (82a64 <uart_tx_interrupt_init+0x54>)
   82a42:	7013      	strb	r3, [r2, #0]
   82a44:	bd08      	pop	{r3, pc}
   82a46:	bf00      	nop
   82a48:	000818a1 	.word	0x000818a1
   82a4c:	20070a38 	.word	0x20070a38
   82a50:	200711b8 	.word	0x200711b8
   82a54:	200709d8 	.word	0x200709d8
   82a58:	200709e0 	.word	0x200709e0
   82a5c:	2007166a 	.word	0x2007166a
   82a60:	20071a6c 	.word	0x20071a6c
   82a64:	200715e0 	.word	0x200715e0

00082a68 <uart_interrupt_transfer>:
}

void uart_interrupt_transfer(char * str)
{
	uint16_t i = 0;
	while(str[i] != NULL && TxStringHead < TXBUFFERSIZE)
   82a68:	7803      	ldrb	r3, [r0, #0]
   82a6a:	b303      	cbz	r3, 82aae <uart_interrupt_transfer+0x46>
   82a6c:	4b12      	ldr	r3, [pc, #72]	; (82ab8 <uart_interrupt_transfer+0x50>)
   82a6e:	881b      	ldrh	r3, [r3, #0]
   82a70:	b29b      	uxth	r3, r3
   82a72:	f5b3 6f80 	cmp.w	r3, #1024	; 0x400
   82a76:	d21a      	bcs.n	82aae <uart_interrupt_transfer+0x46>
{
   82a78:	b470      	push	{r4, r5, r6}
	while(str[i] != NULL && TxStringHead < TXBUFFERSIZE)
   82a7a:	4605      	mov	r5, r0
   82a7c:	2300      	movs	r3, #0
		TxString[TxStringHead++] = str[i++];
   82a7e:	4c0e      	ldr	r4, [pc, #56]	; (82ab8 <uart_interrupt_transfer+0x50>)
   82a80:	4e0e      	ldr	r6, [pc, #56]	; (82abc <uart_interrupt_transfer+0x54>)
   82a82:	8822      	ldrh	r2, [r4, #0]
   82a84:	b292      	uxth	r2, r2
   82a86:	1c51      	adds	r1, r2, #1
   82a88:	b289      	uxth	r1, r1
   82a8a:	8021      	strh	r1, [r4, #0]
   82a8c:	3301      	adds	r3, #1
   82a8e:	b29b      	uxth	r3, r3
   82a90:	7829      	ldrb	r1, [r5, #0]
   82a92:	54b1      	strb	r1, [r6, r2]
	while(str[i] != NULL && TxStringHead < TXBUFFERSIZE)
   82a94:	18c5      	adds	r5, r0, r3
   82a96:	5cc2      	ldrb	r2, [r0, r3]
   82a98:	b122      	cbz	r2, 82aa4 <uart_interrupt_transfer+0x3c>
   82a9a:	8822      	ldrh	r2, [r4, #0]
   82a9c:	b292      	uxth	r2, r2
   82a9e:	f5b2 6f80 	cmp.w	r2, #1024	; 0x400
   82aa2:	d3ee      	bcc.n	82a82 <uart_interrupt_transfer+0x1a>
	UART->UART_IER = UART_IER_TXRDY;
   82aa4:	2202      	movs	r2, #2
   82aa6:	4b06      	ldr	r3, [pc, #24]	; (82ac0 <uart_interrupt_transfer+0x58>)
   82aa8:	609a      	str	r2, [r3, #8]
}
   82aaa:	bc70      	pop	{r4, r5, r6}
   82aac:	4770      	bx	lr
	UART->UART_IER = UART_IER_TXRDY;
   82aae:	2202      	movs	r2, #2
   82ab0:	4b03      	ldr	r3, [pc, #12]	; (82ac0 <uart_interrupt_transfer+0x58>)
   82ab2:	609a      	str	r2, [r3, #8]
   82ab4:	4770      	bx	lr
   82ab6:	bf00      	nop
   82ab8:	200709e0 	.word	0x200709e0
   82abc:	20070a38 	.word	0x20070a38
   82ac0:	400e0800 	.word	0x400e0800

00082ac4 <uart_load_tx_buffer>:
	uart_enable_tx_interrupt();
}

void uart_load_tx_buffer(uint8_t data)
{
	TxString[TxStringHead++] = data;
   82ac4:	4904      	ldr	r1, [pc, #16]	; (82ad8 <uart_load_tx_buffer+0x14>)
   82ac6:	880b      	ldrh	r3, [r1, #0]
   82ac8:	b29b      	uxth	r3, r3
   82aca:	1c5a      	adds	r2, r3, #1
   82acc:	b292      	uxth	r2, r2
   82ace:	800a      	strh	r2, [r1, #0]
   82ad0:	4a02      	ldr	r2, [pc, #8]	; (82adc <uart_load_tx_buffer+0x18>)
   82ad2:	54d0      	strb	r0, [r2, r3]
   82ad4:	4770      	bx	lr
   82ad6:	bf00      	nop
   82ad8:	200709e0 	.word	0x200709e0
   82adc:	20070a38 	.word	0x20070a38

00082ae0 <uart_enable_tx_interrupt>:
}

void uart_enable_tx_interrupt(void)
{
	UART->UART_IER = UART_IER_TXRDY;
   82ae0:	2202      	movs	r2, #2
   82ae2:	4b01      	ldr	r3, [pc, #4]	; (82ae8 <uart_enable_tx_interrupt+0x8>)
   82ae4:	609a      	str	r2, [r3, #8]
   82ae6:	4770      	bx	lr
   82ae8:	400e0800 	.word	0x400e0800

00082aec <uart_enable_rx_interrupt>:
}

void uart_enable_rx_interrupt(void)
{
   82aec:	b508      	push	{r3, lr}
	interrupts_enable_interrupt_vector(UART_IRQn, UART_PRIORITY);
   82aee:	210c      	movs	r1, #12
   82af0:	2008      	movs	r0, #8
   82af2:	4b03      	ldr	r3, [pc, #12]	; (82b00 <uart_enable_rx_interrupt+0x14>)
   82af4:	4798      	blx	r3
	UART->UART_IER = UART_IER_RXRDY;
   82af6:	2201      	movs	r2, #1
   82af8:	4b02      	ldr	r3, [pc, #8]	; (82b04 <uart_enable_rx_interrupt+0x18>)
   82afa:	609a      	str	r2, [r3, #8]
   82afc:	bd08      	pop	{r3, pc}
   82afe:	bf00      	nop
   82b00:	000818a1 	.word	0x000818a1
   82b04:	400e0800 	.word	0x400e0800

00082b08 <uart_disable_rx_interrupt>:
}
void uart_disable_rx_interrupt(void)
{
	UART->UART_IDR = UART_IDR_RXRDY;
   82b08:	2201      	movs	r2, #1
   82b0a:	4b01      	ldr	r3, [pc, #4]	; (82b10 <uart_disable_rx_interrupt+0x8>)
   82b0c:	60da      	str	r2, [r3, #12]
   82b0e:	4770      	bx	lr
   82b10:	400e0800 	.word	0x400e0800

00082b14 <uart_rx_read_buffer>:
}

void uart_rx_read_buffer(void)
{
	if (RxStringTail == RxStringHead)
   82b14:	4b10      	ldr	r3, [pc, #64]	; (82b58 <uart_rx_read_buffer+0x44>)
   82b16:	881a      	ldrh	r2, [r3, #0]
   82b18:	b292      	uxth	r2, r2
   82b1a:	4b10      	ldr	r3, [pc, #64]	; (82b5c <uart_rx_read_buffer+0x48>)
   82b1c:	881b      	ldrh	r3, [r3, #0]
   82b1e:	b29b      	uxth	r3, r3
   82b20:	429a      	cmp	r2, r3
   82b22:	d012      	beq.n	82b4a <uart_rx_read_buffer+0x36>
{
   82b24:	b510      	push	{r4, lr}
	{
		RxStringTail = RxStringHead = 0;
		return;
	}
	tunerstudio_command(RxString[RxStringTail++]);
   82b26:	4c0c      	ldr	r4, [pc, #48]	; (82b58 <uart_rx_read_buffer+0x44>)
   82b28:	8823      	ldrh	r3, [r4, #0]
   82b2a:	b29b      	uxth	r3, r3
   82b2c:	1c5a      	adds	r2, r3, #1
   82b2e:	b292      	uxth	r2, r2
   82b30:	8022      	strh	r2, [r4, #0]
   82b32:	4a0b      	ldr	r2, [pc, #44]	; (82b60 <uart_rx_read_buffer+0x4c>)
   82b34:	5cd0      	ldrb	r0, [r2, r3]
   82b36:	4b0b      	ldr	r3, [pc, #44]	; (82b64 <uart_rx_read_buffer+0x50>)
   82b38:	4798      	blx	r3
	if (RxStringTail >= RXBUFFERSIZE)
   82b3a:	8823      	ldrh	r3, [r4, #0]
   82b3c:	b29b      	uxth	r3, r3
   82b3e:	f5b3 6f80 	cmp.w	r3, #1024	; 0x400
   82b42:	d301      	bcc.n	82b48 <uart_rx_read_buffer+0x34>
	{
		RxStringTail = 0;
   82b44:	2200      	movs	r2, #0
   82b46:	8022      	strh	r2, [r4, #0]
   82b48:	bd10      	pop	{r4, pc}
		RxStringTail = RxStringHead = 0;
   82b4a:	2300      	movs	r3, #0
   82b4c:	4a03      	ldr	r2, [pc, #12]	; (82b5c <uart_rx_read_buffer+0x48>)
   82b4e:	8013      	strh	r3, [r2, #0]
   82b50:	4a01      	ldr	r2, [pc, #4]	; (82b58 <uart_rx_read_buffer+0x44>)
   82b52:	8013      	strh	r3, [r2, #0]
		return;
   82b54:	4770      	bx	lr
   82b56:	bf00      	nop
   82b58:	2007166a 	.word	0x2007166a
   82b5c:	20071a6c 	.word	0x20071a6c
   82b60:	200711b8 	.word	0x200711b8
   82b64:	00082879 	.word	0x00082879

00082b68 <uart_transfer>:
	//uint8_t read = RxString[RxStringTail++];
}

void uart_transfer(uint8_t transmit)
{
	while (!(UART->UART_SR & UART_SR_TXRDY));
   82b68:	4a03      	ldr	r2, [pc, #12]	; (82b78 <uart_transfer+0x10>)
   82b6a:	6953      	ldr	r3, [r2, #20]
   82b6c:	f013 0f02 	tst.w	r3, #2
   82b70:	d0fb      	beq.n	82b6a <uart_transfer+0x2>
	UART->UART_THR = transmit;
   82b72:	4b01      	ldr	r3, [pc, #4]	; (82b78 <uart_transfer+0x10>)
   82b74:	61d8      	str	r0, [r3, #28]
   82b76:	4770      	bx	lr
   82b78:	400e0800 	.word	0x400e0800

00082b7c <uart_print_int>:
}
//Send Integers over to terminal
void uart_print_int(uint32_t data)
{
   82b7c:	e92d 43f8 	stmdb	sp!, {r3, r4, r5, r6, r7, r8, r9, lr}
   82b80:	4605      	mov	r5, r0
	uint32_t div = 1000000000;		// Divider to divide data with
	uint8_t start = 0;
	uint8_t cnt = 10;
	for (int i = 1; i <= cnt; i++)
   82b82:	2601      	movs	r6, #1
	uint8_t start = 0;
   82b84:	2200      	movs	r2, #0
	uint32_t div = 1000000000;		// Divider to divide data with
   82b86:	4c0f      	ldr	r4, [pc, #60]	; (82bc4 <uart_print_int+0x48>)
	{
		uint8_t send = data / div + 48; // calculate the Ascii for each number
		if(send != 48 || start == 1 || i == cnt)
		{
			//Wait until hardware is ready to send data, UDRE0 = Data register empty
			uart_transfer(send);
   82b88:	f8df 9040 	ldr.w	r9, [pc, #64]	; 82bcc <uart_print_int+0x50>
			start = 1;
   82b8c:	46b0      	mov	r8, r6
		}
		data %= div;
		div /= 10;
   82b8e:	4f0e      	ldr	r7, [pc, #56]	; (82bc8 <uart_print_int+0x4c>)
   82b90:	e00b      	b.n	82baa <uart_print_int+0x2e>
			uart_transfer(send);
   82b92:	47c8      	blx	r9
			start = 1;
   82b94:	4642      	mov	r2, r8
		data %= div;
   82b96:	fbb5 f3f4 	udiv	r3, r5, r4
   82b9a:	fb04 5513 	mls	r5, r4, r3, r5
		div /= 10;
   82b9e:	fba7 3404 	umull	r3, r4, r7, r4
   82ba2:	08e4      	lsrs	r4, r4, #3
	for (int i = 1; i <= cnt; i++)
   82ba4:	3601      	adds	r6, #1
   82ba6:	2e0b      	cmp	r6, #11
   82ba8:	d00a      	beq.n	82bc0 <uart_print_int+0x44>
		uint8_t send = data / div + 48; // calculate the Ascii for each number
   82baa:	fbb5 f0f4 	udiv	r0, r5, r4
   82bae:	3030      	adds	r0, #48	; 0x30
   82bb0:	b2c0      	uxtb	r0, r0
		if(send != 48 || start == 1 || i == cnt)
   82bb2:	2830      	cmp	r0, #48	; 0x30
   82bb4:	d1ed      	bne.n	82b92 <uart_print_int+0x16>
   82bb6:	2a00      	cmp	r2, #0
   82bb8:	d1eb      	bne.n	82b92 <uart_print_int+0x16>
   82bba:	2e0a      	cmp	r6, #10
   82bbc:	d1eb      	bne.n	82b96 <uart_print_int+0x1a>
   82bbe:	e7e8      	b.n	82b92 <uart_print_int+0x16>
	}
	//uart_new_line();
}
   82bc0:	e8bd 83f8 	ldmia.w	sp!, {r3, r4, r5, r6, r7, r8, r9, pc}
   82bc4:	3b9aca00 	.word	0x3b9aca00
   82bc8:	cccccccd 	.word	0xcccccccd
   82bcc:	00082b69 	.word	0x00082b69

00082bd0 <uart_new_line>:
void uart_new_line(void)
{
   82bd0:	b508      	push	{r3, lr}
	uart_transfer(10);
   82bd2:	200a      	movs	r0, #10
   82bd4:	4b01      	ldr	r3, [pc, #4]	; (82bdc <uart_new_line+0xc>)
   82bd6:	4798      	blx	r3
   82bd8:	bd08      	pop	{r3, pc}
   82bda:	bf00      	nop
   82bdc:	00082b69 	.word	0x00082b69

00082be0 <uart_print_string>:
}

void uart_print_string(char * data)
{
   82be0:	b570      	push	{r4, r5, r6, lr}
   82be2:	4605      	mov	r5, r0
	int i = 0;
	// loop which print strings till null is reached or more than 20 characters (for safety)
	while(data[i] != 0 && i < 30)
   82be4:	7800      	ldrb	r0, [r0, #0]
   82be6:	b140      	cbz	r0, 82bfa <uart_print_string+0x1a>
   82be8:	462c      	mov	r4, r5
   82bea:	351e      	adds	r5, #30
		uart_transfer(data[i++]);
   82bec:	4e05      	ldr	r6, [pc, #20]	; (82c04 <uart_print_string+0x24>)
   82bee:	47b0      	blx	r6
	while(data[i] != 0 && i < 30)
   82bf0:	f814 0f01 	ldrb.w	r0, [r4, #1]!
   82bf4:	b108      	cbz	r0, 82bfa <uart_print_string+0x1a>
   82bf6:	42ac      	cmp	r4, r5
   82bf8:	d1f9      	bne.n	82bee <uart_print_string+0xe>
	uart_transfer(32); // space
   82bfa:	2020      	movs	r0, #32
   82bfc:	4b01      	ldr	r3, [pc, #4]	; (82c04 <uart_print_string+0x24>)
   82bfe:	4798      	blx	r3
   82c00:	bd70      	pop	{r4, r5, r6, pc}
   82c02:	bf00      	nop
   82c04:	00082b69 	.word	0x00082b69

00082c08 <UART_Handler>:
}

void UART_Handler(void)
{
	// Check the interrupt status, transmit or receive ?
	uint32_t status = UART->UART_SR;
   82c08:	4b21      	ldr	r3, [pc, #132]	; (82c90 <UART_Handler+0x88>)
   82c0a:	695a      	ldr	r2, [r3, #20]
	
	// Transmit data from buffer if the buffer contains data (TxStringHead > 0) 
	if (TxStringHead && (status & UART_SR_TXRDY))
   82c0c:	4b21      	ldr	r3, [pc, #132]	; (82c94 <UART_Handler+0x8c>)
   82c0e:	881b      	ldrh	r3, [r3, #0]
   82c10:	b29b      	uxth	r3, r3
   82c12:	b1e3      	cbz	r3, 82c4e <UART_Handler+0x46>
   82c14:	f012 0f02 	tst.w	r2, #2
   82c18:	d019      	beq.n	82c4e <UART_Handler+0x46>
	{
		// Load the buffer character to transmitting register
		UART->UART_THR = TxString[TxStringTail];
   82c1a:	491f      	ldr	r1, [pc, #124]	; (82c98 <UART_Handler+0x90>)
   82c1c:	880b      	ldrh	r3, [r1, #0]
   82c1e:	b29b      	uxth	r3, r3
   82c20:	481e      	ldr	r0, [pc, #120]	; (82c9c <UART_Handler+0x94>)
   82c22:	5cc3      	ldrb	r3, [r0, r3]
   82c24:	b2db      	uxtb	r3, r3
   82c26:	481a      	ldr	r0, [pc, #104]	; (82c90 <UART_Handler+0x88>)
   82c28:	61c3      	str	r3, [r0, #28]
		// Increment buffer tail iterator 
		TxStringTail += 1;
   82c2a:	880b      	ldrh	r3, [r1, #0]
   82c2c:	3301      	adds	r3, #1
   82c2e:	b29b      	uxth	r3, r3
   82c30:	800b      	strh	r3, [r1, #0]
		// Check if the message has been fully transmitted
		if (TxStringTail >= TxStringHead)
   82c32:	8809      	ldrh	r1, [r1, #0]
   82c34:	b289      	uxth	r1, r1
   82c36:	4b17      	ldr	r3, [pc, #92]	; (82c94 <UART_Handler+0x8c>)
   82c38:	881b      	ldrh	r3, [r3, #0]
   82c3a:	b29b      	uxth	r3, r3
   82c3c:	4299      	cmp	r1, r3
   82c3e:	d306      	bcc.n	82c4e <UART_Handler+0x46>
		{
			// Reset iterators
			TxStringTail = TxStringHead = 0;
   82c40:	2300      	movs	r3, #0
   82c42:	4914      	ldr	r1, [pc, #80]	; (82c94 <UART_Handler+0x8c>)
   82c44:	800b      	strh	r3, [r1, #0]
   82c46:	4914      	ldr	r1, [pc, #80]	; (82c98 <UART_Handler+0x90>)
   82c48:	800b      	strh	r3, [r1, #0]
			// Disable transmit interrupts
			UART->UART_IDR = UART_IDR_TXRDY;
   82c4a:	2102      	movs	r1, #2
   82c4c:	60c1      	str	r1, [r0, #12]
		}
	}
	if (status & UART_SR_RXRDY)
   82c4e:	f012 0f01 	tst.w	r2, #1
   82c52:	d018      	beq.n	82c86 <UART_Handler+0x7e>
	{
		
		// The bit RXRDY is automatically cleared when the receive holding register UART_RHR is read
		uint8_t receive = UART->UART_RHR;
   82c54:	4b0e      	ldr	r3, [pc, #56]	; (82c90 <UART_Handler+0x88>)
   82c56:	6999      	ldr	r1, [r3, #24]
		// If UART_RHR has not been read by the sofware since the last transfer, overrun bit
		// If there was a parity error during the receive, reset in control register
		if (status & UART_SR_OVRE || status & UART_SR_PARE)
   82c58:	f012 0fa0 	tst.w	r2, #160	; 0xa0
   82c5c:	d114      	bne.n	82c88 <UART_Handler+0x80>
			// Clear the overrun bit in control register
			UART->UART_CR = UART_CR_RSTSTA;
			return;
		}
		
		RxString[RxStringHead++] = receive;
   82c5e:	4a10      	ldr	r2, [pc, #64]	; (82ca0 <UART_Handler+0x98>)
   82c60:	8813      	ldrh	r3, [r2, #0]
   82c62:	b29b      	uxth	r3, r3
   82c64:	1c58      	adds	r0, r3, #1
   82c66:	b280      	uxth	r0, r0
   82c68:	8010      	strh	r0, [r2, #0]
		uint8_t receive = UART->UART_RHR;
   82c6a:	b2c9      	uxtb	r1, r1
		RxString[RxStringHead++] = receive;
   82c6c:	480d      	ldr	r0, [pc, #52]	; (82ca4 <UART_Handler+0x9c>)
   82c6e:	54c1      	strb	r1, [r0, r3]
		if (RxStringHead >= RXBUFFERSIZE)
   82c70:	8813      	ldrh	r3, [r2, #0]
   82c72:	b29b      	uxth	r3, r3
   82c74:	f5b3 6f80 	cmp.w	r3, #1024	; 0x400
   82c78:	d302      	bcc.n	82c80 <UART_Handler+0x78>
		{
			RxStringHead = 0;
   82c7a:	2200      	movs	r2, #0
   82c7c:	4b08      	ldr	r3, [pc, #32]	; (82ca0 <UART_Handler+0x98>)
   82c7e:	801a      	strh	r2, [r3, #0]
		}
		
		RxFlag = TRUE;
   82c80:	2201      	movs	r2, #1
   82c82:	4b09      	ldr	r3, [pc, #36]	; (82ca8 <UART_Handler+0xa0>)
   82c84:	701a      	strb	r2, [r3, #0]
   82c86:	4770      	bx	lr
			UART->UART_CR = UART_CR_RSTSTA;
   82c88:	f44f 7280 	mov.w	r2, #256	; 0x100
   82c8c:	601a      	str	r2, [r3, #0]
			return;
   82c8e:	4770      	bx	lr
   82c90:	400e0800 	.word	0x400e0800
   82c94:	200709e0 	.word	0x200709e0
   82c98:	200709d8 	.word	0x200709d8
   82c9c:	20070a38 	.word	0x20070a38
   82ca0:	20071a6c 	.word	0x20071a6c
   82ca4:	200711b8 	.word	0x200711b8
   82ca8:	200715e0 	.word	0x200715e0

00082cac <uart_receive>:
	}
}

uint8_t uart_receive(void)
{
	while (!(UART->UART_SR & UART_SR_RXRDY)); // Wait for character
   82cac:	4a04      	ldr	r2, [pc, #16]	; (82cc0 <uart_receive+0x14>)
   82cae:	6953      	ldr	r3, [r2, #20]
   82cb0:	f013 0f01 	tst.w	r3, #1
   82cb4:	d0fb      	beq.n	82cae <uart_receive+0x2>
	return UART->UART_RHR;
   82cb6:	4b02      	ldr	r3, [pc, #8]	; (82cc0 <uart_receive+0x14>)
   82cb8:	6998      	ldr	r0, [r3, #24]
}
   82cba:	b2c0      	uxtb	r0, r0
   82cbc:	4770      	bx	lr
   82cbe:	bf00      	nop
   82cc0:	400e0800 	.word	0x400e0800

00082cc4 <uart_load_pdc_tx_buffer>:

void uart_load_pdc_tx_buffer(uint8_t * address, uint16_t size)
{
   82cc4:	b510      	push	{r4, lr}
	PdcTxPacket.ul_addr = address;
   82cc6:	4b07      	ldr	r3, [pc, #28]	; (82ce4 <uart_load_pdc_tx_buffer+0x20>)
   82cc8:	6018      	str	r0, [r3, #0]
	PdcTxPacket.ul_size = size;
   82cca:	6059      	str	r1, [r3, #4]
	pdc_tx_init(PdcInterface, &PdcTxPacket, NULL);
   82ccc:	4c06      	ldr	r4, [pc, #24]	; (82ce8 <uart_load_pdc_tx_buffer+0x24>)
   82cce:	2200      	movs	r2, #0
   82cd0:	4619      	mov	r1, r3
   82cd2:	6820      	ldr	r0, [r4, #0]
   82cd4:	4b05      	ldr	r3, [pc, #20]	; (82cec <uart_load_pdc_tx_buffer+0x28>)
   82cd6:	4798      	blx	r3
	pdc_enable_transfer(PdcInterface, PERIPH_PTCR_TXTEN);
   82cd8:	f44f 7180 	mov.w	r1, #256	; 0x100
   82cdc:	6820      	ldr	r0, [r4, #0]
   82cde:	4b04      	ldr	r3, [pc, #16]	; (82cf0 <uart_load_pdc_tx_buffer+0x2c>)
   82ce0:	4798      	blx	r3
   82ce2:	bd10      	pop	{r4, pc}
   82ce4:	2007243c 	.word	0x2007243c
   82ce8:	200715e4 	.word	0x200715e4
   82cec:	000803e9 	.word	0x000803e9
   82cf0:	00080401 	.word	0x00080401

00082cf4 <main>:
		}
	}
}

int main (void)
{
   82cf4:	b580      	push	{r7, lr}
   82cf6:	b084      	sub	sp, #16
	/* Insert system clock initialization code here (sysclk_init()). */
	sysclk_init();
   82cf8:	4b82      	ldr	r3, [pc, #520]	; (82f04 <main+0x210>)
   82cfa:	4798      	blx	r3
	board_init();
   82cfc:	4b82      	ldr	r3, [pc, #520]	; (82f08 <main+0x214>)
   82cfe:	4798      	blx	r3

	// Initialize pins
	pmc_enable_periph_clk(ID_PIOC);
   82d00:	200d      	movs	r0, #13
   82d02:	4c82      	ldr	r4, [pc, #520]	; (82f0c <main+0x218>)
   82d04:	47a0      	blx	r4
	pmc_enable_periph_clk(ID_PIOD);
   82d06:	200e      	movs	r0, #14
   82d08:	47a0      	blx	r4
	// Configure pins as output MOVED TO CYLINDER INIT 17.4.17 JBB
 	pio_set_output(PIOC, IGN1_OUT, HIGH, FALSE, FALSE); // debug pin
   82d0a:	4e81      	ldr	r6, [pc, #516]	; (82f10 <main+0x21c>)
   82d0c:	2400      	movs	r4, #0
   82d0e:	9400      	str	r4, [sp, #0]
   82d10:	4623      	mov	r3, r4
   82d12:	2201      	movs	r2, #1
   82d14:	f44f 2100 	mov.w	r1, #524288	; 0x80000
   82d18:	4630      	mov	r0, r6
   82d1a:	4d7e      	ldr	r5, [pc, #504]	; (82f14 <main+0x220>)
   82d1c:	47a8      	blx	r5
	pio_set_output(PIOC, IGN2_OUT, HIGH, FALSE, FALSE);
   82d1e:	9400      	str	r4, [sp, #0]
   82d20:	4623      	mov	r3, r4
   82d22:	2201      	movs	r2, #1
   82d24:	f44f 0100 	mov.w	r1, #8388608	; 0x800000
   82d28:	4630      	mov	r0, r6
   82d2a:	47a8      	blx	r5
	pio_set_output(PIOC, IGN3_OUT, HIGH, FALSE, FALSE);
   82d2c:	9400      	str	r4, [sp, #0]
   82d2e:	4623      	mov	r3, r4
   82d30:	2201      	movs	r2, #1
   82d32:	f44f 3100 	mov.w	r1, #131072	; 0x20000
   82d36:	4630      	mov	r0, r6
   82d38:	47a8      	blx	r5
	pio_set_output(PIOC, IGN4_OUT, HIGH, FALSE, FALSE);
   82d3a:	9400      	str	r4, [sp, #0]
   82d3c:	4623      	mov	r3, r4
   82d3e:	2201      	movs	r2, #1
   82d40:	f04f 7100 	mov.w	r1, #33554432	; 0x2000000
   82d44:	4630      	mov	r0, r6
   82d46:	47a8      	blx	r5
	pio_set_output(PIOC, IGN5_OUT, LOW, FALSE, FALSE);
   82d48:	9400      	str	r4, [sp, #0]
   82d4a:	4623      	mov	r3, r4
   82d4c:	4622      	mov	r2, r4
   82d4e:	f04f 4180 	mov.w	r1, #1073741824	; 0x40000000
   82d52:	4630      	mov	r0, r6
   82d54:	47a8      	blx	r5
	pio_set_output(PIOC, IGN6_OUT, LOW, FALSE, FALSE);
   82d56:	9400      	str	r4, [sp, #0]
   82d58:	4623      	mov	r3, r4
   82d5a:	4622      	mov	r2, r4
   82d5c:	f04f 5100 	mov.w	r1, #536870912	; 0x20000000
   82d60:	4630      	mov	r0, r6
   82d62:	47a8      	blx	r5
	pio_set_output(PIOC, IGN7_OUT, LOW, FALSE, FALSE);
   82d64:	9400      	str	r4, [sp, #0]
   82d66:	4623      	mov	r3, r4
   82d68:	4622      	mov	r2, r4
   82d6a:	f04f 5180 	mov.w	r1, #268435456	; 0x10000000
   82d6e:	4630      	mov	r0, r6
   82d70:	47a8      	blx	r5
	pio_set_output(PIOC, IGN8_OUT, LOW, FALSE, FALSE);
   82d72:	9400      	str	r4, [sp, #0]
   82d74:	4623      	mov	r3, r4
   82d76:	4622      	mov	r2, r4
   82d78:	f04f 6100 	mov.w	r1, #134217728	; 0x8000000
   82d7c:	4630      	mov	r0, r6
   82d7e:	47a8      	blx	r5
	pio_set_output(PIOC, IGN_AUX_OUT, LOW, FALSE, FALSE);
   82d80:	9400      	str	r4, [sp, #0]
   82d82:	4623      	mov	r3, r4
   82d84:	4622      	mov	r2, r4
   82d86:	f44f 1100 	mov.w	r1, #2097152	; 0x200000
   82d8a:	4630      	mov	r0, r6
   82d8c:	47a8      	blx	r5
	pio_set_output(PIOC, INJ1_OUT, HIGH, FALSE, FALSE);
   82d8e:	9400      	str	r4, [sp, #0]
   82d90:	4623      	mov	r3, r4
   82d92:	2201      	movs	r2, #1
   82d94:	2102      	movs	r1, #2
   82d96:	4630      	mov	r0, r6
   82d98:	47a8      	blx	r5
	pio_set_output(PIOD, INJ2_OUT, HIGH, FALSE, FALSE);
   82d9a:	9400      	str	r4, [sp, #0]
   82d9c:	4623      	mov	r3, r4
   82d9e:	2201      	movs	r2, #1
   82da0:	4611      	mov	r1, r2
   82da2:	485d      	ldr	r0, [pc, #372]	; (82f18 <main+0x224>)
   82da4:	47a8      	blx	r5
	pio_set_output(PIOC, INJ3_OUT, HIGH, FALSE, FALSE);
   82da6:	9400      	str	r4, [sp, #0]
   82da8:	4623      	mov	r3, r4
   82daa:	2201      	movs	r2, #1
   82dac:	2108      	movs	r1, #8
   82dae:	4630      	mov	r0, r6
   82db0:	47a8      	blx	r5
	pio_set_output(PIOC, INJ4_OUT, HIGH, FALSE, FALSE);
   82db2:	9400      	str	r4, [sp, #0]
   82db4:	4623      	mov	r3, r4
   82db6:	2201      	movs	r2, #1
   82db8:	2120      	movs	r1, #32
   82dba:	4630      	mov	r0, r6
   82dbc:	47a8      	blx	r5
	pio_set_output(PIOC, INJ5_OUT, LOW, FALSE, FALSE);
   82dbe:	9400      	str	r4, [sp, #0]
   82dc0:	4623      	mov	r3, r4
   82dc2:	4622      	mov	r2, r4
   82dc4:	f44f 5100 	mov.w	r1, #8192	; 0x2000
   82dc8:	4630      	mov	r0, r6
   82dca:	47a8      	blx	r5
	pio_set_output(PIOC, INJ6_OUT, LOW, FALSE, FALSE);
   82dcc:	9400      	str	r4, [sp, #0]
   82dce:	4623      	mov	r3, r4
   82dd0:	4622      	mov	r2, r4
   82dd2:	2180      	movs	r1, #128	; 0x80
   82dd4:	4630      	mov	r0, r6
   82dd6:	47a8      	blx	r5
	pio_set_output(PIOC, INJ7_OUT, LOW, FALSE, FALSE);
   82dd8:	9400      	str	r4, [sp, #0]
   82dda:	4623      	mov	r3, r4
   82ddc:	4622      	mov	r2, r4
   82dde:	f44f 4100 	mov.w	r1, #32768	; 0x8000
   82de2:	4630      	mov	r0, r6
   82de4:	47a8      	blx	r5
	pio_set_output(PIOC, INJ8_OUT, LOW, FALSE, FALSE);
   82de6:	9400      	str	r4, [sp, #0]
   82de8:	4623      	mov	r3, r4
   82dea:	4622      	mov	r2, r4
   82dec:	f44f 7100 	mov.w	r1, #512	; 0x200
   82df0:	4630      	mov	r0, r6
   82df2:	47a8      	blx	r5
	pio_set_output(PIOC, INJ_AUX_OUT, LOW, FALSE, FALSE);
   82df4:	9400      	str	r4, [sp, #0]
   82df6:	4623      	mov	r3, r4
   82df8:	4622      	mov	r2, r4
   82dfa:	f44f 6100 	mov.w	r1, #2048	; 0x800
   82dfe:	4630      	mov	r0, r6
   82e00:	47a8      	blx	r5
	
	// Initialize UART communication
	uart_init();
   82e02:	4b46      	ldr	r3, [pc, #280]	; (82f1c <main+0x228>)
   82e04:	4798      	blx	r3
	// Initialize interrupts for UART
	uart_enable_rx_interrupt();
   82e06:	4b46      	ldr	r3, [pc, #280]	; (82f20 <main+0x22c>)
   82e08:	4798      	blx	r3
	uart_tx_interrupt_init();
   82e0a:	4b46      	ldr	r3, [pc, #280]	; (82f24 <main+0x230>)
   82e0c:	4798      	blx	r3
	uart_print_string("Init begin"); uart_new_line();
   82e0e:	4846      	ldr	r0, [pc, #280]	; (82f28 <main+0x234>)
   82e10:	4e46      	ldr	r6, [pc, #280]	; (82f2c <main+0x238>)
   82e12:	47b0      	blx	r6
   82e14:	4d46      	ldr	r5, [pc, #280]	; (82f30 <main+0x23c>)
   82e16:	47a8      	blx	r5

	// Initialize TWI communication for EEPROM
	eeprom_init();
   82e18:	4b46      	ldr	r3, [pc, #280]	; (82f34 <main+0x240>)
   82e1a:	4798      	blx	r3

	// Initialize necessary global parameters
	global_init();
   82e1c:	4b46      	ldr	r3, [pc, #280]	; (82f38 <main+0x244>)
   82e1e:	4798      	blx	r3
	
	// Initialize Analog to Digital Converter
	adc_initialize();
   82e20:	4b46      	ldr	r3, [pc, #280]	; (82f3c <main+0x248>)
   82e22:	4798      	blx	r3
	uint8_t channel_number[NR_OF_ACTIVE_ADC_CHANNELS] = {ADC_CLT_CH, ADC_IAT_CH, ADC_AFR_CH, ADC_MAP_CH, ADC_TPS_CH, ADC_BATT_CH, ADC_AFR_CH};
   82e24:	4b46      	ldr	r3, [pc, #280]	; (82f40 <main+0x24c>)
   82e26:	6818      	ldr	r0, [r3, #0]
   82e28:	9002      	str	r0, [sp, #8]
   82e2a:	889a      	ldrh	r2, [r3, #4]
   82e2c:	799b      	ldrb	r3, [r3, #6]
   82e2e:	f8ad 200c 	strh.w	r2, [sp, #12]
   82e32:	f88d 300e 	strb.w	r3, [sp, #14]
	adc_turn_on_multiple_channels(channel_number, TRUE, ADC_PRIORITY);
   82e36:	220a      	movs	r2, #10
   82e38:	2101      	movs	r1, #1
   82e3a:	a802      	add	r0, sp, #8
   82e3c:	4b41      	ldr	r3, [pc, #260]	; (82f44 <main+0x250>)
   82e3e:	4798      	blx	r3
	adc_start(ADC);
   82e40:	4841      	ldr	r0, [pc, #260]	; (82f48 <main+0x254>)
   82e42:	4b42      	ldr	r3, [pc, #264]	; (82f4c <main+0x258>)
   82e44:	4798      	blx	r3
	// Initialize ADC timer frequency, how often ADC values are measured
	timer_init(GLOBAL_TIMER, TC_CMR_WAVE | TC_CMR_TCCLKS_TIMER_CLOCK3 | TC_CMR_EEVT_XC0, TC_IER_COVFS | TC_IER_CPAS | TC_IER_CPBS | TC_IER_CPCS, TC8_PRIORITY);
   82e46:	2309      	movs	r3, #9
   82e48:	221d      	movs	r2, #29
   82e4a:	f248 4102 	movw	r1, #33794	; 0x8402
   82e4e:	2008      	movs	r0, #8
   82e50:	4f3f      	ldr	r7, [pc, #252]	; (82f50 <main+0x25c>)
   82e52:	47b8      	blx	r7
	tc_write_ra(TC2, 2, GLOBAL_TIMER_FREQ/GlobalTimerFreqADCScaler);
   82e54:	4b3f      	ldr	r3, [pc, #252]	; (82f54 <main+0x260>)
   82e56:	881b      	ldrh	r3, [r3, #0]
   82e58:	4f3f      	ldr	r7, [pc, #252]	; (82f58 <main+0x264>)
   82e5a:	4a40      	ldr	r2, [pc, #256]	; (82f5c <main+0x268>)
   82e5c:	fb92 f2f3 	sdiv	r2, r2, r3
   82e60:	2102      	movs	r1, #2
   82e62:	4638      	mov	r0, r7
   82e64:	4b3e      	ldr	r3, [pc, #248]	; (82f60 <main+0x26c>)
   82e66:	4798      	blx	r3
	tc_write_rc(TC2, 2, GLOBAL_TIMER_FREQ/MILLI_SEC);
   82e68:	f640 2241 	movw	r2, #2625	; 0xa41
   82e6c:	2102      	movs	r1, #2
   82e6e:	4638      	mov	r0, r7
   82e70:	4b3c      	ldr	r3, [pc, #240]	; (82f64 <main+0x270>)
   82e72:	4798      	blx	r3
	
	// Initialize sensors look up vectors by reading them from EEPROM
	sensors_init();
   82e74:	4b3c      	ldr	r3, [pc, #240]	; (82f68 <main+0x274>)
   82e76:	4798      	blx	r3

	// Initialize communication with tunerstudio
	tunerstudio_init();	
   82e78:	4b3c      	ldr	r3, [pc, #240]	; (82f6c <main+0x278>)
   82e7a:	4798      	blx	r3
	
	/************* RJR **************/
	
	// Enable external interrupt for PIOA register, crank and cam
	interrupts_enable_pio(ID_PIOA, CRANK_SIGNAL, PIOA_PRIORITY, INTERRUPT_FALLING_EDGE_MODE);
   82e7c:	2302      	movs	r3, #2
   82e7e:	4622      	mov	r2, r4
   82e80:	2180      	movs	r1, #128	; 0x80
   82e82:	200b      	movs	r0, #11
   82e84:	4f3a      	ldr	r7, [pc, #232]	; (82f70 <main+0x27c>)
   82e86:	47b8      	blx	r7
	interrupts_enable_pio(ID_PIOA, CAM_SIGNAL, PIOA_PRIORITY, INTERRUPT_FALLING_EDGE_MODE);
   82e88:	2302      	movs	r3, #2
   82e8a:	4622      	mov	r2, r4
   82e8c:	f44f 4100 	mov.w	r1, #32768	; 0x8000
   82e90:	200b      	movs	r0, #11
   82e92:	47b8      	blx	r7
// 	timer_init(CYLINDER_1_TIMER, TC_CMR_WAVE | TC_CMR_TCCLKS_TIMER_CLOCK3 | TC_CMR_EEVT_XC0, TC_IER_COVFS | TC_IER_CPAS | TC_IER_CPBS | TC_IER_CPCS, TC0_PRIORITY);
// 	timer_init(CYLINDER_2_TIMER, TC_CMR_WAVE | TC_CMR_TCCLKS_TIMER_CLOCK3 | TC_CMR_EEVT_XC0, TC_IER_COVFS | TC_IER_CPAS | TC_IER_CPBS | TC_IER_CPCS, TC1_PRIORITY);
// 	timer_init(CYLINDER_3_TIMER, TC_CMR_WAVE | TC_CMR_TCCLKS_TIMER_CLOCK3 | TC_CMR_EEVT_XC0, TC_IER_COVFS | TC_IER_CPAS | TC_IER_CPBS | TC_IER_CPCS, TC2_PRIORITY);
// 	timer_init(CYLINDER_4_TIMER, TC_CMR_WAVE | TC_CMR_TCCLKS_TIMER_CLOCK3 | TC_CMR_EEVT_XC0, TC_IER_COVFS | TC_IER_CPAS | TC_IER_CPBS | TC_IER_CPCS, TC3_PRIORITY);
	
	uart_print_string("Init done"); uart_new_line();
   82e94:	4837      	ldr	r0, [pc, #220]	; (82f74 <main+0x280>)
   82e96:	47b0      	blx	r6
   82e98:	47a8      	blx	r5

	uart_print_int(sizeof(debug_cylinder)); uart_new_line();
   82e9a:	2080      	movs	r0, #128	; 0x80
   82e9c:	4b36      	ldr	r3, [pc, #216]	; (82f78 <main+0x284>)
   82e9e:	4798      	blx	r3
   82ea0:	47a8      	blx	r5
	
	while (1)
	{		
		if (AdcFlag)
   82ea2:	4d36      	ldr	r5, [pc, #216]	; (82f7c <main+0x288>)
		{
 			AdcFlag = FALSE;
			// TODO: Maybe disable interrupts
			sensors_read_adc();
   82ea4:	4f36      	ldr	r7, [pc, #216]	; (82f80 <main+0x28c>)
// 				uart_print_string("Channel"); uart_print_int(channel_number[i]);uart_print_string(" :");uart_print_int(math_find_median(AdcData[AdcChannels[i]], ADC_MEDIAN_FILTER_LENGTH)); uart_new_line();
// 				__asm__("nop");
// 			}
		}
		
		if (RxFlag)
   82ea6:	4c37      	ldr	r4, [pc, #220]	; (82f84 <main+0x290>)
		if (CrankSignalFlag)
		{
			CrankSignalFlag = FALSE;
			decoders_crank_primary();
		}
		if (CrankNewCycleFlag)
   82ea8:	4e37      	ldr	r6, [pc, #220]	; (82f88 <main+0x294>)
   82eaa:	e00a      	b.n	82ec2 <main+0x1ce>
 			AdcFlag = FALSE;
   82eac:	2300      	movs	r3, #0
   82eae:	702b      	strb	r3, [r5, #0]
			sensors_read_adc();
   82eb0:	47b8      	blx	r7
   82eb2:	e009      	b.n	82ec8 <main+0x1d4>
			RxFlag = FALSE;
   82eb4:	2300      	movs	r3, #0
   82eb6:	7023      	strb	r3, [r4, #0]
			uart_rx_read_buffer();
   82eb8:	4b34      	ldr	r3, [pc, #208]	; (82f8c <main+0x298>)
   82eba:	4798      	blx	r3
   82ebc:	e007      	b.n	82ece <main+0x1da>
		if (CrankNewCycleFlag)
   82ebe:	7833      	ldrb	r3, [r6, #0]
   82ec0:	b97b      	cbnz	r3, 82ee2 <main+0x1ee>
		if (AdcFlag)
   82ec2:	782b      	ldrb	r3, [r5, #0]
   82ec4:	2b00      	cmp	r3, #0
   82ec6:	d1f1      	bne.n	82eac <main+0x1b8>
		if (RxFlag)
   82ec8:	7823      	ldrb	r3, [r4, #0]
   82eca:	2b00      	cmp	r3, #0
   82ecc:	d1f2      	bne.n	82eb4 <main+0x1c0>
		if (CrankSignalFlag)
   82ece:	4b30      	ldr	r3, [pc, #192]	; (82f90 <main+0x29c>)
   82ed0:	781b      	ldrb	r3, [r3, #0]
   82ed2:	2b00      	cmp	r3, #0
   82ed4:	d0f3      	beq.n	82ebe <main+0x1ca>
			CrankSignalFlag = FALSE;
   82ed6:	2200      	movs	r2, #0
   82ed8:	4b2d      	ldr	r3, [pc, #180]	; (82f90 <main+0x29c>)
   82eda:	701a      	strb	r2, [r3, #0]
			decoders_crank_primary();
   82edc:	4b2d      	ldr	r3, [pc, #180]	; (82f94 <main+0x2a0>)
   82ede:	4798      	blx	r3
   82ee0:	e7ed      	b.n	82ebe <main+0x1ca>
		{
			CrankNewCycleFlag = FALSE;
   82ee2:	2300      	movs	r3, #0
   82ee4:	7033      	strb	r3, [r6, #0]
			if (isDebug)
   82ee6:	4b2c      	ldr	r3, [pc, #176]	; (82f98 <main+0x2a4>)
   82ee8:	681b      	ldr	r3, [r3, #0]
   82eea:	2b00      	cmp	r3, #0
   82eec:	d0e9      	beq.n	82ec2 <main+0x1ce>
			{
				debug_cylinder[0].RealTimeLastRevCounts = LastCrankRevCounts;
   82eee:	4a2b      	ldr	r2, [pc, #172]	; (82f9c <main+0x2a8>)
   82ef0:	6811      	ldr	r1, [r2, #0]
   82ef2:	4b2b      	ldr	r3, [pc, #172]	; (82fa0 <main+0x2ac>)
   82ef4:	6059      	str	r1, [r3, #4]
				debug_cylinder[1].RealTimeLastRevCounts = LastCrankRevCounts;
   82ef6:	6811      	ldr	r1, [r2, #0]
   82ef8:	6259      	str	r1, [r3, #36]	; 0x24
				debug_cylinder[2].RealTimeLastRevCounts = LastCrankRevCounts;
   82efa:	6811      	ldr	r1, [r2, #0]
   82efc:	6459      	str	r1, [r3, #68]	; 0x44
				debug_cylinder[3].RealTimeLastRevCounts = LastCrankRevCounts;
   82efe:	6812      	ldr	r2, [r2, #0]
   82f00:	665a      	str	r2, [r3, #100]	; 0x64
   82f02:	e7de      	b.n	82ec2 <main+0x1ce>
   82f04:	00080305 	.word	0x00080305
   82f08:	00080369 	.word	0x00080369
   82f0c:	000806f9 	.word	0x000806f9
   82f10:	400e1200 	.word	0x400e1200
   82f14:	0008047d 	.word	0x0008047d
   82f18:	400e1400 	.word	0x400e1400
   82f1c:	000829dd 	.word	0x000829dd
   82f20:	00082aed 	.word	0x00082aed
   82f24:	00082a11 	.word	0x00082a11
   82f28:	000844f4 	.word	0x000844f4
   82f2c:	00082be1 	.word	0x00082be1
   82f30:	00082bd1 	.word	0x00082bd1
   82f34:	000810c9 	.word	0x000810c9
   82f38:	000814f5 	.word	0x000814f5
   82f3c:	00080bd5 	.word	0x00080bd5
   82f40:	000844ec 	.word	0x000844ec
   82f44:	00080c71 	.word	0x00080c71
   82f48:	400c0000 	.word	0x400c0000
   82f4c:	000802e7 	.word	0x000802e7
   82f50:	00082065 	.word	0x00082065
   82f54:	20071af4 	.word	0x20071af4
   82f58:	40088000 	.word	0x40088000
   82f5c:	00280de8 	.word	0x00280de8
   82f60:	0008076d 	.word	0x0008076d
   82f64:	00080775 	.word	0x00080775
   82f68:	00081e21 	.word	0x00081e21
   82f6c:	000822c1 	.word	0x000822c1
   82f70:	000818f1 	.word	0x000818f1
   82f74:	00084500 	.word	0x00084500
   82f78:	00082b7d 	.word	0x00082b7d
   82f7c:	20071f84 	.word	0x20071f84
   82f80:	00081e71 	.word	0x00081e71
   82f84:	200715e0 	.word	0x200715e0
   82f88:	20071efb 	.word	0x20071efb
   82f8c:	00082b15 	.word	0x00082b15
   82f90:	20072444 	.word	0x20072444
   82f94:	00080f41 	.word	0x00080f41
   82f98:	20071f18 	.word	0x20071f18
   82f9c:	200709dc 	.word	0x200709dc
   82fa0:	200715e8 	.word	0x200715e8

00082fa4 <__aeabi_drsub>:
   82fa4:	f081 4100 	eor.w	r1, r1, #2147483648	; 0x80000000
   82fa8:	e002      	b.n	82fb0 <__adddf3>
   82faa:	bf00      	nop

00082fac <__aeabi_dsub>:
   82fac:	f083 4300 	eor.w	r3, r3, #2147483648	; 0x80000000

00082fb0 <__adddf3>:
   82fb0:	b530      	push	{r4, r5, lr}
   82fb2:	ea4f 0441 	mov.w	r4, r1, lsl #1
   82fb6:	ea4f 0543 	mov.w	r5, r3, lsl #1
   82fba:	ea94 0f05 	teq	r4, r5
   82fbe:	bf08      	it	eq
   82fc0:	ea90 0f02 	teqeq	r0, r2
   82fc4:	bf1f      	itttt	ne
   82fc6:	ea54 0c00 	orrsne.w	ip, r4, r0
   82fca:	ea55 0c02 	orrsne.w	ip, r5, r2
   82fce:	ea7f 5c64 	mvnsne.w	ip, r4, asr #21
   82fd2:	ea7f 5c65 	mvnsne.w	ip, r5, asr #21
   82fd6:	f000 80e2 	beq.w	8319e <__adddf3+0x1ee>
   82fda:	ea4f 5454 	mov.w	r4, r4, lsr #21
   82fde:	ebd4 5555 	rsbs	r5, r4, r5, lsr #21
   82fe2:	bfb8      	it	lt
   82fe4:	426d      	neglt	r5, r5
   82fe6:	dd0c      	ble.n	83002 <__adddf3+0x52>
   82fe8:	442c      	add	r4, r5
   82fea:	ea80 0202 	eor.w	r2, r0, r2
   82fee:	ea81 0303 	eor.w	r3, r1, r3
   82ff2:	ea82 0000 	eor.w	r0, r2, r0
   82ff6:	ea83 0101 	eor.w	r1, r3, r1
   82ffa:	ea80 0202 	eor.w	r2, r0, r2
   82ffe:	ea81 0303 	eor.w	r3, r1, r3
   83002:	2d36      	cmp	r5, #54	; 0x36
   83004:	bf88      	it	hi
   83006:	bd30      	pophi	{r4, r5, pc}
   83008:	f011 4f00 	tst.w	r1, #2147483648	; 0x80000000
   8300c:	ea4f 3101 	mov.w	r1, r1, lsl #12
   83010:	f44f 1c80 	mov.w	ip, #1048576	; 0x100000
   83014:	ea4c 3111 	orr.w	r1, ip, r1, lsr #12
   83018:	d002      	beq.n	83020 <__adddf3+0x70>
   8301a:	4240      	negs	r0, r0
   8301c:	eb61 0141 	sbc.w	r1, r1, r1, lsl #1
   83020:	f013 4f00 	tst.w	r3, #2147483648	; 0x80000000
   83024:	ea4f 3303 	mov.w	r3, r3, lsl #12
   83028:	ea4c 3313 	orr.w	r3, ip, r3, lsr #12
   8302c:	d002      	beq.n	83034 <__adddf3+0x84>
   8302e:	4252      	negs	r2, r2
   83030:	eb63 0343 	sbc.w	r3, r3, r3, lsl #1
   83034:	ea94 0f05 	teq	r4, r5
   83038:	f000 80a7 	beq.w	8318a <__adddf3+0x1da>
   8303c:	f1a4 0401 	sub.w	r4, r4, #1
   83040:	f1d5 0e20 	rsbs	lr, r5, #32
   83044:	db0d      	blt.n	83062 <__adddf3+0xb2>
   83046:	fa02 fc0e 	lsl.w	ip, r2, lr
   8304a:	fa22 f205 	lsr.w	r2, r2, r5
   8304e:	1880      	adds	r0, r0, r2
   83050:	f141 0100 	adc.w	r1, r1, #0
   83054:	fa03 f20e 	lsl.w	r2, r3, lr
   83058:	1880      	adds	r0, r0, r2
   8305a:	fa43 f305 	asr.w	r3, r3, r5
   8305e:	4159      	adcs	r1, r3
   83060:	e00e      	b.n	83080 <__adddf3+0xd0>
   83062:	f1a5 0520 	sub.w	r5, r5, #32
   83066:	f10e 0e20 	add.w	lr, lr, #32
   8306a:	2a01      	cmp	r2, #1
   8306c:	fa03 fc0e 	lsl.w	ip, r3, lr
   83070:	bf28      	it	cs
   83072:	f04c 0c02 	orrcs.w	ip, ip, #2
   83076:	fa43 f305 	asr.w	r3, r3, r5
   8307a:	18c0      	adds	r0, r0, r3
   8307c:	eb51 71e3 	adcs.w	r1, r1, r3, asr #31
   83080:	f001 4500 	and.w	r5, r1, #2147483648	; 0x80000000
   83084:	d507      	bpl.n	83096 <__adddf3+0xe6>
   83086:	f04f 0e00 	mov.w	lr, #0
   8308a:	f1dc 0c00 	rsbs	ip, ip, #0
   8308e:	eb7e 0000 	sbcs.w	r0, lr, r0
   83092:	eb6e 0101 	sbc.w	r1, lr, r1
   83096:	f5b1 1f80 	cmp.w	r1, #1048576	; 0x100000
   8309a:	d31b      	bcc.n	830d4 <__adddf3+0x124>
   8309c:	f5b1 1f00 	cmp.w	r1, #2097152	; 0x200000
   830a0:	d30c      	bcc.n	830bc <__adddf3+0x10c>
   830a2:	0849      	lsrs	r1, r1, #1
   830a4:	ea5f 0030 	movs.w	r0, r0, rrx
   830a8:	ea4f 0c3c 	mov.w	ip, ip, rrx
   830ac:	f104 0401 	add.w	r4, r4, #1
   830b0:	ea4f 5244 	mov.w	r2, r4, lsl #21
   830b4:	f512 0f80 	cmn.w	r2, #4194304	; 0x400000
   830b8:	f080 809a 	bcs.w	831f0 <__adddf3+0x240>
   830bc:	f1bc 4f00 	cmp.w	ip, #2147483648	; 0x80000000
   830c0:	bf08      	it	eq
   830c2:	ea5f 0c50 	movseq.w	ip, r0, lsr #1
   830c6:	f150 0000 	adcs.w	r0, r0, #0
   830ca:	eb41 5104 	adc.w	r1, r1, r4, lsl #20
   830ce:	ea41 0105 	orr.w	r1, r1, r5
   830d2:	bd30      	pop	{r4, r5, pc}
   830d4:	ea5f 0c4c 	movs.w	ip, ip, lsl #1
   830d8:	4140      	adcs	r0, r0
   830da:	eb41 0101 	adc.w	r1, r1, r1
   830de:	f411 1f80 	tst.w	r1, #1048576	; 0x100000
   830e2:	f1a4 0401 	sub.w	r4, r4, #1
   830e6:	d1e9      	bne.n	830bc <__adddf3+0x10c>
   830e8:	f091 0f00 	teq	r1, #0
   830ec:	bf04      	itt	eq
   830ee:	4601      	moveq	r1, r0
   830f0:	2000      	moveq	r0, #0
   830f2:	fab1 f381 	clz	r3, r1
   830f6:	bf08      	it	eq
   830f8:	3320      	addeq	r3, #32
   830fa:	f1a3 030b 	sub.w	r3, r3, #11
   830fe:	f1b3 0220 	subs.w	r2, r3, #32
   83102:	da0c      	bge.n	8311e <__adddf3+0x16e>
   83104:	320c      	adds	r2, #12
   83106:	dd08      	ble.n	8311a <__adddf3+0x16a>
   83108:	f102 0c14 	add.w	ip, r2, #20
   8310c:	f1c2 020c 	rsb	r2, r2, #12
   83110:	fa01 f00c 	lsl.w	r0, r1, ip
   83114:	fa21 f102 	lsr.w	r1, r1, r2
   83118:	e00c      	b.n	83134 <__adddf3+0x184>
   8311a:	f102 0214 	add.w	r2, r2, #20
   8311e:	bfd8      	it	le
   83120:	f1c2 0c20 	rsble	ip, r2, #32
   83124:	fa01 f102 	lsl.w	r1, r1, r2
   83128:	fa20 fc0c 	lsr.w	ip, r0, ip
   8312c:	bfdc      	itt	le
   8312e:	ea41 010c 	orrle.w	r1, r1, ip
   83132:	4090      	lslle	r0, r2
   83134:	1ae4      	subs	r4, r4, r3
   83136:	bfa2      	ittt	ge
   83138:	eb01 5104 	addge.w	r1, r1, r4, lsl #20
   8313c:	4329      	orrge	r1, r5
   8313e:	bd30      	popge	{r4, r5, pc}
   83140:	ea6f 0404 	mvn.w	r4, r4
   83144:	3c1f      	subs	r4, #31
   83146:	da1c      	bge.n	83182 <__adddf3+0x1d2>
   83148:	340c      	adds	r4, #12
   8314a:	dc0e      	bgt.n	8316a <__adddf3+0x1ba>
   8314c:	f104 0414 	add.w	r4, r4, #20
   83150:	f1c4 0220 	rsb	r2, r4, #32
   83154:	fa20 f004 	lsr.w	r0, r0, r4
   83158:	fa01 f302 	lsl.w	r3, r1, r2
   8315c:	ea40 0003 	orr.w	r0, r0, r3
   83160:	fa21 f304 	lsr.w	r3, r1, r4
   83164:	ea45 0103 	orr.w	r1, r5, r3
   83168:	bd30      	pop	{r4, r5, pc}
   8316a:	f1c4 040c 	rsb	r4, r4, #12
   8316e:	f1c4 0220 	rsb	r2, r4, #32
   83172:	fa20 f002 	lsr.w	r0, r0, r2
   83176:	fa01 f304 	lsl.w	r3, r1, r4
   8317a:	ea40 0003 	orr.w	r0, r0, r3
   8317e:	4629      	mov	r1, r5
   83180:	bd30      	pop	{r4, r5, pc}
   83182:	fa21 f004 	lsr.w	r0, r1, r4
   83186:	4629      	mov	r1, r5
   83188:	bd30      	pop	{r4, r5, pc}
   8318a:	f094 0f00 	teq	r4, #0
   8318e:	f483 1380 	eor.w	r3, r3, #1048576	; 0x100000
   83192:	bf06      	itte	eq
   83194:	f481 1180 	eoreq.w	r1, r1, #1048576	; 0x100000
   83198:	3401      	addeq	r4, #1
   8319a:	3d01      	subne	r5, #1
   8319c:	e74e      	b.n	8303c <__adddf3+0x8c>
   8319e:	ea7f 5c64 	mvns.w	ip, r4, asr #21
   831a2:	bf18      	it	ne
   831a4:	ea7f 5c65 	mvnsne.w	ip, r5, asr #21
   831a8:	d029      	beq.n	831fe <__adddf3+0x24e>
   831aa:	ea94 0f05 	teq	r4, r5
   831ae:	bf08      	it	eq
   831b0:	ea90 0f02 	teqeq	r0, r2
   831b4:	d005      	beq.n	831c2 <__adddf3+0x212>
   831b6:	ea54 0c00 	orrs.w	ip, r4, r0
   831ba:	bf04      	itt	eq
   831bc:	4619      	moveq	r1, r3
   831be:	4610      	moveq	r0, r2
   831c0:	bd30      	pop	{r4, r5, pc}
   831c2:	ea91 0f03 	teq	r1, r3
   831c6:	bf1e      	ittt	ne
   831c8:	2100      	movne	r1, #0
   831ca:	2000      	movne	r0, #0
   831cc:	bd30      	popne	{r4, r5, pc}
   831ce:	ea5f 5c54 	movs.w	ip, r4, lsr #21
   831d2:	d105      	bne.n	831e0 <__adddf3+0x230>
   831d4:	0040      	lsls	r0, r0, #1
   831d6:	4149      	adcs	r1, r1
   831d8:	bf28      	it	cs
   831da:	f041 4100 	orrcs.w	r1, r1, #2147483648	; 0x80000000
   831de:	bd30      	pop	{r4, r5, pc}
   831e0:	f514 0480 	adds.w	r4, r4, #4194304	; 0x400000
   831e4:	bf3c      	itt	cc
   831e6:	f501 1180 	addcc.w	r1, r1, #1048576	; 0x100000
   831ea:	bd30      	popcc	{r4, r5, pc}
   831ec:	f001 4500 	and.w	r5, r1, #2147483648	; 0x80000000
   831f0:	f045 41fe 	orr.w	r1, r5, #2130706432	; 0x7f000000
   831f4:	f441 0170 	orr.w	r1, r1, #15728640	; 0xf00000
   831f8:	f04f 0000 	mov.w	r0, #0
   831fc:	bd30      	pop	{r4, r5, pc}
   831fe:	ea7f 5c64 	mvns.w	ip, r4, asr #21
   83202:	bf1a      	itte	ne
   83204:	4619      	movne	r1, r3
   83206:	4610      	movne	r0, r2
   83208:	ea7f 5c65 	mvnseq.w	ip, r5, asr #21
   8320c:	bf1c      	itt	ne
   8320e:	460b      	movne	r3, r1
   83210:	4602      	movne	r2, r0
   83212:	ea50 3401 	orrs.w	r4, r0, r1, lsl #12
   83216:	bf06      	itte	eq
   83218:	ea52 3503 	orrseq.w	r5, r2, r3, lsl #12
   8321c:	ea91 0f03 	teqeq	r1, r3
   83220:	f441 2100 	orrne.w	r1, r1, #524288	; 0x80000
   83224:	bd30      	pop	{r4, r5, pc}
   83226:	bf00      	nop

00083228 <__aeabi_ui2d>:
   83228:	f090 0f00 	teq	r0, #0
   8322c:	bf04      	itt	eq
   8322e:	2100      	moveq	r1, #0
   83230:	4770      	bxeq	lr
   83232:	b530      	push	{r4, r5, lr}
   83234:	f44f 6480 	mov.w	r4, #1024	; 0x400
   83238:	f104 0432 	add.w	r4, r4, #50	; 0x32
   8323c:	f04f 0500 	mov.w	r5, #0
   83240:	f04f 0100 	mov.w	r1, #0
   83244:	e750      	b.n	830e8 <__adddf3+0x138>
   83246:	bf00      	nop

00083248 <__aeabi_i2d>:
   83248:	f090 0f00 	teq	r0, #0
   8324c:	bf04      	itt	eq
   8324e:	2100      	moveq	r1, #0
   83250:	4770      	bxeq	lr
   83252:	b530      	push	{r4, r5, lr}
   83254:	f44f 6480 	mov.w	r4, #1024	; 0x400
   83258:	f104 0432 	add.w	r4, r4, #50	; 0x32
   8325c:	f010 4500 	ands.w	r5, r0, #2147483648	; 0x80000000
   83260:	bf48      	it	mi
   83262:	4240      	negmi	r0, r0
   83264:	f04f 0100 	mov.w	r1, #0
   83268:	e73e      	b.n	830e8 <__adddf3+0x138>
   8326a:	bf00      	nop

0008326c <__aeabi_f2d>:
   8326c:	0042      	lsls	r2, r0, #1
   8326e:	ea4f 01e2 	mov.w	r1, r2, asr #3
   83272:	ea4f 0131 	mov.w	r1, r1, rrx
   83276:	ea4f 7002 	mov.w	r0, r2, lsl #28
   8327a:	bf1f      	itttt	ne
   8327c:	f012 437f 	andsne.w	r3, r2, #4278190080	; 0xff000000
   83280:	f093 4f7f 	teqne	r3, #4278190080	; 0xff000000
   83284:	f081 5160 	eorne.w	r1, r1, #939524096	; 0x38000000
   83288:	4770      	bxne	lr
   8328a:	f092 0f00 	teq	r2, #0
   8328e:	bf14      	ite	ne
   83290:	f093 4f7f 	teqne	r3, #4278190080	; 0xff000000
   83294:	4770      	bxeq	lr
   83296:	b530      	push	{r4, r5, lr}
   83298:	f44f 7460 	mov.w	r4, #896	; 0x380
   8329c:	f001 4500 	and.w	r5, r1, #2147483648	; 0x80000000
   832a0:	f021 4100 	bic.w	r1, r1, #2147483648	; 0x80000000
   832a4:	e720      	b.n	830e8 <__adddf3+0x138>
   832a6:	bf00      	nop

000832a8 <__aeabi_ul2d>:
   832a8:	ea50 0201 	orrs.w	r2, r0, r1
   832ac:	bf08      	it	eq
   832ae:	4770      	bxeq	lr
   832b0:	b530      	push	{r4, r5, lr}
   832b2:	f04f 0500 	mov.w	r5, #0
   832b6:	e00a      	b.n	832ce <__aeabi_l2d+0x16>

000832b8 <__aeabi_l2d>:
   832b8:	ea50 0201 	orrs.w	r2, r0, r1
   832bc:	bf08      	it	eq
   832be:	4770      	bxeq	lr
   832c0:	b530      	push	{r4, r5, lr}
   832c2:	f011 4500 	ands.w	r5, r1, #2147483648	; 0x80000000
   832c6:	d502      	bpl.n	832ce <__aeabi_l2d+0x16>
   832c8:	4240      	negs	r0, r0
   832ca:	eb61 0141 	sbc.w	r1, r1, r1, lsl #1
   832ce:	f44f 6480 	mov.w	r4, #1024	; 0x400
   832d2:	f104 0432 	add.w	r4, r4, #50	; 0x32
   832d6:	ea5f 5c91 	movs.w	ip, r1, lsr #22
   832da:	f43f aedc 	beq.w	83096 <__adddf3+0xe6>
   832de:	f04f 0203 	mov.w	r2, #3
   832e2:	ea5f 0cdc 	movs.w	ip, ip, lsr #3
   832e6:	bf18      	it	ne
   832e8:	3203      	addne	r2, #3
   832ea:	ea5f 0cdc 	movs.w	ip, ip, lsr #3
   832ee:	bf18      	it	ne
   832f0:	3203      	addne	r2, #3
   832f2:	eb02 02dc 	add.w	r2, r2, ip, lsr #3
   832f6:	f1c2 0320 	rsb	r3, r2, #32
   832fa:	fa00 fc03 	lsl.w	ip, r0, r3
   832fe:	fa20 f002 	lsr.w	r0, r0, r2
   83302:	fa01 fe03 	lsl.w	lr, r1, r3
   83306:	ea40 000e 	orr.w	r0, r0, lr
   8330a:	fa21 f102 	lsr.w	r1, r1, r2
   8330e:	4414      	add	r4, r2
   83310:	e6c1      	b.n	83096 <__adddf3+0xe6>
   83312:	bf00      	nop

00083314 <__aeabi_dmul>:
   83314:	b570      	push	{r4, r5, r6, lr}
   83316:	f04f 0cff 	mov.w	ip, #255	; 0xff
   8331a:	f44c 6ce0 	orr.w	ip, ip, #1792	; 0x700
   8331e:	ea1c 5411 	ands.w	r4, ip, r1, lsr #20
   83322:	bf1d      	ittte	ne
   83324:	ea1c 5513 	andsne.w	r5, ip, r3, lsr #20
   83328:	ea94 0f0c 	teqne	r4, ip
   8332c:	ea95 0f0c 	teqne	r5, ip
   83330:	f000 f8de 	bleq	834f0 <__aeabi_dmul+0x1dc>
   83334:	442c      	add	r4, r5
   83336:	ea81 0603 	eor.w	r6, r1, r3
   8333a:	ea21 514c 	bic.w	r1, r1, ip, lsl #21
   8333e:	ea23 534c 	bic.w	r3, r3, ip, lsl #21
   83342:	ea50 3501 	orrs.w	r5, r0, r1, lsl #12
   83346:	bf18      	it	ne
   83348:	ea52 3503 	orrsne.w	r5, r2, r3, lsl #12
   8334c:	f441 1180 	orr.w	r1, r1, #1048576	; 0x100000
   83350:	f443 1380 	orr.w	r3, r3, #1048576	; 0x100000
   83354:	d038      	beq.n	833c8 <__aeabi_dmul+0xb4>
   83356:	fba0 ce02 	umull	ip, lr, r0, r2
   8335a:	f04f 0500 	mov.w	r5, #0
   8335e:	fbe1 e502 	umlal	lr, r5, r1, r2
   83362:	f006 4200 	and.w	r2, r6, #2147483648	; 0x80000000
   83366:	fbe0 e503 	umlal	lr, r5, r0, r3
   8336a:	f04f 0600 	mov.w	r6, #0
   8336e:	fbe1 5603 	umlal	r5, r6, r1, r3
   83372:	f09c 0f00 	teq	ip, #0
   83376:	bf18      	it	ne
   83378:	f04e 0e01 	orrne.w	lr, lr, #1
   8337c:	f1a4 04ff 	sub.w	r4, r4, #255	; 0xff
   83380:	f5b6 7f00 	cmp.w	r6, #512	; 0x200
   83384:	f564 7440 	sbc.w	r4, r4, #768	; 0x300
   83388:	d204      	bcs.n	83394 <__aeabi_dmul+0x80>
   8338a:	ea5f 0e4e 	movs.w	lr, lr, lsl #1
   8338e:	416d      	adcs	r5, r5
   83390:	eb46 0606 	adc.w	r6, r6, r6
   83394:	ea42 21c6 	orr.w	r1, r2, r6, lsl #11
   83398:	ea41 5155 	orr.w	r1, r1, r5, lsr #21
   8339c:	ea4f 20c5 	mov.w	r0, r5, lsl #11
   833a0:	ea40 505e 	orr.w	r0, r0, lr, lsr #21
   833a4:	ea4f 2ece 	mov.w	lr, lr, lsl #11
   833a8:	f1b4 0cfd 	subs.w	ip, r4, #253	; 0xfd
   833ac:	bf88      	it	hi
   833ae:	f5bc 6fe0 	cmphi.w	ip, #1792	; 0x700
   833b2:	d81e      	bhi.n	833f2 <__aeabi_dmul+0xde>
   833b4:	f1be 4f00 	cmp.w	lr, #2147483648	; 0x80000000
   833b8:	bf08      	it	eq
   833ba:	ea5f 0e50 	movseq.w	lr, r0, lsr #1
   833be:	f150 0000 	adcs.w	r0, r0, #0
   833c2:	eb41 5104 	adc.w	r1, r1, r4, lsl #20
   833c6:	bd70      	pop	{r4, r5, r6, pc}
   833c8:	f006 4600 	and.w	r6, r6, #2147483648	; 0x80000000
   833cc:	ea46 0101 	orr.w	r1, r6, r1
   833d0:	ea40 0002 	orr.w	r0, r0, r2
   833d4:	ea81 0103 	eor.w	r1, r1, r3
   833d8:	ebb4 045c 	subs.w	r4, r4, ip, lsr #1
   833dc:	bfc2      	ittt	gt
   833de:	ebd4 050c 	rsbsgt	r5, r4, ip
   833e2:	ea41 5104 	orrgt.w	r1, r1, r4, lsl #20
   833e6:	bd70      	popgt	{r4, r5, r6, pc}
   833e8:	f441 1180 	orr.w	r1, r1, #1048576	; 0x100000
   833ec:	f04f 0e00 	mov.w	lr, #0
   833f0:	3c01      	subs	r4, #1
   833f2:	f300 80ab 	bgt.w	8354c <__aeabi_dmul+0x238>
   833f6:	f114 0f36 	cmn.w	r4, #54	; 0x36
   833fa:	bfde      	ittt	le
   833fc:	2000      	movle	r0, #0
   833fe:	f001 4100 	andle.w	r1, r1, #2147483648	; 0x80000000
   83402:	bd70      	pople	{r4, r5, r6, pc}
   83404:	f1c4 0400 	rsb	r4, r4, #0
   83408:	3c20      	subs	r4, #32
   8340a:	da35      	bge.n	83478 <__aeabi_dmul+0x164>
   8340c:	340c      	adds	r4, #12
   8340e:	dc1b      	bgt.n	83448 <__aeabi_dmul+0x134>
   83410:	f104 0414 	add.w	r4, r4, #20
   83414:	f1c4 0520 	rsb	r5, r4, #32
   83418:	fa00 f305 	lsl.w	r3, r0, r5
   8341c:	fa20 f004 	lsr.w	r0, r0, r4
   83420:	fa01 f205 	lsl.w	r2, r1, r5
   83424:	ea40 0002 	orr.w	r0, r0, r2
   83428:	f001 4200 	and.w	r2, r1, #2147483648	; 0x80000000
   8342c:	f021 4100 	bic.w	r1, r1, #2147483648	; 0x80000000
   83430:	eb10 70d3 	adds.w	r0, r0, r3, lsr #31
   83434:	fa21 f604 	lsr.w	r6, r1, r4
   83438:	eb42 0106 	adc.w	r1, r2, r6
   8343c:	ea5e 0e43 	orrs.w	lr, lr, r3, lsl #1
   83440:	bf08      	it	eq
   83442:	ea20 70d3 	biceq.w	r0, r0, r3, lsr #31
   83446:	bd70      	pop	{r4, r5, r6, pc}
   83448:	f1c4 040c 	rsb	r4, r4, #12
   8344c:	f1c4 0520 	rsb	r5, r4, #32
   83450:	fa00 f304 	lsl.w	r3, r0, r4
   83454:	fa20 f005 	lsr.w	r0, r0, r5
   83458:	fa01 f204 	lsl.w	r2, r1, r4
   8345c:	ea40 0002 	orr.w	r0, r0, r2
   83460:	f001 4100 	and.w	r1, r1, #2147483648	; 0x80000000
   83464:	eb10 70d3 	adds.w	r0, r0, r3, lsr #31
   83468:	f141 0100 	adc.w	r1, r1, #0
   8346c:	ea5e 0e43 	orrs.w	lr, lr, r3, lsl #1
   83470:	bf08      	it	eq
   83472:	ea20 70d3 	biceq.w	r0, r0, r3, lsr #31
   83476:	bd70      	pop	{r4, r5, r6, pc}
   83478:	f1c4 0520 	rsb	r5, r4, #32
   8347c:	fa00 f205 	lsl.w	r2, r0, r5
   83480:	ea4e 0e02 	orr.w	lr, lr, r2
   83484:	fa20 f304 	lsr.w	r3, r0, r4
   83488:	fa01 f205 	lsl.w	r2, r1, r5
   8348c:	ea43 0302 	orr.w	r3, r3, r2
   83490:	fa21 f004 	lsr.w	r0, r1, r4
   83494:	f001 4100 	and.w	r1, r1, #2147483648	; 0x80000000
   83498:	fa21 f204 	lsr.w	r2, r1, r4
   8349c:	ea20 0002 	bic.w	r0, r0, r2
   834a0:	eb00 70d3 	add.w	r0, r0, r3, lsr #31
   834a4:	ea5e 0e43 	orrs.w	lr, lr, r3, lsl #1
   834a8:	bf08      	it	eq
   834aa:	ea20 70d3 	biceq.w	r0, r0, r3, lsr #31
   834ae:	bd70      	pop	{r4, r5, r6, pc}
   834b0:	f094 0f00 	teq	r4, #0
   834b4:	d10f      	bne.n	834d6 <__aeabi_dmul+0x1c2>
   834b6:	f001 4600 	and.w	r6, r1, #2147483648	; 0x80000000
   834ba:	0040      	lsls	r0, r0, #1
   834bc:	eb41 0101 	adc.w	r1, r1, r1
   834c0:	f411 1f80 	tst.w	r1, #1048576	; 0x100000
   834c4:	bf08      	it	eq
   834c6:	3c01      	subeq	r4, #1
   834c8:	d0f7      	beq.n	834ba <__aeabi_dmul+0x1a6>
   834ca:	ea41 0106 	orr.w	r1, r1, r6
   834ce:	f095 0f00 	teq	r5, #0
   834d2:	bf18      	it	ne
   834d4:	4770      	bxne	lr
   834d6:	f003 4600 	and.w	r6, r3, #2147483648	; 0x80000000
   834da:	0052      	lsls	r2, r2, #1
   834dc:	eb43 0303 	adc.w	r3, r3, r3
   834e0:	f413 1f80 	tst.w	r3, #1048576	; 0x100000
   834e4:	bf08      	it	eq
   834e6:	3d01      	subeq	r5, #1
   834e8:	d0f7      	beq.n	834da <__aeabi_dmul+0x1c6>
   834ea:	ea43 0306 	orr.w	r3, r3, r6
   834ee:	4770      	bx	lr
   834f0:	ea94 0f0c 	teq	r4, ip
   834f4:	ea0c 5513 	and.w	r5, ip, r3, lsr #20
   834f8:	bf18      	it	ne
   834fa:	ea95 0f0c 	teqne	r5, ip
   834fe:	d00c      	beq.n	8351a <__aeabi_dmul+0x206>
   83500:	ea50 0641 	orrs.w	r6, r0, r1, lsl #1
   83504:	bf18      	it	ne
   83506:	ea52 0643 	orrsne.w	r6, r2, r3, lsl #1
   8350a:	d1d1      	bne.n	834b0 <__aeabi_dmul+0x19c>
   8350c:	ea81 0103 	eor.w	r1, r1, r3
   83510:	f001 4100 	and.w	r1, r1, #2147483648	; 0x80000000
   83514:	f04f 0000 	mov.w	r0, #0
   83518:	bd70      	pop	{r4, r5, r6, pc}
   8351a:	ea50 0641 	orrs.w	r6, r0, r1, lsl #1
   8351e:	bf06      	itte	eq
   83520:	4610      	moveq	r0, r2
   83522:	4619      	moveq	r1, r3
   83524:	ea52 0643 	orrsne.w	r6, r2, r3, lsl #1
   83528:	d019      	beq.n	8355e <__aeabi_dmul+0x24a>
   8352a:	ea94 0f0c 	teq	r4, ip
   8352e:	d102      	bne.n	83536 <__aeabi_dmul+0x222>
   83530:	ea50 3601 	orrs.w	r6, r0, r1, lsl #12
   83534:	d113      	bne.n	8355e <__aeabi_dmul+0x24a>
   83536:	ea95 0f0c 	teq	r5, ip
   8353a:	d105      	bne.n	83548 <__aeabi_dmul+0x234>
   8353c:	ea52 3603 	orrs.w	r6, r2, r3, lsl #12
   83540:	bf1c      	itt	ne
   83542:	4610      	movne	r0, r2
   83544:	4619      	movne	r1, r3
   83546:	d10a      	bne.n	8355e <__aeabi_dmul+0x24a>
   83548:	ea81 0103 	eor.w	r1, r1, r3
   8354c:	f001 4100 	and.w	r1, r1, #2147483648	; 0x80000000
   83550:	f041 41fe 	orr.w	r1, r1, #2130706432	; 0x7f000000
   83554:	f441 0170 	orr.w	r1, r1, #15728640	; 0xf00000
   83558:	f04f 0000 	mov.w	r0, #0
   8355c:	bd70      	pop	{r4, r5, r6, pc}
   8355e:	f041 41fe 	orr.w	r1, r1, #2130706432	; 0x7f000000
   83562:	f441 0178 	orr.w	r1, r1, #16252928	; 0xf80000
   83566:	bd70      	pop	{r4, r5, r6, pc}

00083568 <__aeabi_ddiv>:
   83568:	b570      	push	{r4, r5, r6, lr}
   8356a:	f04f 0cff 	mov.w	ip, #255	; 0xff
   8356e:	f44c 6ce0 	orr.w	ip, ip, #1792	; 0x700
   83572:	ea1c 5411 	ands.w	r4, ip, r1, lsr #20
   83576:	bf1d      	ittte	ne
   83578:	ea1c 5513 	andsne.w	r5, ip, r3, lsr #20
   8357c:	ea94 0f0c 	teqne	r4, ip
   83580:	ea95 0f0c 	teqne	r5, ip
   83584:	f000 f8a7 	bleq	836d6 <__aeabi_ddiv+0x16e>
   83588:	eba4 0405 	sub.w	r4, r4, r5
   8358c:	ea81 0e03 	eor.w	lr, r1, r3
   83590:	ea52 3503 	orrs.w	r5, r2, r3, lsl #12
   83594:	ea4f 3101 	mov.w	r1, r1, lsl #12
   83598:	f000 8088 	beq.w	836ac <__aeabi_ddiv+0x144>
   8359c:	ea4f 3303 	mov.w	r3, r3, lsl #12
   835a0:	f04f 5580 	mov.w	r5, #268435456	; 0x10000000
   835a4:	ea45 1313 	orr.w	r3, r5, r3, lsr #4
   835a8:	ea43 6312 	orr.w	r3, r3, r2, lsr #24
   835ac:	ea4f 2202 	mov.w	r2, r2, lsl #8
   835b0:	ea45 1511 	orr.w	r5, r5, r1, lsr #4
   835b4:	ea45 6510 	orr.w	r5, r5, r0, lsr #24
   835b8:	ea4f 2600 	mov.w	r6, r0, lsl #8
   835bc:	f00e 4100 	and.w	r1, lr, #2147483648	; 0x80000000
   835c0:	429d      	cmp	r5, r3
   835c2:	bf08      	it	eq
   835c4:	4296      	cmpeq	r6, r2
   835c6:	f144 04fd 	adc.w	r4, r4, #253	; 0xfd
   835ca:	f504 7440 	add.w	r4, r4, #768	; 0x300
   835ce:	d202      	bcs.n	835d6 <__aeabi_ddiv+0x6e>
   835d0:	085b      	lsrs	r3, r3, #1
   835d2:	ea4f 0232 	mov.w	r2, r2, rrx
   835d6:	1ab6      	subs	r6, r6, r2
   835d8:	eb65 0503 	sbc.w	r5, r5, r3
   835dc:	085b      	lsrs	r3, r3, #1
   835de:	ea4f 0232 	mov.w	r2, r2, rrx
   835e2:	f44f 1080 	mov.w	r0, #1048576	; 0x100000
   835e6:	f44f 2c00 	mov.w	ip, #524288	; 0x80000
   835ea:	ebb6 0e02 	subs.w	lr, r6, r2
   835ee:	eb75 0e03 	sbcs.w	lr, r5, r3
   835f2:	bf22      	ittt	cs
   835f4:	1ab6      	subcs	r6, r6, r2
   835f6:	4675      	movcs	r5, lr
   835f8:	ea40 000c 	orrcs.w	r0, r0, ip
   835fc:	085b      	lsrs	r3, r3, #1
   835fe:	ea4f 0232 	mov.w	r2, r2, rrx
   83602:	ebb6 0e02 	subs.w	lr, r6, r2
   83606:	eb75 0e03 	sbcs.w	lr, r5, r3
   8360a:	bf22      	ittt	cs
   8360c:	1ab6      	subcs	r6, r6, r2
   8360e:	4675      	movcs	r5, lr
   83610:	ea40 005c 	orrcs.w	r0, r0, ip, lsr #1
   83614:	085b      	lsrs	r3, r3, #1
   83616:	ea4f 0232 	mov.w	r2, r2, rrx
   8361a:	ebb6 0e02 	subs.w	lr, r6, r2
   8361e:	eb75 0e03 	sbcs.w	lr, r5, r3
   83622:	bf22      	ittt	cs
   83624:	1ab6      	subcs	r6, r6, r2
   83626:	4675      	movcs	r5, lr
   83628:	ea40 009c 	orrcs.w	r0, r0, ip, lsr #2
   8362c:	085b      	lsrs	r3, r3, #1
   8362e:	ea4f 0232 	mov.w	r2, r2, rrx
   83632:	ebb6 0e02 	subs.w	lr, r6, r2
   83636:	eb75 0e03 	sbcs.w	lr, r5, r3
   8363a:	bf22      	ittt	cs
   8363c:	1ab6      	subcs	r6, r6, r2
   8363e:	4675      	movcs	r5, lr
   83640:	ea40 00dc 	orrcs.w	r0, r0, ip, lsr #3
   83644:	ea55 0e06 	orrs.w	lr, r5, r6
   83648:	d018      	beq.n	8367c <__aeabi_ddiv+0x114>
   8364a:	ea4f 1505 	mov.w	r5, r5, lsl #4
   8364e:	ea45 7516 	orr.w	r5, r5, r6, lsr #28
   83652:	ea4f 1606 	mov.w	r6, r6, lsl #4
   83656:	ea4f 03c3 	mov.w	r3, r3, lsl #3
   8365a:	ea43 7352 	orr.w	r3, r3, r2, lsr #29
   8365e:	ea4f 02c2 	mov.w	r2, r2, lsl #3
   83662:	ea5f 1c1c 	movs.w	ip, ip, lsr #4
   83666:	d1c0      	bne.n	835ea <__aeabi_ddiv+0x82>
   83668:	f411 1f80 	tst.w	r1, #1048576	; 0x100000
   8366c:	d10b      	bne.n	83686 <__aeabi_ddiv+0x11e>
   8366e:	ea41 0100 	orr.w	r1, r1, r0
   83672:	f04f 0000 	mov.w	r0, #0
   83676:	f04f 4c00 	mov.w	ip, #2147483648	; 0x80000000
   8367a:	e7b6      	b.n	835ea <__aeabi_ddiv+0x82>
   8367c:	f411 1f80 	tst.w	r1, #1048576	; 0x100000
   83680:	bf04      	itt	eq
   83682:	4301      	orreq	r1, r0
   83684:	2000      	moveq	r0, #0
   83686:	f1b4 0cfd 	subs.w	ip, r4, #253	; 0xfd
   8368a:	bf88      	it	hi
   8368c:	f5bc 6fe0 	cmphi.w	ip, #1792	; 0x700
   83690:	f63f aeaf 	bhi.w	833f2 <__aeabi_dmul+0xde>
   83694:	ebb5 0c03 	subs.w	ip, r5, r3
   83698:	bf04      	itt	eq
   8369a:	ebb6 0c02 	subseq.w	ip, r6, r2
   8369e:	ea5f 0c50 	movseq.w	ip, r0, lsr #1
   836a2:	f150 0000 	adcs.w	r0, r0, #0
   836a6:	eb41 5104 	adc.w	r1, r1, r4, lsl #20
   836aa:	bd70      	pop	{r4, r5, r6, pc}
   836ac:	f00e 4e00 	and.w	lr, lr, #2147483648	; 0x80000000
   836b0:	ea4e 3111 	orr.w	r1, lr, r1, lsr #12
   836b4:	eb14 045c 	adds.w	r4, r4, ip, lsr #1
   836b8:	bfc2      	ittt	gt
   836ba:	ebd4 050c 	rsbsgt	r5, r4, ip
   836be:	ea41 5104 	orrgt.w	r1, r1, r4, lsl #20
   836c2:	bd70      	popgt	{r4, r5, r6, pc}
   836c4:	f441 1180 	orr.w	r1, r1, #1048576	; 0x100000
   836c8:	f04f 0e00 	mov.w	lr, #0
   836cc:	3c01      	subs	r4, #1
   836ce:	e690      	b.n	833f2 <__aeabi_dmul+0xde>
   836d0:	ea45 0e06 	orr.w	lr, r5, r6
   836d4:	e68d      	b.n	833f2 <__aeabi_dmul+0xde>
   836d6:	ea0c 5513 	and.w	r5, ip, r3, lsr #20
   836da:	ea94 0f0c 	teq	r4, ip
   836de:	bf08      	it	eq
   836e0:	ea95 0f0c 	teqeq	r5, ip
   836e4:	f43f af3b 	beq.w	8355e <__aeabi_dmul+0x24a>
   836e8:	ea94 0f0c 	teq	r4, ip
   836ec:	d10a      	bne.n	83704 <__aeabi_ddiv+0x19c>
   836ee:	ea50 3401 	orrs.w	r4, r0, r1, lsl #12
   836f2:	f47f af34 	bne.w	8355e <__aeabi_dmul+0x24a>
   836f6:	ea95 0f0c 	teq	r5, ip
   836fa:	f47f af25 	bne.w	83548 <__aeabi_dmul+0x234>
   836fe:	4610      	mov	r0, r2
   83700:	4619      	mov	r1, r3
   83702:	e72c      	b.n	8355e <__aeabi_dmul+0x24a>
   83704:	ea95 0f0c 	teq	r5, ip
   83708:	d106      	bne.n	83718 <__aeabi_ddiv+0x1b0>
   8370a:	ea52 3503 	orrs.w	r5, r2, r3, lsl #12
   8370e:	f43f aefd 	beq.w	8350c <__aeabi_dmul+0x1f8>
   83712:	4610      	mov	r0, r2
   83714:	4619      	mov	r1, r3
   83716:	e722      	b.n	8355e <__aeabi_dmul+0x24a>
   83718:	ea50 0641 	orrs.w	r6, r0, r1, lsl #1
   8371c:	bf18      	it	ne
   8371e:	ea52 0643 	orrsne.w	r6, r2, r3, lsl #1
   83722:	f47f aec5 	bne.w	834b0 <__aeabi_dmul+0x19c>
   83726:	ea50 0441 	orrs.w	r4, r0, r1, lsl #1
   8372a:	f47f af0d 	bne.w	83548 <__aeabi_dmul+0x234>
   8372e:	ea52 0543 	orrs.w	r5, r2, r3, lsl #1
   83732:	f47f aeeb 	bne.w	8350c <__aeabi_dmul+0x1f8>
   83736:	e712      	b.n	8355e <__aeabi_dmul+0x24a>

00083738 <__aeabi_d2uiz>:
   83738:	004a      	lsls	r2, r1, #1
   8373a:	d211      	bcs.n	83760 <__aeabi_d2uiz+0x28>
   8373c:	f512 1200 	adds.w	r2, r2, #2097152	; 0x200000
   83740:	d211      	bcs.n	83766 <__aeabi_d2uiz+0x2e>
   83742:	d50d      	bpl.n	83760 <__aeabi_d2uiz+0x28>
   83744:	f46f 7378 	mvn.w	r3, #992	; 0x3e0
   83748:	ebb3 5262 	subs.w	r2, r3, r2, asr #21
   8374c:	d40e      	bmi.n	8376c <__aeabi_d2uiz+0x34>
   8374e:	ea4f 23c1 	mov.w	r3, r1, lsl #11
   83752:	f043 4300 	orr.w	r3, r3, #2147483648	; 0x80000000
   83756:	ea43 5350 	orr.w	r3, r3, r0, lsr #21
   8375a:	fa23 f002 	lsr.w	r0, r3, r2
   8375e:	4770      	bx	lr
   83760:	f04f 0000 	mov.w	r0, #0
   83764:	4770      	bx	lr
   83766:	ea50 3001 	orrs.w	r0, r0, r1, lsl #12
   8376a:	d102      	bne.n	83772 <__aeabi_d2uiz+0x3a>
   8376c:	f04f 30ff 	mov.w	r0, #4294967295
   83770:	4770      	bx	lr
   83772:	f04f 0000 	mov.w	r0, #0
   83776:	4770      	bx	lr

00083778 <__aeabi_uldivmod>:
   83778:	b953      	cbnz	r3, 83790 <__aeabi_uldivmod+0x18>
   8377a:	b94a      	cbnz	r2, 83790 <__aeabi_uldivmod+0x18>
   8377c:	2900      	cmp	r1, #0
   8377e:	bf08      	it	eq
   83780:	2800      	cmpeq	r0, #0
   83782:	bf1c      	itt	ne
   83784:	f04f 31ff 	movne.w	r1, #4294967295
   83788:	f04f 30ff 	movne.w	r0, #4294967295
   8378c:	f000 b97a 	b.w	83a84 <__aeabi_idiv0>
   83790:	f1ad 0c08 	sub.w	ip, sp, #8
   83794:	e96d ce04 	strd	ip, lr, [sp, #-16]!
   83798:	f000 f806 	bl	837a8 <__udivmoddi4>
   8379c:	f8dd e004 	ldr.w	lr, [sp, #4]
   837a0:	e9dd 2302 	ldrd	r2, r3, [sp, #8]
   837a4:	b004      	add	sp, #16
   837a6:	4770      	bx	lr

000837a8 <__udivmoddi4>:
   837a8:	e92d 47f0 	stmdb	sp!, {r4, r5, r6, r7, r8, r9, sl, lr}
   837ac:	468c      	mov	ip, r1
   837ae:	460e      	mov	r6, r1
   837b0:	4604      	mov	r4, r0
   837b2:	9d08      	ldr	r5, [sp, #32]
   837b4:	2b00      	cmp	r3, #0
   837b6:	d150      	bne.n	8385a <__udivmoddi4+0xb2>
   837b8:	428a      	cmp	r2, r1
   837ba:	4617      	mov	r7, r2
   837bc:	d96c      	bls.n	83898 <__udivmoddi4+0xf0>
   837be:	fab2 fe82 	clz	lr, r2
   837c2:	f1be 0f00 	cmp.w	lr, #0
   837c6:	d00b      	beq.n	837e0 <__udivmoddi4+0x38>
   837c8:	f1ce 0c20 	rsb	ip, lr, #32
   837cc:	fa01 f60e 	lsl.w	r6, r1, lr
   837d0:	fa20 fc0c 	lsr.w	ip, r0, ip
   837d4:	fa02 f70e 	lsl.w	r7, r2, lr
   837d8:	ea4c 0c06 	orr.w	ip, ip, r6
   837dc:	fa00 f40e 	lsl.w	r4, r0, lr
   837e0:	0c3a      	lsrs	r2, r7, #16
   837e2:	fbbc f9f2 	udiv	r9, ip, r2
   837e6:	b2bb      	uxth	r3, r7
   837e8:	fb02 cc19 	mls	ip, r2, r9, ip
   837ec:	fb09 fa03 	mul.w	sl, r9, r3
   837f0:	ea4f 4814 	mov.w	r8, r4, lsr #16
   837f4:	ea48 460c 	orr.w	r6, r8, ip, lsl #16
   837f8:	45b2      	cmp	sl, r6
   837fa:	d90a      	bls.n	83812 <__udivmoddi4+0x6a>
   837fc:	19f6      	adds	r6, r6, r7
   837fe:	f109 31ff 	add.w	r1, r9, #4294967295
   83802:	f080 8125 	bcs.w	83a50 <__udivmoddi4+0x2a8>
   83806:	45b2      	cmp	sl, r6
   83808:	f240 8122 	bls.w	83a50 <__udivmoddi4+0x2a8>
   8380c:	f1a9 0902 	sub.w	r9, r9, #2
   83810:	443e      	add	r6, r7
   83812:	eba6 060a 	sub.w	r6, r6, sl
   83816:	fbb6 f0f2 	udiv	r0, r6, r2
   8381a:	fb02 6610 	mls	r6, r2, r0, r6
   8381e:	fb00 f303 	mul.w	r3, r0, r3
   83822:	b2a4      	uxth	r4, r4
   83824:	ea44 4406 	orr.w	r4, r4, r6, lsl #16
   83828:	42a3      	cmp	r3, r4
   8382a:	d909      	bls.n	83840 <__udivmoddi4+0x98>
   8382c:	19e4      	adds	r4, r4, r7
   8382e:	f100 32ff 	add.w	r2, r0, #4294967295
   83832:	f080 810b 	bcs.w	83a4c <__udivmoddi4+0x2a4>
   83836:	42a3      	cmp	r3, r4
   83838:	f240 8108 	bls.w	83a4c <__udivmoddi4+0x2a4>
   8383c:	3802      	subs	r0, #2
   8383e:	443c      	add	r4, r7
   83840:	2100      	movs	r1, #0
   83842:	1ae4      	subs	r4, r4, r3
   83844:	ea40 4009 	orr.w	r0, r0, r9, lsl #16
   83848:	2d00      	cmp	r5, #0
   8384a:	d062      	beq.n	83912 <__udivmoddi4+0x16a>
   8384c:	2300      	movs	r3, #0
   8384e:	fa24 f40e 	lsr.w	r4, r4, lr
   83852:	602c      	str	r4, [r5, #0]
   83854:	606b      	str	r3, [r5, #4]
   83856:	e8bd 87f0 	ldmia.w	sp!, {r4, r5, r6, r7, r8, r9, sl, pc}
   8385a:	428b      	cmp	r3, r1
   8385c:	d907      	bls.n	8386e <__udivmoddi4+0xc6>
   8385e:	2d00      	cmp	r5, #0
   83860:	d055      	beq.n	8390e <__udivmoddi4+0x166>
   83862:	2100      	movs	r1, #0
   83864:	e885 0041 	stmia.w	r5, {r0, r6}
   83868:	4608      	mov	r0, r1
   8386a:	e8bd 87f0 	ldmia.w	sp!, {r4, r5, r6, r7, r8, r9, sl, pc}
   8386e:	fab3 f183 	clz	r1, r3
   83872:	2900      	cmp	r1, #0
   83874:	f040 808f 	bne.w	83996 <__udivmoddi4+0x1ee>
   83878:	42b3      	cmp	r3, r6
   8387a:	d302      	bcc.n	83882 <__udivmoddi4+0xda>
   8387c:	4282      	cmp	r2, r0
   8387e:	f200 80fc 	bhi.w	83a7a <__udivmoddi4+0x2d2>
   83882:	1a84      	subs	r4, r0, r2
   83884:	eb66 0603 	sbc.w	r6, r6, r3
   83888:	2001      	movs	r0, #1
   8388a:	46b4      	mov	ip, r6
   8388c:	2d00      	cmp	r5, #0
   8388e:	d040      	beq.n	83912 <__udivmoddi4+0x16a>
   83890:	e885 1010 	stmia.w	r5, {r4, ip}
   83894:	e8bd 87f0 	ldmia.w	sp!, {r4, r5, r6, r7, r8, r9, sl, pc}
   83898:	b912      	cbnz	r2, 838a0 <__udivmoddi4+0xf8>
   8389a:	2701      	movs	r7, #1
   8389c:	fbb7 f7f2 	udiv	r7, r7, r2
   838a0:	fab7 fe87 	clz	lr, r7
   838a4:	f1be 0f00 	cmp.w	lr, #0
   838a8:	d135      	bne.n	83916 <__udivmoddi4+0x16e>
   838aa:	2101      	movs	r1, #1
   838ac:	1bf6      	subs	r6, r6, r7
   838ae:	ea4f 4c17 	mov.w	ip, r7, lsr #16
   838b2:	fa1f f887 	uxth.w	r8, r7
   838b6:	fbb6 f2fc 	udiv	r2, r6, ip
   838ba:	fb0c 6612 	mls	r6, ip, r2, r6
   838be:	fb08 f002 	mul.w	r0, r8, r2
   838c2:	0c23      	lsrs	r3, r4, #16
   838c4:	ea43 4606 	orr.w	r6, r3, r6, lsl #16
   838c8:	42b0      	cmp	r0, r6
   838ca:	d907      	bls.n	838dc <__udivmoddi4+0x134>
   838cc:	19f6      	adds	r6, r6, r7
   838ce:	f102 33ff 	add.w	r3, r2, #4294967295
   838d2:	d202      	bcs.n	838da <__udivmoddi4+0x132>
   838d4:	42b0      	cmp	r0, r6
   838d6:	f200 80d2 	bhi.w	83a7e <__udivmoddi4+0x2d6>
   838da:	461a      	mov	r2, r3
   838dc:	1a36      	subs	r6, r6, r0
   838de:	fbb6 f0fc 	udiv	r0, r6, ip
   838e2:	fb0c 6610 	mls	r6, ip, r0, r6
   838e6:	fb08 f800 	mul.w	r8, r8, r0
   838ea:	b2a3      	uxth	r3, r4
   838ec:	ea43 4406 	orr.w	r4, r3, r6, lsl #16
   838f0:	45a0      	cmp	r8, r4
   838f2:	d907      	bls.n	83904 <__udivmoddi4+0x15c>
   838f4:	19e4      	adds	r4, r4, r7
   838f6:	f100 33ff 	add.w	r3, r0, #4294967295
   838fa:	d202      	bcs.n	83902 <__udivmoddi4+0x15a>
   838fc:	45a0      	cmp	r8, r4
   838fe:	f200 80b9 	bhi.w	83a74 <__udivmoddi4+0x2cc>
   83902:	4618      	mov	r0, r3
   83904:	eba4 0408 	sub.w	r4, r4, r8
   83908:	ea40 4002 	orr.w	r0, r0, r2, lsl #16
   8390c:	e79c      	b.n	83848 <__udivmoddi4+0xa0>
   8390e:	4629      	mov	r1, r5
   83910:	4628      	mov	r0, r5
   83912:	e8bd 87f0 	ldmia.w	sp!, {r4, r5, r6, r7, r8, r9, sl, pc}
   83916:	fa07 f70e 	lsl.w	r7, r7, lr
   8391a:	f1ce 0320 	rsb	r3, lr, #32
   8391e:	fa26 f203 	lsr.w	r2, r6, r3
   83922:	ea4f 4c17 	mov.w	ip, r7, lsr #16
   83926:	fbb2 f1fc 	udiv	r1, r2, ip
   8392a:	fa1f f887 	uxth.w	r8, r7
   8392e:	fb0c 2211 	mls	r2, ip, r1, r2
   83932:	fa06 f60e 	lsl.w	r6, r6, lr
   83936:	fa20 f303 	lsr.w	r3, r0, r3
   8393a:	fb01 f908 	mul.w	r9, r1, r8
   8393e:	4333      	orrs	r3, r6
   83940:	0c1e      	lsrs	r6, r3, #16
   83942:	ea46 4602 	orr.w	r6, r6, r2, lsl #16
   83946:	45b1      	cmp	r9, r6
   83948:	fa00 f40e 	lsl.w	r4, r0, lr
   8394c:	d909      	bls.n	83962 <__udivmoddi4+0x1ba>
   8394e:	19f6      	adds	r6, r6, r7
   83950:	f101 32ff 	add.w	r2, r1, #4294967295
   83954:	f080 808c 	bcs.w	83a70 <__udivmoddi4+0x2c8>
   83958:	45b1      	cmp	r9, r6
   8395a:	f240 8089 	bls.w	83a70 <__udivmoddi4+0x2c8>
   8395e:	3902      	subs	r1, #2
   83960:	443e      	add	r6, r7
   83962:	eba6 0609 	sub.w	r6, r6, r9
   83966:	fbb6 f0fc 	udiv	r0, r6, ip
   8396a:	fb0c 6210 	mls	r2, ip, r0, r6
   8396e:	fb00 f908 	mul.w	r9, r0, r8
   83972:	b29e      	uxth	r6, r3
   83974:	ea46 4602 	orr.w	r6, r6, r2, lsl #16
   83978:	45b1      	cmp	r9, r6
   8397a:	d907      	bls.n	8398c <__udivmoddi4+0x1e4>
   8397c:	19f6      	adds	r6, r6, r7
   8397e:	f100 33ff 	add.w	r3, r0, #4294967295
   83982:	d271      	bcs.n	83a68 <__udivmoddi4+0x2c0>
   83984:	45b1      	cmp	r9, r6
   83986:	d96f      	bls.n	83a68 <__udivmoddi4+0x2c0>
   83988:	3802      	subs	r0, #2
   8398a:	443e      	add	r6, r7
   8398c:	eba6 0609 	sub.w	r6, r6, r9
   83990:	ea40 4101 	orr.w	r1, r0, r1, lsl #16
   83994:	e78f      	b.n	838b6 <__udivmoddi4+0x10e>
   83996:	f1c1 0720 	rsb	r7, r1, #32
   8399a:	fa22 f807 	lsr.w	r8, r2, r7
   8399e:	408b      	lsls	r3, r1
   839a0:	ea48 0303 	orr.w	r3, r8, r3
   839a4:	fa26 f407 	lsr.w	r4, r6, r7
   839a8:	ea4f 4e13 	mov.w	lr, r3, lsr #16
   839ac:	fbb4 f9fe 	udiv	r9, r4, lr
   839b0:	fa1f fc83 	uxth.w	ip, r3
   839b4:	fb0e 4419 	mls	r4, lr, r9, r4
   839b8:	408e      	lsls	r6, r1
   839ba:	fa20 f807 	lsr.w	r8, r0, r7
   839be:	fb09 fa0c 	mul.w	sl, r9, ip
   839c2:	ea48 0806 	orr.w	r8, r8, r6
   839c6:	ea4f 4618 	mov.w	r6, r8, lsr #16
   839ca:	ea46 4404 	orr.w	r4, r6, r4, lsl #16
   839ce:	45a2      	cmp	sl, r4
   839d0:	fa02 f201 	lsl.w	r2, r2, r1
   839d4:	fa00 f601 	lsl.w	r6, r0, r1
   839d8:	d908      	bls.n	839ec <__udivmoddi4+0x244>
   839da:	18e4      	adds	r4, r4, r3
   839dc:	f109 30ff 	add.w	r0, r9, #4294967295
   839e0:	d244      	bcs.n	83a6c <__udivmoddi4+0x2c4>
   839e2:	45a2      	cmp	sl, r4
   839e4:	d942      	bls.n	83a6c <__udivmoddi4+0x2c4>
   839e6:	f1a9 0902 	sub.w	r9, r9, #2
   839ea:	441c      	add	r4, r3
   839ec:	eba4 040a 	sub.w	r4, r4, sl
   839f0:	fbb4 f0fe 	udiv	r0, r4, lr
   839f4:	fb0e 4410 	mls	r4, lr, r0, r4
   839f8:	fb00 fc0c 	mul.w	ip, r0, ip
   839fc:	fa1f f888 	uxth.w	r8, r8
   83a00:	ea48 4404 	orr.w	r4, r8, r4, lsl #16
   83a04:	45a4      	cmp	ip, r4
   83a06:	d907      	bls.n	83a18 <__udivmoddi4+0x270>
   83a08:	18e4      	adds	r4, r4, r3
   83a0a:	f100 3eff 	add.w	lr, r0, #4294967295
   83a0e:	d229      	bcs.n	83a64 <__udivmoddi4+0x2bc>
   83a10:	45a4      	cmp	ip, r4
   83a12:	d927      	bls.n	83a64 <__udivmoddi4+0x2bc>
   83a14:	3802      	subs	r0, #2
   83a16:	441c      	add	r4, r3
   83a18:	ea40 4009 	orr.w	r0, r0, r9, lsl #16
   83a1c:	fba0 8902 	umull	r8, r9, r0, r2
   83a20:	eba4 0c0c 	sub.w	ip, r4, ip
   83a24:	45cc      	cmp	ip, r9
   83a26:	46c2      	mov	sl, r8
   83a28:	46ce      	mov	lr, r9
   83a2a:	d315      	bcc.n	83a58 <__udivmoddi4+0x2b0>
   83a2c:	d012      	beq.n	83a54 <__udivmoddi4+0x2ac>
   83a2e:	b155      	cbz	r5, 83a46 <__udivmoddi4+0x29e>
   83a30:	ebb6 030a 	subs.w	r3, r6, sl
   83a34:	eb6c 060e 	sbc.w	r6, ip, lr
   83a38:	fa06 f707 	lsl.w	r7, r6, r7
   83a3c:	40cb      	lsrs	r3, r1
   83a3e:	431f      	orrs	r7, r3
   83a40:	40ce      	lsrs	r6, r1
   83a42:	602f      	str	r7, [r5, #0]
   83a44:	606e      	str	r6, [r5, #4]
   83a46:	2100      	movs	r1, #0
   83a48:	e8bd 87f0 	ldmia.w	sp!, {r4, r5, r6, r7, r8, r9, sl, pc}
   83a4c:	4610      	mov	r0, r2
   83a4e:	e6f7      	b.n	83840 <__udivmoddi4+0x98>
   83a50:	4689      	mov	r9, r1
   83a52:	e6de      	b.n	83812 <__udivmoddi4+0x6a>
   83a54:	4546      	cmp	r6, r8
   83a56:	d2ea      	bcs.n	83a2e <__udivmoddi4+0x286>
   83a58:	ebb8 0a02 	subs.w	sl, r8, r2
   83a5c:	eb69 0e03 	sbc.w	lr, r9, r3
   83a60:	3801      	subs	r0, #1
   83a62:	e7e4      	b.n	83a2e <__udivmoddi4+0x286>
   83a64:	4670      	mov	r0, lr
   83a66:	e7d7      	b.n	83a18 <__udivmoddi4+0x270>
   83a68:	4618      	mov	r0, r3
   83a6a:	e78f      	b.n	8398c <__udivmoddi4+0x1e4>
   83a6c:	4681      	mov	r9, r0
   83a6e:	e7bd      	b.n	839ec <__udivmoddi4+0x244>
   83a70:	4611      	mov	r1, r2
   83a72:	e776      	b.n	83962 <__udivmoddi4+0x1ba>
   83a74:	3802      	subs	r0, #2
   83a76:	443c      	add	r4, r7
   83a78:	e744      	b.n	83904 <__udivmoddi4+0x15c>
   83a7a:	4608      	mov	r0, r1
   83a7c:	e706      	b.n	8388c <__udivmoddi4+0xe4>
   83a7e:	3a02      	subs	r2, #2
   83a80:	443e      	add	r6, r7
   83a82:	e72b      	b.n	838dc <__udivmoddi4+0x134>

00083a84 <__aeabi_idiv0>:
   83a84:	4770      	bx	lr
   83a86:	bf00      	nop

00083a88 <__libc_init_array>:
   83a88:	b570      	push	{r4, r5, r6, lr}
   83a8a:	4e0f      	ldr	r6, [pc, #60]	; (83ac8 <__libc_init_array+0x40>)
   83a8c:	4d0f      	ldr	r5, [pc, #60]	; (83acc <__libc_init_array+0x44>)
   83a8e:	1b76      	subs	r6, r6, r5
   83a90:	10b6      	asrs	r6, r6, #2
   83a92:	bf18      	it	ne
   83a94:	2400      	movne	r4, #0
   83a96:	d005      	beq.n	83aa4 <__libc_init_array+0x1c>
   83a98:	3401      	adds	r4, #1
   83a9a:	f855 3b04 	ldr.w	r3, [r5], #4
   83a9e:	4798      	blx	r3
   83aa0:	42a6      	cmp	r6, r4
   83aa2:	d1f9      	bne.n	83a98 <__libc_init_array+0x10>
   83aa4:	4e0a      	ldr	r6, [pc, #40]	; (83ad0 <__libc_init_array+0x48>)
   83aa6:	4d0b      	ldr	r5, [pc, #44]	; (83ad4 <__libc_init_array+0x4c>)
   83aa8:	f000 fd32 	bl	84510 <_init>
   83aac:	1b76      	subs	r6, r6, r5
   83aae:	10b6      	asrs	r6, r6, #2
   83ab0:	bf18      	it	ne
   83ab2:	2400      	movne	r4, #0
   83ab4:	d006      	beq.n	83ac4 <__libc_init_array+0x3c>
   83ab6:	3401      	adds	r4, #1
   83ab8:	f855 3b04 	ldr.w	r3, [r5], #4
   83abc:	4798      	blx	r3
   83abe:	42a6      	cmp	r6, r4
   83ac0:	d1f9      	bne.n	83ab6 <__libc_init_array+0x2e>
   83ac2:	bd70      	pop	{r4, r5, r6, pc}
   83ac4:	bd70      	pop	{r4, r5, r6, pc}
   83ac6:	bf00      	nop
   83ac8:	0008451c 	.word	0x0008451c
   83acc:	0008451c 	.word	0x0008451c
   83ad0:	00084524 	.word	0x00084524
   83ad4:	0008451c 	.word	0x0008451c

00083ad8 <malloc>:
   83ad8:	4b02      	ldr	r3, [pc, #8]	; (83ae4 <malloc+0xc>)
   83ada:	4601      	mov	r1, r0
   83adc:	6818      	ldr	r0, [r3, #0]
   83ade:	f000 b803 	b.w	83ae8 <_malloc_r>
   83ae2:	bf00      	nop
   83ae4:	20070130 	.word	0x20070130

00083ae8 <_malloc_r>:
   83ae8:	e92d 4ff0 	stmdb	sp!, {r4, r5, r6, r7, r8, r9, sl, fp, lr}
   83aec:	f101 060b 	add.w	r6, r1, #11
   83af0:	2e16      	cmp	r6, #22
   83af2:	b083      	sub	sp, #12
   83af4:	4605      	mov	r5, r0
   83af6:	f240 809e 	bls.w	83c36 <_malloc_r+0x14e>
   83afa:	f036 0607 	bics.w	r6, r6, #7
   83afe:	f100 80bd 	bmi.w	83c7c <_malloc_r+0x194>
   83b02:	42b1      	cmp	r1, r6
   83b04:	f200 80ba 	bhi.w	83c7c <_malloc_r+0x194>
   83b08:	f000 fa90 	bl	8402c <__malloc_lock>
   83b0c:	f5b6 7ffc 	cmp.w	r6, #504	; 0x1f8
   83b10:	f0c0 8285 	bcc.w	8401e <_malloc_r+0x536>
   83b14:	0a73      	lsrs	r3, r6, #9
   83b16:	f000 80b8 	beq.w	83c8a <_malloc_r+0x1a2>
   83b1a:	2b04      	cmp	r3, #4
   83b1c:	f200 816c 	bhi.w	83df8 <_malloc_r+0x310>
   83b20:	09b3      	lsrs	r3, r6, #6
   83b22:	f103 0039 	add.w	r0, r3, #57	; 0x39
   83b26:	f103 0e38 	add.w	lr, r3, #56	; 0x38
   83b2a:	00c1      	lsls	r1, r0, #3
   83b2c:	4fb8      	ldr	r7, [pc, #736]	; (83e10 <_malloc_r+0x328>)
   83b2e:	4439      	add	r1, r7
   83b30:	684c      	ldr	r4, [r1, #4]
   83b32:	3908      	subs	r1, #8
   83b34:	42a1      	cmp	r1, r4
   83b36:	d106      	bne.n	83b46 <_malloc_r+0x5e>
   83b38:	e00c      	b.n	83b54 <_malloc_r+0x6c>
   83b3a:	2a00      	cmp	r2, #0
   83b3c:	f280 80ab 	bge.w	83c96 <_malloc_r+0x1ae>
   83b40:	68e4      	ldr	r4, [r4, #12]
   83b42:	42a1      	cmp	r1, r4
   83b44:	d006      	beq.n	83b54 <_malloc_r+0x6c>
   83b46:	6863      	ldr	r3, [r4, #4]
   83b48:	f023 0303 	bic.w	r3, r3, #3
   83b4c:	1b9a      	subs	r2, r3, r6
   83b4e:	2a0f      	cmp	r2, #15
   83b50:	ddf3      	ble.n	83b3a <_malloc_r+0x52>
   83b52:	4670      	mov	r0, lr
   83b54:	693c      	ldr	r4, [r7, #16]
   83b56:	f8df e2cc 	ldr.w	lr, [pc, #716]	; 83e24 <_malloc_r+0x33c>
   83b5a:	4574      	cmp	r4, lr
   83b5c:	f000 819e 	beq.w	83e9c <_malloc_r+0x3b4>
   83b60:	6863      	ldr	r3, [r4, #4]
   83b62:	f023 0303 	bic.w	r3, r3, #3
   83b66:	1b9a      	subs	r2, r3, r6
   83b68:	2a0f      	cmp	r2, #15
   83b6a:	f300 8183 	bgt.w	83e74 <_malloc_r+0x38c>
   83b6e:	2a00      	cmp	r2, #0
   83b70:	f8c7 e014 	str.w	lr, [r7, #20]
   83b74:	f8c7 e010 	str.w	lr, [r7, #16]
   83b78:	f280 8091 	bge.w	83c9e <_malloc_r+0x1b6>
   83b7c:	f5b3 7f00 	cmp.w	r3, #512	; 0x200
   83b80:	f080 8154 	bcs.w	83e2c <_malloc_r+0x344>
   83b84:	2201      	movs	r2, #1
   83b86:	08db      	lsrs	r3, r3, #3
   83b88:	6879      	ldr	r1, [r7, #4]
   83b8a:	ea4f 0ca3 	mov.w	ip, r3, asr #2
   83b8e:	4413      	add	r3, r2
   83b90:	f857 8033 	ldr.w	r8, [r7, r3, lsl #3]
   83b94:	fa02 f20c 	lsl.w	r2, r2, ip
   83b98:	eb07 0cc3 	add.w	ip, r7, r3, lsl #3
   83b9c:	430a      	orrs	r2, r1
   83b9e:	f1ac 0108 	sub.w	r1, ip, #8
   83ba2:	60e1      	str	r1, [r4, #12]
   83ba4:	f8c4 8008 	str.w	r8, [r4, #8]
   83ba8:	607a      	str	r2, [r7, #4]
   83baa:	f847 4033 	str.w	r4, [r7, r3, lsl #3]
   83bae:	f8c8 400c 	str.w	r4, [r8, #12]
   83bb2:	2401      	movs	r4, #1
   83bb4:	1083      	asrs	r3, r0, #2
   83bb6:	409c      	lsls	r4, r3
   83bb8:	4294      	cmp	r4, r2
   83bba:	d87d      	bhi.n	83cb8 <_malloc_r+0x1d0>
   83bbc:	4214      	tst	r4, r2
   83bbe:	d106      	bne.n	83bce <_malloc_r+0xe6>
   83bc0:	f020 0003 	bic.w	r0, r0, #3
   83bc4:	0064      	lsls	r4, r4, #1
   83bc6:	4214      	tst	r4, r2
   83bc8:	f100 0004 	add.w	r0, r0, #4
   83bcc:	d0fa      	beq.n	83bc4 <_malloc_r+0xdc>
   83bce:	eb07 09c0 	add.w	r9, r7, r0, lsl #3
   83bd2:	46cc      	mov	ip, r9
   83bd4:	4680      	mov	r8, r0
   83bd6:	f8dc 300c 	ldr.w	r3, [ip, #12]
   83bda:	459c      	cmp	ip, r3
   83bdc:	d107      	bne.n	83bee <_malloc_r+0x106>
   83bde:	e15f      	b.n	83ea0 <_malloc_r+0x3b8>
   83be0:	2a00      	cmp	r2, #0
   83be2:	f280 816d 	bge.w	83ec0 <_malloc_r+0x3d8>
   83be6:	68db      	ldr	r3, [r3, #12]
   83be8:	459c      	cmp	ip, r3
   83bea:	f000 8159 	beq.w	83ea0 <_malloc_r+0x3b8>
   83bee:	6859      	ldr	r1, [r3, #4]
   83bf0:	f021 0103 	bic.w	r1, r1, #3
   83bf4:	1b8a      	subs	r2, r1, r6
   83bf6:	2a0f      	cmp	r2, #15
   83bf8:	ddf2      	ble.n	83be0 <_malloc_r+0xf8>
   83bfa:	68dc      	ldr	r4, [r3, #12]
   83bfc:	f8d3 c008 	ldr.w	ip, [r3, #8]
   83c00:	f046 0801 	orr.w	r8, r6, #1
   83c04:	4628      	mov	r0, r5
   83c06:	441e      	add	r6, r3
   83c08:	f042 0501 	orr.w	r5, r2, #1
   83c0c:	f8c3 8004 	str.w	r8, [r3, #4]
   83c10:	f8cc 400c 	str.w	r4, [ip, #12]
   83c14:	f8c4 c008 	str.w	ip, [r4, #8]
   83c18:	617e      	str	r6, [r7, #20]
   83c1a:	613e      	str	r6, [r7, #16]
   83c1c:	f8c6 e00c 	str.w	lr, [r6, #12]
   83c20:	f8c6 e008 	str.w	lr, [r6, #8]
   83c24:	6075      	str	r5, [r6, #4]
   83c26:	505a      	str	r2, [r3, r1]
   83c28:	9300      	str	r3, [sp, #0]
   83c2a:	f000 fa01 	bl	84030 <__malloc_unlock>
   83c2e:	9b00      	ldr	r3, [sp, #0]
   83c30:	f103 0408 	add.w	r4, r3, #8
   83c34:	e01e      	b.n	83c74 <_malloc_r+0x18c>
   83c36:	2910      	cmp	r1, #16
   83c38:	d820      	bhi.n	83c7c <_malloc_r+0x194>
   83c3a:	f000 f9f7 	bl	8402c <__malloc_lock>
   83c3e:	2610      	movs	r6, #16
   83c40:	2318      	movs	r3, #24
   83c42:	2002      	movs	r0, #2
   83c44:	4f72      	ldr	r7, [pc, #456]	; (83e10 <_malloc_r+0x328>)
   83c46:	443b      	add	r3, r7
   83c48:	685c      	ldr	r4, [r3, #4]
   83c4a:	f1a3 0208 	sub.w	r2, r3, #8
   83c4e:	4294      	cmp	r4, r2
   83c50:	f000 812f 	beq.w	83eb2 <_malloc_r+0x3ca>
   83c54:	6863      	ldr	r3, [r4, #4]
   83c56:	68e1      	ldr	r1, [r4, #12]
   83c58:	f023 0303 	bic.w	r3, r3, #3
   83c5c:	4423      	add	r3, r4
   83c5e:	685a      	ldr	r2, [r3, #4]
   83c60:	68a6      	ldr	r6, [r4, #8]
   83c62:	f042 0201 	orr.w	r2, r2, #1
   83c66:	60f1      	str	r1, [r6, #12]
   83c68:	4628      	mov	r0, r5
   83c6a:	608e      	str	r6, [r1, #8]
   83c6c:	605a      	str	r2, [r3, #4]
   83c6e:	f000 f9df 	bl	84030 <__malloc_unlock>
   83c72:	3408      	adds	r4, #8
   83c74:	4620      	mov	r0, r4
   83c76:	b003      	add	sp, #12
   83c78:	e8bd 8ff0 	ldmia.w	sp!, {r4, r5, r6, r7, r8, r9, sl, fp, pc}
   83c7c:	2400      	movs	r4, #0
   83c7e:	230c      	movs	r3, #12
   83c80:	4620      	mov	r0, r4
   83c82:	602b      	str	r3, [r5, #0]
   83c84:	b003      	add	sp, #12
   83c86:	e8bd 8ff0 	ldmia.w	sp!, {r4, r5, r6, r7, r8, r9, sl, fp, pc}
   83c8a:	2040      	movs	r0, #64	; 0x40
   83c8c:	f44f 7100 	mov.w	r1, #512	; 0x200
   83c90:	f04f 0e3f 	mov.w	lr, #63	; 0x3f
   83c94:	e74a      	b.n	83b2c <_malloc_r+0x44>
   83c96:	4423      	add	r3, r4
   83c98:	685a      	ldr	r2, [r3, #4]
   83c9a:	68e1      	ldr	r1, [r4, #12]
   83c9c:	e7e0      	b.n	83c60 <_malloc_r+0x178>
   83c9e:	4423      	add	r3, r4
   83ca0:	685a      	ldr	r2, [r3, #4]
   83ca2:	4628      	mov	r0, r5
   83ca4:	f042 0201 	orr.w	r2, r2, #1
   83ca8:	605a      	str	r2, [r3, #4]
   83caa:	3408      	adds	r4, #8
   83cac:	f000 f9c0 	bl	84030 <__malloc_unlock>
   83cb0:	4620      	mov	r0, r4
   83cb2:	b003      	add	sp, #12
   83cb4:	e8bd 8ff0 	ldmia.w	sp!, {r4, r5, r6, r7, r8, r9, sl, fp, pc}
   83cb8:	68bc      	ldr	r4, [r7, #8]
   83cba:	6863      	ldr	r3, [r4, #4]
   83cbc:	f023 0803 	bic.w	r8, r3, #3
   83cc0:	45b0      	cmp	r8, r6
   83cc2:	d304      	bcc.n	83cce <_malloc_r+0x1e6>
   83cc4:	eba8 0306 	sub.w	r3, r8, r6
   83cc8:	2b0f      	cmp	r3, #15
   83cca:	f300 8085 	bgt.w	83dd8 <_malloc_r+0x2f0>
   83cce:	f8df 9158 	ldr.w	r9, [pc, #344]	; 83e28 <_malloc_r+0x340>
   83cd2:	4b50      	ldr	r3, [pc, #320]	; (83e14 <_malloc_r+0x32c>)
   83cd4:	f8d9 2000 	ldr.w	r2, [r9]
   83cd8:	681b      	ldr	r3, [r3, #0]
   83cda:	3201      	adds	r2, #1
   83cdc:	4433      	add	r3, r6
   83cde:	eb04 0a08 	add.w	sl, r4, r8
   83ce2:	f000 8154 	beq.w	83f8e <_malloc_r+0x4a6>
   83ce6:	f503 5380 	add.w	r3, r3, #4096	; 0x1000
   83cea:	330f      	adds	r3, #15
   83cec:	f423 6b7f 	bic.w	fp, r3, #4080	; 0xff0
   83cf0:	f02b 0b0f 	bic.w	fp, fp, #15
   83cf4:	4659      	mov	r1, fp
   83cf6:	4628      	mov	r0, r5
   83cf8:	f000 f99c 	bl	84034 <_sbrk_r>
   83cfc:	1c41      	adds	r1, r0, #1
   83cfe:	4602      	mov	r2, r0
   83d00:	f000 80fb 	beq.w	83efa <_malloc_r+0x412>
   83d04:	4582      	cmp	sl, r0
   83d06:	f200 80f6 	bhi.w	83ef6 <_malloc_r+0x40e>
   83d0a:	4b43      	ldr	r3, [pc, #268]	; (83e18 <_malloc_r+0x330>)
   83d0c:	6819      	ldr	r1, [r3, #0]
   83d0e:	4459      	add	r1, fp
   83d10:	6019      	str	r1, [r3, #0]
   83d12:	f000 814c 	beq.w	83fae <_malloc_r+0x4c6>
   83d16:	f8d9 0000 	ldr.w	r0, [r9]
   83d1a:	3001      	adds	r0, #1
   83d1c:	bf1b      	ittet	ne
   83d1e:	eba2 0a0a 	subne.w	sl, r2, sl
   83d22:	4451      	addne	r1, sl
   83d24:	f8c9 2000 	streq.w	r2, [r9]
   83d28:	6019      	strne	r1, [r3, #0]
   83d2a:	f012 0107 	ands.w	r1, r2, #7
   83d2e:	f000 8114 	beq.w	83f5a <_malloc_r+0x472>
   83d32:	f1c1 0008 	rsb	r0, r1, #8
   83d36:	f5c1 5180 	rsb	r1, r1, #4096	; 0x1000
   83d3a:	4402      	add	r2, r0
   83d3c:	3108      	adds	r1, #8
   83d3e:	eb02 090b 	add.w	r9, r2, fp
   83d42:	f3c9 090b 	ubfx	r9, r9, #0, #12
   83d46:	eba1 0909 	sub.w	r9, r1, r9
   83d4a:	4649      	mov	r1, r9
   83d4c:	4628      	mov	r0, r5
   83d4e:	9301      	str	r3, [sp, #4]
   83d50:	9200      	str	r2, [sp, #0]
   83d52:	f000 f96f 	bl	84034 <_sbrk_r>
   83d56:	1c43      	adds	r3, r0, #1
   83d58:	e89d 000c 	ldmia.w	sp, {r2, r3}
   83d5c:	f000 8142 	beq.w	83fe4 <_malloc_r+0x4fc>
   83d60:	1a80      	subs	r0, r0, r2
   83d62:	4448      	add	r0, r9
   83d64:	f040 0001 	orr.w	r0, r0, #1
   83d68:	6819      	ldr	r1, [r3, #0]
   83d6a:	42bc      	cmp	r4, r7
   83d6c:	4449      	add	r1, r9
   83d6e:	60ba      	str	r2, [r7, #8]
   83d70:	6019      	str	r1, [r3, #0]
   83d72:	6050      	str	r0, [r2, #4]
   83d74:	d017      	beq.n	83da6 <_malloc_r+0x2be>
   83d76:	f1b8 0f0f 	cmp.w	r8, #15
   83d7a:	f240 80fa 	bls.w	83f72 <_malloc_r+0x48a>
   83d7e:	f04f 0c05 	mov.w	ip, #5
   83d82:	6862      	ldr	r2, [r4, #4]
   83d84:	f1a8 000c 	sub.w	r0, r8, #12
   83d88:	f020 0007 	bic.w	r0, r0, #7
   83d8c:	f002 0201 	and.w	r2, r2, #1
   83d90:	eb04 0e00 	add.w	lr, r4, r0
   83d94:	4302      	orrs	r2, r0
   83d96:	280f      	cmp	r0, #15
   83d98:	6062      	str	r2, [r4, #4]
   83d9a:	f8ce c004 	str.w	ip, [lr, #4]
   83d9e:	f8ce c008 	str.w	ip, [lr, #8]
   83da2:	f200 8116 	bhi.w	83fd2 <_malloc_r+0x4ea>
   83da6:	4b1d      	ldr	r3, [pc, #116]	; (83e1c <_malloc_r+0x334>)
   83da8:	68bc      	ldr	r4, [r7, #8]
   83daa:	681a      	ldr	r2, [r3, #0]
   83dac:	4291      	cmp	r1, r2
   83dae:	bf88      	it	hi
   83db0:	6019      	strhi	r1, [r3, #0]
   83db2:	4b1b      	ldr	r3, [pc, #108]	; (83e20 <_malloc_r+0x338>)
   83db4:	681a      	ldr	r2, [r3, #0]
   83db6:	4291      	cmp	r1, r2
   83db8:	6862      	ldr	r2, [r4, #4]
   83dba:	bf88      	it	hi
   83dbc:	6019      	strhi	r1, [r3, #0]
   83dbe:	f022 0203 	bic.w	r2, r2, #3
   83dc2:	4296      	cmp	r6, r2
   83dc4:	eba2 0306 	sub.w	r3, r2, r6
   83dc8:	d801      	bhi.n	83dce <_malloc_r+0x2e6>
   83dca:	2b0f      	cmp	r3, #15
   83dcc:	dc04      	bgt.n	83dd8 <_malloc_r+0x2f0>
   83dce:	4628      	mov	r0, r5
   83dd0:	f000 f92e 	bl	84030 <__malloc_unlock>
   83dd4:	2400      	movs	r4, #0
   83dd6:	e74d      	b.n	83c74 <_malloc_r+0x18c>
   83dd8:	f046 0201 	orr.w	r2, r6, #1
   83ddc:	f043 0301 	orr.w	r3, r3, #1
   83de0:	4426      	add	r6, r4
   83de2:	6062      	str	r2, [r4, #4]
   83de4:	4628      	mov	r0, r5
   83de6:	60be      	str	r6, [r7, #8]
   83de8:	3408      	adds	r4, #8
   83dea:	6073      	str	r3, [r6, #4]
   83dec:	f000 f920 	bl	84030 <__malloc_unlock>
   83df0:	4620      	mov	r0, r4
   83df2:	b003      	add	sp, #12
   83df4:	e8bd 8ff0 	ldmia.w	sp!, {r4, r5, r6, r7, r8, r9, sl, fp, pc}
   83df8:	2b14      	cmp	r3, #20
   83dfa:	d970      	bls.n	83ede <_malloc_r+0x3f6>
   83dfc:	2b54      	cmp	r3, #84	; 0x54
   83dfe:	f200 80a2 	bhi.w	83f46 <_malloc_r+0x45e>
   83e02:	0b33      	lsrs	r3, r6, #12
   83e04:	f103 006f 	add.w	r0, r3, #111	; 0x6f
   83e08:	f103 0e6e 	add.w	lr, r3, #110	; 0x6e
   83e0c:	00c1      	lsls	r1, r0, #3
   83e0e:	e68d      	b.n	83b2c <_malloc_r+0x44>
   83e10:	20070560 	.word	0x20070560
   83e14:	200709c0 	.word	0x200709c0
   83e18:	20070990 	.word	0x20070990
   83e1c:	200709b8 	.word	0x200709b8
   83e20:	200709bc 	.word	0x200709bc
   83e24:	20070568 	.word	0x20070568
   83e28:	20070968 	.word	0x20070968
   83e2c:	0a5a      	lsrs	r2, r3, #9
   83e2e:	2a04      	cmp	r2, #4
   83e30:	d95b      	bls.n	83eea <_malloc_r+0x402>
   83e32:	2a14      	cmp	r2, #20
   83e34:	f200 80ae 	bhi.w	83f94 <_malloc_r+0x4ac>
   83e38:	f102 015c 	add.w	r1, r2, #92	; 0x5c
   83e3c:	00c9      	lsls	r1, r1, #3
   83e3e:	325b      	adds	r2, #91	; 0x5b
   83e40:	eb07 0c01 	add.w	ip, r7, r1
   83e44:	5879      	ldr	r1, [r7, r1]
   83e46:	f1ac 0c08 	sub.w	ip, ip, #8
   83e4a:	458c      	cmp	ip, r1
   83e4c:	f000 8088 	beq.w	83f60 <_malloc_r+0x478>
   83e50:	684a      	ldr	r2, [r1, #4]
   83e52:	f022 0203 	bic.w	r2, r2, #3
   83e56:	4293      	cmp	r3, r2
   83e58:	d273      	bcs.n	83f42 <_malloc_r+0x45a>
   83e5a:	6889      	ldr	r1, [r1, #8]
   83e5c:	458c      	cmp	ip, r1
   83e5e:	d1f7      	bne.n	83e50 <_malloc_r+0x368>
   83e60:	f8dc 300c 	ldr.w	r3, [ip, #12]
   83e64:	687a      	ldr	r2, [r7, #4]
   83e66:	60e3      	str	r3, [r4, #12]
   83e68:	f8c4 c008 	str.w	ip, [r4, #8]
   83e6c:	609c      	str	r4, [r3, #8]
   83e6e:	f8cc 400c 	str.w	r4, [ip, #12]
   83e72:	e69e      	b.n	83bb2 <_malloc_r+0xca>
   83e74:	f046 0c01 	orr.w	ip, r6, #1
   83e78:	f042 0101 	orr.w	r1, r2, #1
   83e7c:	4426      	add	r6, r4
   83e7e:	f8c4 c004 	str.w	ip, [r4, #4]
   83e82:	4628      	mov	r0, r5
   83e84:	617e      	str	r6, [r7, #20]
   83e86:	613e      	str	r6, [r7, #16]
   83e88:	f8c6 e00c 	str.w	lr, [r6, #12]
   83e8c:	f8c6 e008 	str.w	lr, [r6, #8]
   83e90:	6071      	str	r1, [r6, #4]
   83e92:	50e2      	str	r2, [r4, r3]
   83e94:	f000 f8cc 	bl	84030 <__malloc_unlock>
   83e98:	3408      	adds	r4, #8
   83e9a:	e6eb      	b.n	83c74 <_malloc_r+0x18c>
   83e9c:	687a      	ldr	r2, [r7, #4]
   83e9e:	e688      	b.n	83bb2 <_malloc_r+0xca>
   83ea0:	f108 0801 	add.w	r8, r8, #1
   83ea4:	f018 0f03 	tst.w	r8, #3
   83ea8:	f10c 0c08 	add.w	ip, ip, #8
   83eac:	f47f ae93 	bne.w	83bd6 <_malloc_r+0xee>
   83eb0:	e02d      	b.n	83f0e <_malloc_r+0x426>
   83eb2:	68dc      	ldr	r4, [r3, #12]
   83eb4:	42a3      	cmp	r3, r4
   83eb6:	bf08      	it	eq
   83eb8:	3002      	addeq	r0, #2
   83eba:	f43f ae4b 	beq.w	83b54 <_malloc_r+0x6c>
   83ebe:	e6c9      	b.n	83c54 <_malloc_r+0x16c>
   83ec0:	461c      	mov	r4, r3
   83ec2:	4419      	add	r1, r3
   83ec4:	684a      	ldr	r2, [r1, #4]
   83ec6:	68db      	ldr	r3, [r3, #12]
   83ec8:	f854 6f08 	ldr.w	r6, [r4, #8]!
   83ecc:	f042 0201 	orr.w	r2, r2, #1
   83ed0:	604a      	str	r2, [r1, #4]
   83ed2:	4628      	mov	r0, r5
   83ed4:	60f3      	str	r3, [r6, #12]
   83ed6:	609e      	str	r6, [r3, #8]
   83ed8:	f000 f8aa 	bl	84030 <__malloc_unlock>
   83edc:	e6ca      	b.n	83c74 <_malloc_r+0x18c>
   83ede:	f103 005c 	add.w	r0, r3, #92	; 0x5c
   83ee2:	f103 0e5b 	add.w	lr, r3, #91	; 0x5b
   83ee6:	00c1      	lsls	r1, r0, #3
   83ee8:	e620      	b.n	83b2c <_malloc_r+0x44>
   83eea:	099a      	lsrs	r2, r3, #6
   83eec:	f102 0139 	add.w	r1, r2, #57	; 0x39
   83ef0:	00c9      	lsls	r1, r1, #3
   83ef2:	3238      	adds	r2, #56	; 0x38
   83ef4:	e7a4      	b.n	83e40 <_malloc_r+0x358>
   83ef6:	42bc      	cmp	r4, r7
   83ef8:	d054      	beq.n	83fa4 <_malloc_r+0x4bc>
   83efa:	68bc      	ldr	r4, [r7, #8]
   83efc:	6862      	ldr	r2, [r4, #4]
   83efe:	f022 0203 	bic.w	r2, r2, #3
   83f02:	e75e      	b.n	83dc2 <_malloc_r+0x2da>
   83f04:	f859 3908 	ldr.w	r3, [r9], #-8
   83f08:	4599      	cmp	r9, r3
   83f0a:	f040 8086 	bne.w	8401a <_malloc_r+0x532>
   83f0e:	f010 0f03 	tst.w	r0, #3
   83f12:	f100 30ff 	add.w	r0, r0, #4294967295
   83f16:	d1f5      	bne.n	83f04 <_malloc_r+0x41c>
   83f18:	687b      	ldr	r3, [r7, #4]
   83f1a:	ea23 0304 	bic.w	r3, r3, r4
   83f1e:	607b      	str	r3, [r7, #4]
   83f20:	0064      	lsls	r4, r4, #1
   83f22:	429c      	cmp	r4, r3
   83f24:	f63f aec8 	bhi.w	83cb8 <_malloc_r+0x1d0>
   83f28:	2c00      	cmp	r4, #0
   83f2a:	f43f aec5 	beq.w	83cb8 <_malloc_r+0x1d0>
   83f2e:	421c      	tst	r4, r3
   83f30:	4640      	mov	r0, r8
   83f32:	f47f ae4c 	bne.w	83bce <_malloc_r+0xe6>
   83f36:	0064      	lsls	r4, r4, #1
   83f38:	421c      	tst	r4, r3
   83f3a:	f100 0004 	add.w	r0, r0, #4
   83f3e:	d0fa      	beq.n	83f36 <_malloc_r+0x44e>
   83f40:	e645      	b.n	83bce <_malloc_r+0xe6>
   83f42:	468c      	mov	ip, r1
   83f44:	e78c      	b.n	83e60 <_malloc_r+0x378>
   83f46:	f5b3 7faa 	cmp.w	r3, #340	; 0x154
   83f4a:	d815      	bhi.n	83f78 <_malloc_r+0x490>
   83f4c:	0bf3      	lsrs	r3, r6, #15
   83f4e:	f103 0078 	add.w	r0, r3, #120	; 0x78
   83f52:	f103 0e77 	add.w	lr, r3, #119	; 0x77
   83f56:	00c1      	lsls	r1, r0, #3
   83f58:	e5e8      	b.n	83b2c <_malloc_r+0x44>
   83f5a:	f44f 5180 	mov.w	r1, #4096	; 0x1000
   83f5e:	e6ee      	b.n	83d3e <_malloc_r+0x256>
   83f60:	2101      	movs	r1, #1
   83f62:	687b      	ldr	r3, [r7, #4]
   83f64:	1092      	asrs	r2, r2, #2
   83f66:	fa01 f202 	lsl.w	r2, r1, r2
   83f6a:	431a      	orrs	r2, r3
   83f6c:	607a      	str	r2, [r7, #4]
   83f6e:	4663      	mov	r3, ip
   83f70:	e779      	b.n	83e66 <_malloc_r+0x37e>
   83f72:	2301      	movs	r3, #1
   83f74:	6053      	str	r3, [r2, #4]
   83f76:	e72a      	b.n	83dce <_malloc_r+0x2e6>
   83f78:	f240 5254 	movw	r2, #1364	; 0x554
   83f7c:	4293      	cmp	r3, r2
   83f7e:	d822      	bhi.n	83fc6 <_malloc_r+0x4de>
   83f80:	0cb3      	lsrs	r3, r6, #18
   83f82:	f103 007d 	add.w	r0, r3, #125	; 0x7d
   83f86:	f103 0e7c 	add.w	lr, r3, #124	; 0x7c
   83f8a:	00c1      	lsls	r1, r0, #3
   83f8c:	e5ce      	b.n	83b2c <_malloc_r+0x44>
   83f8e:	f103 0b10 	add.w	fp, r3, #16
   83f92:	e6af      	b.n	83cf4 <_malloc_r+0x20c>
   83f94:	2a54      	cmp	r2, #84	; 0x54
   83f96:	d829      	bhi.n	83fec <_malloc_r+0x504>
   83f98:	0b1a      	lsrs	r2, r3, #12
   83f9a:	f102 016f 	add.w	r1, r2, #111	; 0x6f
   83f9e:	00c9      	lsls	r1, r1, #3
   83fa0:	326e      	adds	r2, #110	; 0x6e
   83fa2:	e74d      	b.n	83e40 <_malloc_r+0x358>
   83fa4:	4b20      	ldr	r3, [pc, #128]	; (84028 <_malloc_r+0x540>)
   83fa6:	6819      	ldr	r1, [r3, #0]
   83fa8:	4459      	add	r1, fp
   83faa:	6019      	str	r1, [r3, #0]
   83fac:	e6b3      	b.n	83d16 <_malloc_r+0x22e>
   83fae:	f3ca 000b 	ubfx	r0, sl, #0, #12
   83fb2:	2800      	cmp	r0, #0
   83fb4:	f47f aeaf 	bne.w	83d16 <_malloc_r+0x22e>
   83fb8:	eb08 030b 	add.w	r3, r8, fp
   83fbc:	68ba      	ldr	r2, [r7, #8]
   83fbe:	f043 0301 	orr.w	r3, r3, #1
   83fc2:	6053      	str	r3, [r2, #4]
   83fc4:	e6ef      	b.n	83da6 <_malloc_r+0x2be>
   83fc6:	207f      	movs	r0, #127	; 0x7f
   83fc8:	f44f 717e 	mov.w	r1, #1016	; 0x3f8
   83fcc:	f04f 0e7e 	mov.w	lr, #126	; 0x7e
   83fd0:	e5ac      	b.n	83b2c <_malloc_r+0x44>
   83fd2:	f104 0108 	add.w	r1, r4, #8
   83fd6:	4628      	mov	r0, r5
   83fd8:	9300      	str	r3, [sp, #0]
   83fda:	f000 f8b7 	bl	8414c <_free_r>
   83fde:	9b00      	ldr	r3, [sp, #0]
   83fe0:	6819      	ldr	r1, [r3, #0]
   83fe2:	e6e0      	b.n	83da6 <_malloc_r+0x2be>
   83fe4:	2001      	movs	r0, #1
   83fe6:	f04f 0900 	mov.w	r9, #0
   83fea:	e6bd      	b.n	83d68 <_malloc_r+0x280>
   83fec:	f5b2 7faa 	cmp.w	r2, #340	; 0x154
   83ff0:	d805      	bhi.n	83ffe <_malloc_r+0x516>
   83ff2:	0bda      	lsrs	r2, r3, #15
   83ff4:	f102 0178 	add.w	r1, r2, #120	; 0x78
   83ff8:	00c9      	lsls	r1, r1, #3
   83ffa:	3277      	adds	r2, #119	; 0x77
   83ffc:	e720      	b.n	83e40 <_malloc_r+0x358>
   83ffe:	f240 5154 	movw	r1, #1364	; 0x554
   84002:	428a      	cmp	r2, r1
   84004:	d805      	bhi.n	84012 <_malloc_r+0x52a>
   84006:	0c9a      	lsrs	r2, r3, #18
   84008:	f102 017d 	add.w	r1, r2, #125	; 0x7d
   8400c:	00c9      	lsls	r1, r1, #3
   8400e:	327c      	adds	r2, #124	; 0x7c
   84010:	e716      	b.n	83e40 <_malloc_r+0x358>
   84012:	f44f 717e 	mov.w	r1, #1016	; 0x3f8
   84016:	227e      	movs	r2, #126	; 0x7e
   84018:	e712      	b.n	83e40 <_malloc_r+0x358>
   8401a:	687b      	ldr	r3, [r7, #4]
   8401c:	e780      	b.n	83f20 <_malloc_r+0x438>
   8401e:	08f0      	lsrs	r0, r6, #3
   84020:	f106 0308 	add.w	r3, r6, #8
   84024:	e60e      	b.n	83c44 <_malloc_r+0x15c>
   84026:	bf00      	nop
   84028:	20070990 	.word	0x20070990

0008402c <__malloc_lock>:
   8402c:	4770      	bx	lr
   8402e:	bf00      	nop

00084030 <__malloc_unlock>:
   84030:	4770      	bx	lr
   84032:	bf00      	nop

00084034 <_sbrk_r>:
   84034:	b538      	push	{r3, r4, r5, lr}
   84036:	2300      	movs	r3, #0
   84038:	4c06      	ldr	r4, [pc, #24]	; (84054 <_sbrk_r+0x20>)
   8403a:	4605      	mov	r5, r0
   8403c:	4608      	mov	r0, r1
   8403e:	6023      	str	r3, [r4, #0]
   84040:	f7fc fdac 	bl	80b9c <_sbrk>
   84044:	1c43      	adds	r3, r0, #1
   84046:	d000      	beq.n	8404a <_sbrk_r+0x16>
   84048:	bd38      	pop	{r3, r4, r5, pc}
   8404a:	6823      	ldr	r3, [r4, #0]
   8404c:	2b00      	cmp	r3, #0
   8404e:	d0fb      	beq.n	84048 <_sbrk_r+0x14>
   84050:	602b      	str	r3, [r5, #0]
   84052:	bd38      	pop	{r3, r4, r5, pc}
   84054:	20072454 	.word	0x20072454

00084058 <register_fini>:
   84058:	4b02      	ldr	r3, [pc, #8]	; (84064 <register_fini+0xc>)
   8405a:	b113      	cbz	r3, 84062 <register_fini+0xa>
   8405c:	4802      	ldr	r0, [pc, #8]	; (84068 <register_fini+0x10>)
   8405e:	f000 b805 	b.w	8406c <atexit>
   84062:	4770      	bx	lr
   84064:	00000000 	.word	0x00000000
   84068:	00084079 	.word	0x00084079

0008406c <atexit>:
   8406c:	2300      	movs	r3, #0
   8406e:	4601      	mov	r1, r0
   84070:	461a      	mov	r2, r3
   84072:	4618      	mov	r0, r3
   84074:	f000 b950 	b.w	84318 <__register_exitproc>

00084078 <__libc_fini_array>:
   84078:	b538      	push	{r3, r4, r5, lr}
   8407a:	4c0a      	ldr	r4, [pc, #40]	; (840a4 <__libc_fini_array+0x2c>)
   8407c:	4d0a      	ldr	r5, [pc, #40]	; (840a8 <__libc_fini_array+0x30>)
   8407e:	1b64      	subs	r4, r4, r5
   84080:	10a4      	asrs	r4, r4, #2
   84082:	d00a      	beq.n	8409a <__libc_fini_array+0x22>
   84084:	f104 4380 	add.w	r3, r4, #1073741824	; 0x40000000
   84088:	3b01      	subs	r3, #1
   8408a:	eb05 0583 	add.w	r5, r5, r3, lsl #2
   8408e:	3c01      	subs	r4, #1
   84090:	f855 3904 	ldr.w	r3, [r5], #-4
   84094:	4798      	blx	r3
   84096:	2c00      	cmp	r4, #0
   84098:	d1f9      	bne.n	8408e <__libc_fini_array+0x16>
   8409a:	e8bd 4038 	ldmia.w	sp!, {r3, r4, r5, lr}
   8409e:	f000 ba41 	b.w	84524 <_fini>
   840a2:	bf00      	nop
   840a4:	00084534 	.word	0x00084534
   840a8:	00084530 	.word	0x00084530

000840ac <_malloc_trim_r>:
   840ac:	b5f8      	push	{r3, r4, r5, r6, r7, lr}
   840ae:	460c      	mov	r4, r1
   840b0:	4f23      	ldr	r7, [pc, #140]	; (84140 <_malloc_trim_r+0x94>)
   840b2:	4606      	mov	r6, r0
   840b4:	f7ff ffba 	bl	8402c <__malloc_lock>
   840b8:	68bb      	ldr	r3, [r7, #8]
   840ba:	f5c4 617e 	rsb	r1, r4, #4064	; 0xfe0
   840be:	685d      	ldr	r5, [r3, #4]
   840c0:	310f      	adds	r1, #15
   840c2:	f025 0503 	bic.w	r5, r5, #3
   840c6:	4429      	add	r1, r5
   840c8:	f421 617f 	bic.w	r1, r1, #4080	; 0xff0
   840cc:	f021 010f 	bic.w	r1, r1, #15
   840d0:	f5a1 5480 	sub.w	r4, r1, #4096	; 0x1000
   840d4:	f5b4 5f80 	cmp.w	r4, #4096	; 0x1000
   840d8:	db07      	blt.n	840ea <_malloc_trim_r+0x3e>
   840da:	2100      	movs	r1, #0
   840dc:	4630      	mov	r0, r6
   840de:	f7ff ffa9 	bl	84034 <_sbrk_r>
   840e2:	68bb      	ldr	r3, [r7, #8]
   840e4:	442b      	add	r3, r5
   840e6:	4298      	cmp	r0, r3
   840e8:	d004      	beq.n	840f4 <_malloc_trim_r+0x48>
   840ea:	4630      	mov	r0, r6
   840ec:	f7ff ffa0 	bl	84030 <__malloc_unlock>
   840f0:	2000      	movs	r0, #0
   840f2:	bdf8      	pop	{r3, r4, r5, r6, r7, pc}
   840f4:	4261      	negs	r1, r4
   840f6:	4630      	mov	r0, r6
   840f8:	f7ff ff9c 	bl	84034 <_sbrk_r>
   840fc:	3001      	adds	r0, #1
   840fe:	d00d      	beq.n	8411c <_malloc_trim_r+0x70>
   84100:	4b10      	ldr	r3, [pc, #64]	; (84144 <_malloc_trim_r+0x98>)
   84102:	68ba      	ldr	r2, [r7, #8]
   84104:	6819      	ldr	r1, [r3, #0]
   84106:	1b2d      	subs	r5, r5, r4
   84108:	f045 0501 	orr.w	r5, r5, #1
   8410c:	4630      	mov	r0, r6
   8410e:	1b09      	subs	r1, r1, r4
   84110:	6055      	str	r5, [r2, #4]
   84112:	6019      	str	r1, [r3, #0]
   84114:	f7ff ff8c 	bl	84030 <__malloc_unlock>
   84118:	2001      	movs	r0, #1
   8411a:	bdf8      	pop	{r3, r4, r5, r6, r7, pc}
   8411c:	2100      	movs	r1, #0
   8411e:	4630      	mov	r0, r6
   84120:	f7ff ff88 	bl	84034 <_sbrk_r>
   84124:	68ba      	ldr	r2, [r7, #8]
   84126:	1a83      	subs	r3, r0, r2
   84128:	2b0f      	cmp	r3, #15
   8412a:	ddde      	ble.n	840ea <_malloc_trim_r+0x3e>
   8412c:	4c06      	ldr	r4, [pc, #24]	; (84148 <_malloc_trim_r+0x9c>)
   8412e:	4905      	ldr	r1, [pc, #20]	; (84144 <_malloc_trim_r+0x98>)
   84130:	6824      	ldr	r4, [r4, #0]
   84132:	f043 0301 	orr.w	r3, r3, #1
   84136:	1b00      	subs	r0, r0, r4
   84138:	6053      	str	r3, [r2, #4]
   8413a:	6008      	str	r0, [r1, #0]
   8413c:	e7d5      	b.n	840ea <_malloc_trim_r+0x3e>
   8413e:	bf00      	nop
   84140:	20070560 	.word	0x20070560
   84144:	20070990 	.word	0x20070990
   84148:	20070968 	.word	0x20070968

0008414c <_free_r>:
   8414c:	2900      	cmp	r1, #0
   8414e:	d044      	beq.n	841da <_free_r+0x8e>
   84150:	e92d 41f0 	stmdb	sp!, {r4, r5, r6, r7, r8, lr}
   84154:	460d      	mov	r5, r1
   84156:	4680      	mov	r8, r0
   84158:	f7ff ff68 	bl	8402c <__malloc_lock>
   8415c:	f855 7c04 	ldr.w	r7, [r5, #-4]
   84160:	4969      	ldr	r1, [pc, #420]	; (84308 <_free_r+0x1bc>)
   84162:	f1a5 0408 	sub.w	r4, r5, #8
   84166:	f027 0301 	bic.w	r3, r7, #1
   8416a:	18e2      	adds	r2, r4, r3
   8416c:	688e      	ldr	r6, [r1, #8]
   8416e:	6850      	ldr	r0, [r2, #4]
   84170:	42b2      	cmp	r2, r6
   84172:	f020 0003 	bic.w	r0, r0, #3
   84176:	d05e      	beq.n	84236 <_free_r+0xea>
   84178:	07fe      	lsls	r6, r7, #31
   8417a:	6050      	str	r0, [r2, #4]
   8417c:	d40b      	bmi.n	84196 <_free_r+0x4a>
   8417e:	f855 7c08 	ldr.w	r7, [r5, #-8]
   84182:	f101 0e08 	add.w	lr, r1, #8
   84186:	1be4      	subs	r4, r4, r7
   84188:	68a5      	ldr	r5, [r4, #8]
   8418a:	443b      	add	r3, r7
   8418c:	4575      	cmp	r5, lr
   8418e:	d06d      	beq.n	8426c <_free_r+0x120>
   84190:	68e7      	ldr	r7, [r4, #12]
   84192:	60ef      	str	r7, [r5, #12]
   84194:	60bd      	str	r5, [r7, #8]
   84196:	1815      	adds	r5, r2, r0
   84198:	686d      	ldr	r5, [r5, #4]
   8419a:	07ed      	lsls	r5, r5, #31
   8419c:	d53e      	bpl.n	8421c <_free_r+0xd0>
   8419e:	f043 0201 	orr.w	r2, r3, #1
   841a2:	6062      	str	r2, [r4, #4]
   841a4:	50e3      	str	r3, [r4, r3]
   841a6:	f5b3 7f00 	cmp.w	r3, #512	; 0x200
   841aa:	d217      	bcs.n	841dc <_free_r+0x90>
   841ac:	2201      	movs	r2, #1
   841ae:	08db      	lsrs	r3, r3, #3
   841b0:	1098      	asrs	r0, r3, #2
   841b2:	684d      	ldr	r5, [r1, #4]
   841b4:	4413      	add	r3, r2
   841b6:	f851 7033 	ldr.w	r7, [r1, r3, lsl #3]
   841ba:	4082      	lsls	r2, r0
   841bc:	eb01 00c3 	add.w	r0, r1, r3, lsl #3
   841c0:	432a      	orrs	r2, r5
   841c2:	3808      	subs	r0, #8
   841c4:	60e0      	str	r0, [r4, #12]
   841c6:	60a7      	str	r7, [r4, #8]
   841c8:	604a      	str	r2, [r1, #4]
   841ca:	f841 4033 	str.w	r4, [r1, r3, lsl #3]
   841ce:	60fc      	str	r4, [r7, #12]
   841d0:	4640      	mov	r0, r8
   841d2:	e8bd 41f0 	ldmia.w	sp!, {r4, r5, r6, r7, r8, lr}
   841d6:	f7ff bf2b 	b.w	84030 <__malloc_unlock>
   841da:	4770      	bx	lr
   841dc:	0a5a      	lsrs	r2, r3, #9
   841de:	2a04      	cmp	r2, #4
   841e0:	d852      	bhi.n	84288 <_free_r+0x13c>
   841e2:	099a      	lsrs	r2, r3, #6
   841e4:	f102 0739 	add.w	r7, r2, #57	; 0x39
   841e8:	00ff      	lsls	r7, r7, #3
   841ea:	f102 0538 	add.w	r5, r2, #56	; 0x38
   841ee:	19c8      	adds	r0, r1, r7
   841f0:	59ca      	ldr	r2, [r1, r7]
   841f2:	3808      	subs	r0, #8
   841f4:	4290      	cmp	r0, r2
   841f6:	d04f      	beq.n	84298 <_free_r+0x14c>
   841f8:	6851      	ldr	r1, [r2, #4]
   841fa:	f021 0103 	bic.w	r1, r1, #3
   841fe:	428b      	cmp	r3, r1
   84200:	d232      	bcs.n	84268 <_free_r+0x11c>
   84202:	6892      	ldr	r2, [r2, #8]
   84204:	4290      	cmp	r0, r2
   84206:	d1f7      	bne.n	841f8 <_free_r+0xac>
   84208:	68c3      	ldr	r3, [r0, #12]
   8420a:	60a0      	str	r0, [r4, #8]
   8420c:	60e3      	str	r3, [r4, #12]
   8420e:	609c      	str	r4, [r3, #8]
   84210:	60c4      	str	r4, [r0, #12]
   84212:	4640      	mov	r0, r8
   84214:	e8bd 41f0 	ldmia.w	sp!, {r4, r5, r6, r7, r8, lr}
   84218:	f7ff bf0a 	b.w	84030 <__malloc_unlock>
   8421c:	6895      	ldr	r5, [r2, #8]
   8421e:	4f3b      	ldr	r7, [pc, #236]	; (8430c <_free_r+0x1c0>)
   84220:	4403      	add	r3, r0
   84222:	42bd      	cmp	r5, r7
   84224:	d040      	beq.n	842a8 <_free_r+0x15c>
   84226:	68d0      	ldr	r0, [r2, #12]
   84228:	f043 0201 	orr.w	r2, r3, #1
   8422c:	60e8      	str	r0, [r5, #12]
   8422e:	6085      	str	r5, [r0, #8]
   84230:	6062      	str	r2, [r4, #4]
   84232:	50e3      	str	r3, [r4, r3]
   84234:	e7b7      	b.n	841a6 <_free_r+0x5a>
   84236:	07ff      	lsls	r7, r7, #31
   84238:	4403      	add	r3, r0
   8423a:	d407      	bmi.n	8424c <_free_r+0x100>
   8423c:	f855 5c08 	ldr.w	r5, [r5, #-8]
   84240:	1b64      	subs	r4, r4, r5
   84242:	68e2      	ldr	r2, [r4, #12]
   84244:	68a0      	ldr	r0, [r4, #8]
   84246:	442b      	add	r3, r5
   84248:	60c2      	str	r2, [r0, #12]
   8424a:	6090      	str	r0, [r2, #8]
   8424c:	4a30      	ldr	r2, [pc, #192]	; (84310 <_free_r+0x1c4>)
   8424e:	f043 0001 	orr.w	r0, r3, #1
   84252:	6812      	ldr	r2, [r2, #0]
   84254:	6060      	str	r0, [r4, #4]
   84256:	4293      	cmp	r3, r2
   84258:	608c      	str	r4, [r1, #8]
   8425a:	d3b9      	bcc.n	841d0 <_free_r+0x84>
   8425c:	4b2d      	ldr	r3, [pc, #180]	; (84314 <_free_r+0x1c8>)
   8425e:	4640      	mov	r0, r8
   84260:	6819      	ldr	r1, [r3, #0]
   84262:	f7ff ff23 	bl	840ac <_malloc_trim_r>
   84266:	e7b3      	b.n	841d0 <_free_r+0x84>
   84268:	4610      	mov	r0, r2
   8426a:	e7cd      	b.n	84208 <_free_r+0xbc>
   8426c:	1811      	adds	r1, r2, r0
   8426e:	6849      	ldr	r1, [r1, #4]
   84270:	07c9      	lsls	r1, r1, #31
   84272:	d444      	bmi.n	842fe <_free_r+0x1b2>
   84274:	6891      	ldr	r1, [r2, #8]
   84276:	4403      	add	r3, r0
   84278:	68d2      	ldr	r2, [r2, #12]
   8427a:	f043 0001 	orr.w	r0, r3, #1
   8427e:	60ca      	str	r2, [r1, #12]
   84280:	6091      	str	r1, [r2, #8]
   84282:	6060      	str	r0, [r4, #4]
   84284:	50e3      	str	r3, [r4, r3]
   84286:	e7a3      	b.n	841d0 <_free_r+0x84>
   84288:	2a14      	cmp	r2, #20
   8428a:	d816      	bhi.n	842ba <_free_r+0x16e>
   8428c:	f102 075c 	add.w	r7, r2, #92	; 0x5c
   84290:	00ff      	lsls	r7, r7, #3
   84292:	f102 055b 	add.w	r5, r2, #91	; 0x5b
   84296:	e7aa      	b.n	841ee <_free_r+0xa2>
   84298:	2301      	movs	r3, #1
   8429a:	10aa      	asrs	r2, r5, #2
   8429c:	684d      	ldr	r5, [r1, #4]
   8429e:	4093      	lsls	r3, r2
   842a0:	432b      	orrs	r3, r5
   842a2:	604b      	str	r3, [r1, #4]
   842a4:	4603      	mov	r3, r0
   842a6:	e7b0      	b.n	8420a <_free_r+0xbe>
   842a8:	f043 0201 	orr.w	r2, r3, #1
   842ac:	614c      	str	r4, [r1, #20]
   842ae:	610c      	str	r4, [r1, #16]
   842b0:	60e5      	str	r5, [r4, #12]
   842b2:	60a5      	str	r5, [r4, #8]
   842b4:	6062      	str	r2, [r4, #4]
   842b6:	50e3      	str	r3, [r4, r3]
   842b8:	e78a      	b.n	841d0 <_free_r+0x84>
   842ba:	2a54      	cmp	r2, #84	; 0x54
   842bc:	d806      	bhi.n	842cc <_free_r+0x180>
   842be:	0b1a      	lsrs	r2, r3, #12
   842c0:	f102 076f 	add.w	r7, r2, #111	; 0x6f
   842c4:	00ff      	lsls	r7, r7, #3
   842c6:	f102 056e 	add.w	r5, r2, #110	; 0x6e
   842ca:	e790      	b.n	841ee <_free_r+0xa2>
   842cc:	f5b2 7faa 	cmp.w	r2, #340	; 0x154
   842d0:	d806      	bhi.n	842e0 <_free_r+0x194>
   842d2:	0bda      	lsrs	r2, r3, #15
   842d4:	f102 0778 	add.w	r7, r2, #120	; 0x78
   842d8:	00ff      	lsls	r7, r7, #3
   842da:	f102 0577 	add.w	r5, r2, #119	; 0x77
   842de:	e786      	b.n	841ee <_free_r+0xa2>
   842e0:	f240 5054 	movw	r0, #1364	; 0x554
   842e4:	4282      	cmp	r2, r0
   842e6:	d806      	bhi.n	842f6 <_free_r+0x1aa>
   842e8:	0c9a      	lsrs	r2, r3, #18
   842ea:	f102 077d 	add.w	r7, r2, #125	; 0x7d
   842ee:	00ff      	lsls	r7, r7, #3
   842f0:	f102 057c 	add.w	r5, r2, #124	; 0x7c
   842f4:	e77b      	b.n	841ee <_free_r+0xa2>
   842f6:	f44f 777e 	mov.w	r7, #1016	; 0x3f8
   842fa:	257e      	movs	r5, #126	; 0x7e
   842fc:	e777      	b.n	841ee <_free_r+0xa2>
   842fe:	f043 0101 	orr.w	r1, r3, #1
   84302:	6061      	str	r1, [r4, #4]
   84304:	6013      	str	r3, [r2, #0]
   84306:	e763      	b.n	841d0 <_free_r+0x84>
   84308:	20070560 	.word	0x20070560
   8430c:	20070568 	.word	0x20070568
   84310:	2007096c 	.word	0x2007096c
   84314:	200709c0 	.word	0x200709c0

00084318 <__register_exitproc>:
   84318:	e92d 47f0 	stmdb	sp!, {r4, r5, r6, r7, r8, r9, sl, lr}
   8431c:	4c27      	ldr	r4, [pc, #156]	; (843bc <__register_exitproc+0xa4>)
   8431e:	4607      	mov	r7, r0
   84320:	6826      	ldr	r6, [r4, #0]
   84322:	4688      	mov	r8, r1
   84324:	f8d6 4148 	ldr.w	r4, [r6, #328]	; 0x148
   84328:	4692      	mov	sl, r2
   8432a:	4699      	mov	r9, r3
   8432c:	2c00      	cmp	r4, #0
   8432e:	d03c      	beq.n	843aa <__register_exitproc+0x92>
   84330:	6865      	ldr	r5, [r4, #4]
   84332:	2d1f      	cmp	r5, #31
   84334:	dc1a      	bgt.n	8436c <__register_exitproc+0x54>
   84336:	f105 0e01 	add.w	lr, r5, #1
   8433a:	b17f      	cbz	r7, 8435c <__register_exitproc+0x44>
   8433c:	2001      	movs	r0, #1
   8433e:	eb04 0385 	add.w	r3, r4, r5, lsl #2
   84342:	f8c3 a088 	str.w	sl, [r3, #136]	; 0x88
   84346:	f8d4 1188 	ldr.w	r1, [r4, #392]	; 0x188
   8434a:	fa00 f205 	lsl.w	r2, r0, r5
   8434e:	4311      	orrs	r1, r2
   84350:	2f02      	cmp	r7, #2
   84352:	f8c4 1188 	str.w	r1, [r4, #392]	; 0x188
   84356:	f8c3 9108 	str.w	r9, [r3, #264]	; 0x108
   8435a:	d020      	beq.n	8439e <__register_exitproc+0x86>
   8435c:	3502      	adds	r5, #2
   8435e:	f8c4 e004 	str.w	lr, [r4, #4]
   84362:	2000      	movs	r0, #0
   84364:	f844 8025 	str.w	r8, [r4, r5, lsl #2]
   84368:	e8bd 87f0 	ldmia.w	sp!, {r4, r5, r6, r7, r8, r9, sl, pc}
   8436c:	4b14      	ldr	r3, [pc, #80]	; (843c0 <__register_exitproc+0xa8>)
   8436e:	b30b      	cbz	r3, 843b4 <__register_exitproc+0x9c>
   84370:	f44f 70c8 	mov.w	r0, #400	; 0x190
   84374:	f7ff fbb0 	bl	83ad8 <malloc>
   84378:	4604      	mov	r4, r0
   8437a:	b1d8      	cbz	r0, 843b4 <__register_exitproc+0x9c>
   8437c:	2000      	movs	r0, #0
   8437e:	f8d6 3148 	ldr.w	r3, [r6, #328]	; 0x148
   84382:	f04f 0e01 	mov.w	lr, #1
   84386:	6060      	str	r0, [r4, #4]
   84388:	6023      	str	r3, [r4, #0]
   8438a:	4605      	mov	r5, r0
   8438c:	f8c6 4148 	str.w	r4, [r6, #328]	; 0x148
   84390:	f8c4 0188 	str.w	r0, [r4, #392]	; 0x188
   84394:	f8c4 018c 	str.w	r0, [r4, #396]	; 0x18c
   84398:	2f00      	cmp	r7, #0
   8439a:	d0df      	beq.n	8435c <__register_exitproc+0x44>
   8439c:	e7ce      	b.n	8433c <__register_exitproc+0x24>
   8439e:	f8d4 318c 	ldr.w	r3, [r4, #396]	; 0x18c
   843a2:	431a      	orrs	r2, r3
   843a4:	f8c4 218c 	str.w	r2, [r4, #396]	; 0x18c
   843a8:	e7d8      	b.n	8435c <__register_exitproc+0x44>
   843aa:	f506 74a6 	add.w	r4, r6, #332	; 0x14c
   843ae:	f8c6 4148 	str.w	r4, [r6, #328]	; 0x148
   843b2:	e7bd      	b.n	84330 <__register_exitproc+0x18>
   843b4:	f04f 30ff 	mov.w	r0, #4294967295
   843b8:	e8bd 87f0 	ldmia.w	sp!, {r4, r5, r6, r7, r8, r9, sl, pc}
   843bc:	0008450c 	.word	0x0008450c
   843c0:	00083ad9 	.word	0x00083ad9
   843c4:	46697754 	.word	0x46697754
   843c8:	746c7561 	.word	0x746c7561
   843cc:	0000203a 	.word	0x0000203a
   843d0:	52504545 	.word	0x52504545
   843d4:	46204d4f 	.word	0x46204d4f
   843d8:	746c7561 	.word	0x746c7561
   843dc:	00000000 	.word	0x00000000
   843e0:	00313030 	.word	0x00313030
   843e4:	68745552 	.word	0x68745552
   843e8:	7373656c 	.word	0x7373656c
   843ec:	2e315620 	.word	0x2e315620
   843f0:	6f462030 	.word	0x6f462030
   843f4:	6c756d72 	.word	0x6c756d72
   843f8:	74532061 	.word	0x74532061
   843fc:	6e656475 	.word	0x6e656475
   84400:	30322074 	.word	0x30322074
   84404:	00003731 	.word	0x00003731
   84408:	65657073 	.word	0x65657073
   8440c:	6e697564 	.word	0x6e697564
   84410:	0000006f 	.word	0x0000006f
   84414:	2050414d 	.word	0x2050414d
   84418:	68676948 	.word	0x68676948
   8441c:	0000203a 	.word	0x0000203a
   84420:	2050414d 	.word	0x2050414d
   84424:	3a776f4c 	.word	0x3a776f4c
   84428:	00000020 	.word	0x00000020
   8442c:	20535054 	.word	0x20535054
   84430:	68676948 	.word	0x68676948
   84434:	0000203a 	.word	0x0000203a
   84438:	20535054 	.word	0x20535054
   8443c:	3a776f4c 	.word	0x3a776f4c
   84440:	00000020 	.word	0x00000020
   84444:	3a544c43 	.word	0x3a544c43
   84448:	00000020 	.word	0x00000020
   8444c:	3a544149 	.word	0x3a544149
   84450:	00000020 	.word	0x00000020
   84454:	3a524641 	.word	0x3a524641
   84458:	00000020 	.word	0x00000020
   8445c:	3a50414d 	.word	0x3a50414d
   84460:	00000020 	.word	0x00000020
   84464:	3a535054 	.word	0x3a535054
   84468:	00000020 	.word	0x00000020
   8446c:	3a4d5052 	.word	0x3a4d5052
   84470:	00000020 	.word	0x00000020
   84474:	46495754 	.word	0x46495754
   84478:	746c7561 	.word	0x746c7561
   8447c:	0000203a 	.word	0x0000203a
   84480:	6c657546 	.word	0x6c657546
   84484:	6e6f4320 	.word	0x6e6f4320
   84488:	203a7473 	.word	0x203a7473
   8448c:	00000000 	.word	0x00000000
   84490:	65746641 	.word	0x65746641
   84494:	61745372 	.word	0x61745372
   84498:	6e457472 	.word	0x6e457472
   8449c:	68636972 	.word	0x68636972
   844a0:	3a746350 	.word	0x3a746350
   844a4:	00000020 	.word	0x00000020
   844a8:	65746641 	.word	0x65746641
   844ac:	61745372 	.word	0x61745372
   844b0:	6e457472 	.word	0x6e457472
   844b4:	68636972 	.word	0x68636972
   844b8:	6c637943 	.word	0x6c637943
   844bc:	203a7365 	.word	0x203a7365
   844c0:	00000000 	.word	0x00000000
   844c4:	6c6c696d 	.word	0x6c6c696d
   844c8:	203a7369 	.word	0x203a7369
   844cc:	00000000 	.word	0x00000000
   844d0:	4f525245 	.word	0x4f525245
   844d4:	61632052 	.word	0x61632052
   844d8:	7262696c 	.word	0x7262696c
   844dc:	6f697461 	.word	0x6f697461
   844e0:	6576206e 	.word	0x6576206e
   844e4:	726f7463 	.word	0x726f7463
   844e8:	00000000 	.word	0x00000000
   844ec:	07050604 	.word	0x07050604
   844f0:	00050c00 	.word	0x00050c00
   844f4:	74696e49 	.word	0x74696e49
   844f8:	67656220 	.word	0x67656220
   844fc:	00006e69 	.word	0x00006e69
   84500:	74696e49 	.word	0x74696e49
   84504:	6e6f6420 	.word	0x6e6f6420
   84508:	00000065 	.word	0x00000065

0008450c <_global_impure_ptr>:
   8450c:	20070138                                8.. 

00084510 <_init>:
   84510:	b5f8      	push	{r3, r4, r5, r6, r7, lr}
   84512:	bf00      	nop
   84514:	bcf8      	pop	{r3, r4, r5, r6, r7}
   84516:	bc08      	pop	{r3}
   84518:	469e      	mov	lr, r3
   8451a:	4770      	bx	lr

0008451c <__init_array_start>:
   8451c:	00084059 	.word	0x00084059

00084520 <__frame_dummy_init_array_entry>:
   84520:	00080119                                ....

00084524 <_fini>:
   84524:	b5f8      	push	{r3, r4, r5, r6, r7, lr}
   84526:	bf00      	nop
   84528:	bcf8      	pop	{r3, r4, r5, r6, r7}
   8452a:	bc08      	pop	{r3}
   8452c:	469e      	mov	lr, r3
   8452e:	4770      	bx	lr

00084530 <__fini_array_start>:
   84530:	000800f5 	.word	0x000800f5

Disassembly of section .relocate:

20070000 <SystemInit>:
	EFC0->EEFC_FMR = EEFC_FMR_FWS(4);
20070000:	f44f 6380 	mov.w	r3, #1024	; 0x400
20070004:	4a20      	ldr	r2, [pc, #128]	; (20070088 <SystemInit+0x88>)
20070006:	6013      	str	r3, [r2, #0]
	EFC1->EEFC_FMR = EEFC_FMR_FWS(4);
20070008:	f502 7200 	add.w	r2, r2, #512	; 0x200
2007000c:	6013      	str	r3, [r2, #0]
	if (!(PMC->CKGR_MOR & CKGR_MOR_MOSCSEL)) {
2007000e:	4b1f      	ldr	r3, [pc, #124]	; (2007008c <SystemInit+0x8c>)
20070010:	6a1b      	ldr	r3, [r3, #32]
20070012:	f013 7f80 	tst.w	r3, #16777216	; 0x1000000
20070016:	d107      	bne.n	20070028 <SystemInit+0x28>
		PMC->CKGR_MOR = SYS_CKGR_MOR_KEY_VALUE | SYS_BOARD_OSCOUNT | 
20070018:	4a1d      	ldr	r2, [pc, #116]	; (20070090 <SystemInit+0x90>)
2007001a:	4b1c      	ldr	r3, [pc, #112]	; (2007008c <SystemInit+0x8c>)
2007001c:	621a      	str	r2, [r3, #32]
		while (!(PMC->PMC_SR & PMC_SR_MOSCXTS)) {
2007001e:	461a      	mov	r2, r3
20070020:	6e93      	ldr	r3, [r2, #104]	; 0x68
20070022:	f013 0f01 	tst.w	r3, #1
20070026:	d0fb      	beq.n	20070020 <SystemInit+0x20>
	PMC->CKGR_MOR = SYS_CKGR_MOR_KEY_VALUE | SYS_BOARD_OSCOUNT | 
20070028:	4a1a      	ldr	r2, [pc, #104]	; (20070094 <SystemInit+0x94>)
2007002a:	4b18      	ldr	r3, [pc, #96]	; (2007008c <SystemInit+0x8c>)
2007002c:	621a      	str	r2, [r3, #32]
	while (!(PMC->PMC_SR & PMC_SR_MOSCSELS)) {
2007002e:	461a      	mov	r2, r3
20070030:	6e93      	ldr	r3, [r2, #104]	; 0x68
20070032:	f413 3f80 	tst.w	r3, #65536	; 0x10000
20070036:	d0fb      	beq.n	20070030 <SystemInit+0x30>
 	PMC->PMC_MCKR = (PMC->PMC_MCKR & ~(uint32_t)PMC_MCKR_CSS_Msk) | 
20070038:	4a14      	ldr	r2, [pc, #80]	; (2007008c <SystemInit+0x8c>)
2007003a:	6b13      	ldr	r3, [r2, #48]	; 0x30
2007003c:	f023 0303 	bic.w	r3, r3, #3
20070040:	f043 0301 	orr.w	r3, r3, #1
20070044:	6313      	str	r3, [r2, #48]	; 0x30
	while (!(PMC->PMC_SR & PMC_SR_MCKRDY)) {
20070046:	6e93      	ldr	r3, [r2, #104]	; 0x68
20070048:	f013 0f08 	tst.w	r3, #8
2007004c:	d0fb      	beq.n	20070046 <SystemInit+0x46>
	PMC->CKGR_PLLAR = SYS_BOARD_PLLAR;
2007004e:	4a12      	ldr	r2, [pc, #72]	; (20070098 <SystemInit+0x98>)
20070050:	4b0e      	ldr	r3, [pc, #56]	; (2007008c <SystemInit+0x8c>)
20070052:	629a      	str	r2, [r3, #40]	; 0x28
	while (!(PMC->PMC_SR & PMC_SR_LOCKA)) {
20070054:	461a      	mov	r2, r3
20070056:	6e93      	ldr	r3, [r2, #104]	; 0x68
20070058:	f013 0f02 	tst.w	r3, #2
2007005c:	d0fb      	beq.n	20070056 <SystemInit+0x56>
	PMC->PMC_MCKR = (SYS_BOARD_MCKR & ~PMC_MCKR_CSS_Msk) | PMC_MCKR_CSS_MAIN_CLK;
2007005e:	2211      	movs	r2, #17
20070060:	4b0a      	ldr	r3, [pc, #40]	; (2007008c <SystemInit+0x8c>)
20070062:	631a      	str	r2, [r3, #48]	; 0x30
	while (!(PMC->PMC_SR & PMC_SR_MCKRDY)) {
20070064:	461a      	mov	r2, r3
20070066:	6e93      	ldr	r3, [r2, #104]	; 0x68
20070068:	f013 0f08 	tst.w	r3, #8
2007006c:	d0fb      	beq.n	20070066 <SystemInit+0x66>
	PMC->PMC_MCKR = SYS_BOARD_MCKR;
2007006e:	2212      	movs	r2, #18
20070070:	4b06      	ldr	r3, [pc, #24]	; (2007008c <SystemInit+0x8c>)
20070072:	631a      	str	r2, [r3, #48]	; 0x30
	while (!(PMC->PMC_SR & PMC_SR_MCKRDY)) {
20070074:	461a      	mov	r2, r3
20070076:	6e93      	ldr	r3, [r2, #104]	; 0x68
20070078:	f013 0f08 	tst.w	r3, #8
2007007c:	d0fb      	beq.n	20070076 <SystemInit+0x76>
	SystemCoreClock = CHIP_FREQ_CPU_MAX;
2007007e:	4a07      	ldr	r2, [pc, #28]	; (2007009c <SystemInit+0x9c>)
20070080:	4b07      	ldr	r3, [pc, #28]	; (200700a0 <SystemInit+0xa0>)
20070082:	601a      	str	r2, [r3, #0]
20070084:	4770      	bx	lr
20070086:	bf00      	nop
20070088:	400e0a00 	.word	0x400e0a00
2007008c:	400e0600 	.word	0x400e0600
20070090:	00370809 	.word	0x00370809
20070094:	01370809 	.word	0x01370809
20070098:	200d3f01 	.word	0x200d3f01
2007009c:	0501bd00 	.word	0x0501bd00
200700a0:	2007012c 	.word	0x2007012c

200700a4 <system_init_flash>:
__no_inline
RAMFUNC
void system_init_flash(uint32_t ul_clk)
{
	/* Set FWS for embedded Flash access according to operating frequency */
	if (ul_clk < CHIP_FREQ_FWS_0) {
200700a4:	4b1b      	ldr	r3, [pc, #108]	; (20070114 <system_init_flash+0x70>)
200700a6:	4298      	cmp	r0, r3
200700a8:	d915      	bls.n	200700d6 <system_init_flash+0x32>
		EFC0->EEFC_FMR = EEFC_FMR_FWS(0);
		EFC1->EEFC_FMR = EEFC_FMR_FWS(0);
	} else if (ul_clk < CHIP_FREQ_FWS_1) {
200700aa:	4b1b      	ldr	r3, [pc, #108]	; (20070118 <system_init_flash+0x74>)
200700ac:	4298      	cmp	r0, r3
200700ae:	d919      	bls.n	200700e4 <system_init_flash+0x40>
		EFC0->EEFC_FMR = EEFC_FMR_FWS(1);
		EFC1->EEFC_FMR = EEFC_FMR_FWS(1);
	} else if (ul_clk < CHIP_FREQ_FWS_2) {
200700b0:	4b1a      	ldr	r3, [pc, #104]	; (2007011c <system_init_flash+0x78>)
200700b2:	4298      	cmp	r0, r3
200700b4:	d91e      	bls.n	200700f4 <system_init_flash+0x50>
		EFC0->EEFC_FMR = EEFC_FMR_FWS(2);
		EFC1->EEFC_FMR = EEFC_FMR_FWS(2);
	} else if (ul_clk < CHIP_FREQ_FWS_3) {
200700b6:	4b1a      	ldr	r3, [pc, #104]	; (20070120 <system_init_flash+0x7c>)
200700b8:	4298      	cmp	r0, r3
200700ba:	d923      	bls.n	20070104 <system_init_flash+0x60>
		EFC0->EEFC_FMR = EEFC_FMR_FWS(3);
		EFC1->EEFC_FMR = EEFC_FMR_FWS(3);
	} else if (ul_clk < CHIP_FREQ_FWS_4) {
200700bc:	4b19      	ldr	r3, [pc, #100]	; (20070124 <system_init_flash+0x80>)
200700be:	4298      	cmp	r0, r3
		EFC0->EEFC_FMR = EEFC_FMR_FWS(4);
200700c0:	bf94      	ite	ls
200700c2:	f44f 6380 	movls.w	r3, #1024	; 0x400
		EFC1->EEFC_FMR = EEFC_FMR_FWS(4);	
	} else {
		EFC0->EEFC_FMR = EEFC_FMR_FWS(5);
200700c6:	f44f 63a0 	movhi.w	r3, #1280	; 0x500
200700ca:	4a17      	ldr	r2, [pc, #92]	; (20070128 <system_init_flash+0x84>)
200700cc:	6013      	str	r3, [r2, #0]
		EFC1->EEFC_FMR = EEFC_FMR_FWS(5);
200700ce:	f502 7200 	add.w	r2, r2, #512	; 0x200
200700d2:	6013      	str	r3, [r2, #0]
200700d4:	4770      	bx	lr
		EFC0->EEFC_FMR = EEFC_FMR_FWS(0);
200700d6:	2300      	movs	r3, #0
200700d8:	4a13      	ldr	r2, [pc, #76]	; (20070128 <system_init_flash+0x84>)
200700da:	6013      	str	r3, [r2, #0]
		EFC1->EEFC_FMR = EEFC_FMR_FWS(0);
200700dc:	f502 7200 	add.w	r2, r2, #512	; 0x200
200700e0:	6013      	str	r3, [r2, #0]
200700e2:	4770      	bx	lr
		EFC0->EEFC_FMR = EEFC_FMR_FWS(1);
200700e4:	f44f 7380 	mov.w	r3, #256	; 0x100
200700e8:	4a0f      	ldr	r2, [pc, #60]	; (20070128 <system_init_flash+0x84>)
200700ea:	6013      	str	r3, [r2, #0]
		EFC1->EEFC_FMR = EEFC_FMR_FWS(1);
200700ec:	f502 7200 	add.w	r2, r2, #512	; 0x200
200700f0:	6013      	str	r3, [r2, #0]
200700f2:	4770      	bx	lr
		EFC0->EEFC_FMR = EEFC_FMR_FWS(2);
200700f4:	f44f 7300 	mov.w	r3, #512	; 0x200
200700f8:	4a0b      	ldr	r2, [pc, #44]	; (20070128 <system_init_flash+0x84>)
200700fa:	6013      	str	r3, [r2, #0]
		EFC1->EEFC_FMR = EEFC_FMR_FWS(2);
200700fc:	f502 7200 	add.w	r2, r2, #512	; 0x200
20070100:	6013      	str	r3, [r2, #0]
20070102:	4770      	bx	lr
		EFC0->EEFC_FMR = EEFC_FMR_FWS(3);
20070104:	f44f 7340 	mov.w	r3, #768	; 0x300
20070108:	4a07      	ldr	r2, [pc, #28]	; (20070128 <system_init_flash+0x84>)
2007010a:	6013      	str	r3, [r2, #0]
		EFC1->EEFC_FMR = EEFC_FMR_FWS(3);
2007010c:	f502 7200 	add.w	r2, r2, #512	; 0x200
20070110:	6013      	str	r3, [r2, #0]
20070112:	4770      	bx	lr
20070114:	0121eabf 	.word	0x0121eabf
20070118:	02faf07f 	.word	0x02faf07f
2007011c:	03d08fff 	.word	0x03d08fff
20070120:	04c4b3ff 	.word	0x04c4b3ff
20070124:	055d4a7f 	.word	0x055d4a7f
20070128:	400e0a00 	.word	0x400e0a00

2007012c <SystemCoreClock>:
2007012c:	003d0900                                ..=.

20070130 <_impure_ptr>:
20070130:	20070138 00000000                       8.. ....

20070138 <impure_data>:
20070138:	00000000 20070424 2007048c 200704f4     ....$.. ... ... 
	...
200701e0:	00000001 00000000 abcd330e e66d1234     .........3..4.m.
200701f0:	0005deec 0000000b 00000000 00000000     ................
	...

20070560 <__malloc_av_>:
	...
20070568:	20070560 20070560 20070568 20070568     `.. `.. h.. h.. 
20070578:	20070570 20070570 20070578 20070578     p.. p.. x.. x.. 
20070588:	20070580 20070580 20070588 20070588     ... ... ... ... 
20070598:	20070590 20070590 20070598 20070598     ... ... ... ... 
200705a8:	200705a0 200705a0 200705a8 200705a8     ... ... ... ... 
200705b8:	200705b0 200705b0 200705b8 200705b8     ... ... ... ... 
200705c8:	200705c0 200705c0 200705c8 200705c8     ... ... ... ... 
200705d8:	200705d0 200705d0 200705d8 200705d8     ... ... ... ... 
200705e8:	200705e0 200705e0 200705e8 200705e8     ... ... ... ... 
200705f8:	200705f0 200705f0 200705f8 200705f8     ... ... ... ... 
20070608:	20070600 20070600 20070608 20070608     ... ... ... ... 
20070618:	20070610 20070610 20070618 20070618     ... ... ... ... 
20070628:	20070620 20070620 20070628 20070628      ..  .. (.. (.. 
20070638:	20070630 20070630 20070638 20070638     0.. 0.. 8.. 8.. 
20070648:	20070640 20070640 20070648 20070648     @.. @.. H.. H.. 
20070658:	20070650 20070650 20070658 20070658     P.. P.. X.. X.. 
20070668:	20070660 20070660 20070668 20070668     `.. `.. h.. h.. 
20070678:	20070670 20070670 20070678 20070678     p.. p.. x.. x.. 
20070688:	20070680 20070680 20070688 20070688     ... ... ... ... 
20070698:	20070690 20070690 20070698 20070698     ... ... ... ... 
200706a8:	200706a0 200706a0 200706a8 200706a8     ... ... ... ... 
200706b8:	200706b0 200706b0 200706b8 200706b8     ... ... ... ... 
200706c8:	200706c0 200706c0 200706c8 200706c8     ... ... ... ... 
200706d8:	200706d0 200706d0 200706d8 200706d8     ... ... ... ... 
200706e8:	200706e0 200706e0 200706e8 200706e8     ... ... ... ... 
200706f8:	200706f0 200706f0 200706f8 200706f8     ... ... ... ... 
20070708:	20070700 20070700 20070708 20070708     ... ... ... ... 
20070718:	20070710 20070710 20070718 20070718     ... ... ... ... 
20070728:	20070720 20070720 20070728 20070728      ..  .. (.. (.. 
20070738:	20070730 20070730 20070738 20070738     0.. 0.. 8.. 8.. 
20070748:	20070740 20070740 20070748 20070748     @.. @.. H.. H.. 
20070758:	20070750 20070750 20070758 20070758     P.. P.. X.. X.. 
20070768:	20070760 20070760 20070768 20070768     `.. `.. h.. h.. 
20070778:	20070770 20070770 20070778 20070778     p.. p.. x.. x.. 
20070788:	20070780 20070780 20070788 20070788     ... ... ... ... 
20070798:	20070790 20070790 20070798 20070798     ... ... ... ... 
200707a8:	200707a0 200707a0 200707a8 200707a8     ... ... ... ... 
200707b8:	200707b0 200707b0 200707b8 200707b8     ... ... ... ... 
200707c8:	200707c0 200707c0 200707c8 200707c8     ... ... ... ... 
200707d8:	200707d0 200707d0 200707d8 200707d8     ... ... ... ... 
200707e8:	200707e0 200707e0 200707e8 200707e8     ... ... ... ... 
200707f8:	200707f0 200707f0 200707f8 200707f8     ... ... ... ... 
20070808:	20070800 20070800 20070808 20070808     ... ... ... ... 
20070818:	20070810 20070810 20070818 20070818     ... ... ... ... 
20070828:	20070820 20070820 20070828 20070828      ..  .. (.. (.. 
20070838:	20070830 20070830 20070838 20070838     0.. 0.. 8.. 8.. 
20070848:	20070840 20070840 20070848 20070848     @.. @.. H.. H.. 
20070858:	20070850 20070850 20070858 20070858     P.. P.. X.. X.. 
20070868:	20070860 20070860 20070868 20070868     `.. `.. h.. h.. 
20070878:	20070870 20070870 20070878 20070878     p.. p.. x.. x.. 
20070888:	20070880 20070880 20070888 20070888     ... ... ... ... 
20070898:	20070890 20070890 20070898 20070898     ... ... ... ... 
200708a8:	200708a0 200708a0 200708a8 200708a8     ... ... ... ... 
200708b8:	200708b0 200708b0 200708b8 200708b8     ... ... ... ... 
200708c8:	200708c0 200708c0 200708c8 200708c8     ... ... ... ... 
200708d8:	200708d0 200708d0 200708d8 200708d8     ... ... ... ... 
200708e8:	200708e0 200708e0 200708e8 200708e8     ... ... ... ... 
200708f8:	200708f0 200708f0 200708f8 200708f8     ... ... ... ... 
20070908:	20070900 20070900 20070908 20070908     ... ... ... ... 
20070918:	20070910 20070910 20070918 20070918     ... ... ... ... 
20070928:	20070920 20070920 20070928 20070928      ..  .. (.. (.. 
20070938:	20070930 20070930 20070938 20070938     0.. 0.. 8.. 8.. 
20070948:	20070940 20070940 20070948 20070948     @.. @.. H.. H.. 
20070958:	20070950 20070950 20070958 20070958     P.. P.. X.. X.. 

20070968 <__malloc_sbrk_base>:
20070968:	ffffffff                                ....

2007096c <__malloc_trim_threshold>:
2007096c:	00020000                                ....
