
RUthless_ECU.elf:     file format elf32-littlearm

Sections:
Idx Name          Size      VMA       LMA       File off  Algn
  0 .text         000039d4  00080000  00080000  00010000  2**2
                  CONTENTS, ALLOC, LOAD, READONLY, CODE
  1 .relocate     0000096c  20070000  000839d4  00020000  2**3
                  CONTENTS, ALLOC, LOAD, CODE
  2 .bss          00001890  2007096c  00084340  0002096c  2**2
                  ALLOC
  3 .stack        00002004  200721fc  00085bd0  0002096c  2**0
                  ALLOC
  4 .ARM.attributes 00000029  00000000  00000000  0002096c  2**0
                  CONTENTS, READONLY
  5 .comment      00000059  00000000  00000000  00020995  2**0
                  CONTENTS, READONLY
  6 .debug_info   0002372e  00000000  00000000  000209ee  2**0
                  CONTENTS, READONLY, DEBUGGING
  7 .debug_abbrev 0000379a  00000000  00000000  0004411c  2**0
                  CONTENTS, READONLY, DEBUGGING
  8 .debug_loc    000061ed  00000000  00000000  000478b6  2**0
                  CONTENTS, READONLY, DEBUGGING
  9 .debug_aranges 00000c70  00000000  00000000  0004daa3  2**0
                  CONTENTS, READONLY, DEBUGGING
 10 .debug_ranges 00000b68  00000000  00000000  0004e713  2**0
                  CONTENTS, READONLY, DEBUGGING
 11 .debug_macro  0001dd8c  00000000  00000000  0004f27b  2**0
                  CONTENTS, READONLY, DEBUGGING
 12 .debug_line   00018668  00000000  00000000  0006d007  2**0
                  CONTENTS, READONLY, DEBUGGING
 13 .debug_str    00065fd0  00000000  00000000  0008566f  2**0
                  CONTENTS, READONLY, DEBUGGING
 14 .debug_frame  00001da4  00000000  00000000  000eb640  2**2
                  CONTENTS, READONLY, DEBUGGING

Disassembly of section .text:

00080000 <_sfixed>:
   80000:	20074200 	.word	0x20074200
   80004:	00080a11 	.word	0x00080a11
   80008:	00080a0d 	.word	0x00080a0d
   8000c:	00080a0d 	.word	0x00080a0d
   80010:	00080a0d 	.word	0x00080a0d
   80014:	00080a0d 	.word	0x00080a0d
   80018:	00080a0d 	.word	0x00080a0d
	...
   8002c:	00080a0d 	.word	0x00080a0d
   80030:	00080a0d 	.word	0x00080a0d
   80034:	00000000 	.word	0x00000000
   80038:	00080a0d 	.word	0x00080a0d
   8003c:	00080a0d 	.word	0x00080a0d
   80040:	00080a0d 	.word	0x00080a0d
   80044:	00080a0d 	.word	0x00080a0d
   80048:	00080a0d 	.word	0x00080a0d
   8004c:	00080a0d 	.word	0x00080a0d
   80050:	00080a0d 	.word	0x00080a0d
   80054:	00080a0d 	.word	0x00080a0d
   80058:	00080a0d 	.word	0x00080a0d
   8005c:	00080a0d 	.word	0x00080a0d
   80060:	00082521 	.word	0x00082521
   80064:	00080a0d 	.word	0x00080a0d
   80068:	00000000 	.word	0x00000000
   8006c:	000813e9 	.word	0x000813e9
   80070:	00080a0d 	.word	0x00080a0d
   80074:	00080a0d 	.word	0x00080a0d
   80078:	00080a0d 	.word	0x00080a0d
	...
   80084:	00080a0d 	.word	0x00080a0d
   80088:	00080a0d 	.word	0x00080a0d
   8008c:	00080a0d 	.word	0x00080a0d
   80090:	00080a0d 	.word	0x00080a0d
   80094:	00080a0d 	.word	0x00080a0d
   80098:	00080a0d 	.word	0x00080a0d
   8009c:	00080a0d 	.word	0x00080a0d
   800a0:	00080a0d 	.word	0x00080a0d
   800a4:	00000000 	.word	0x00000000
   800a8:	00080a0d 	.word	0x00080a0d
   800ac:	00081b85 	.word	0x00081b85
   800b0:	00081b9d 	.word	0x00081b9d
   800b4:	00081bb5 	.word	0x00081bb5
   800b8:	00081bcd 	.word	0x00081bcd
   800bc:	00081be5 	.word	0x00081be5
   800c0:	00081bfd 	.word	0x00081bfd
   800c4:	00081c15 	.word	0x00081c15
   800c8:	00081c2d 	.word	0x00081c2d
   800cc:	00081c45 	.word	0x00081c45
   800d0:	00080a0d 	.word	0x00080a0d
   800d4:	00080d01 	.word	0x00080d01
   800d8:	00080a0d 	.word	0x00080a0d
   800dc:	00080a0d 	.word	0x00080a0d
   800e0:	00080a0d 	.word	0x00080a0d
   800e4:	00080a0d 	.word	0x00080a0d
   800e8:	00080a0d 	.word	0x00080a0d
   800ec:	00080a0d 	.word	0x00080a0d
   800f0:	00080a0d 	.word	0x00080a0d

000800f4 <__do_global_dtors_aux>:
   800f4:	b510      	push	{r4, lr}
   800f6:	4c05      	ldr	r4, [pc, #20]	; (8010c <__do_global_dtors_aux+0x18>)
   800f8:	7823      	ldrb	r3, [r4, #0]
   800fa:	b933      	cbnz	r3, 8010a <__do_global_dtors_aux+0x16>
   800fc:	4b04      	ldr	r3, [pc, #16]	; (80110 <__do_global_dtors_aux+0x1c>)
   800fe:	b113      	cbz	r3, 80106 <__do_global_dtors_aux+0x12>
   80100:	4804      	ldr	r0, [pc, #16]	; (80114 <__do_global_dtors_aux+0x20>)
   80102:	f3af 8000 	nop.w
   80106:	2301      	movs	r3, #1
   80108:	7023      	strb	r3, [r4, #0]
   8010a:	bd10      	pop	{r4, pc}
   8010c:	2007096c 	.word	0x2007096c
   80110:	00000000 	.word	0x00000000
   80114:	000839d4 	.word	0x000839d4

00080118 <frame_dummy>:
   80118:	4b08      	ldr	r3, [pc, #32]	; (8013c <frame_dummy+0x24>)
   8011a:	b510      	push	{r4, lr}
   8011c:	b11b      	cbz	r3, 80126 <frame_dummy+0xe>
   8011e:	4908      	ldr	r1, [pc, #32]	; (80140 <frame_dummy+0x28>)
   80120:	4808      	ldr	r0, [pc, #32]	; (80144 <frame_dummy+0x2c>)
   80122:	f3af 8000 	nop.w
   80126:	4808      	ldr	r0, [pc, #32]	; (80148 <frame_dummy+0x30>)
   80128:	6803      	ldr	r3, [r0, #0]
   8012a:	b903      	cbnz	r3, 8012e <frame_dummy+0x16>
   8012c:	bd10      	pop	{r4, pc}
   8012e:	4b07      	ldr	r3, [pc, #28]	; (8014c <frame_dummy+0x34>)
   80130:	2b00      	cmp	r3, #0
   80132:	d0fb      	beq.n	8012c <frame_dummy+0x14>
   80134:	e8bd 4010 	ldmia.w	sp!, {r4, lr}
   80138:	4718      	bx	r3
   8013a:	bf00      	nop
   8013c:	00000000 	.word	0x00000000
   80140:	20070970 	.word	0x20070970
   80144:	000839d4 	.word	0x000839d4
   80148:	000839d4 	.word	0x000839d4
   8014c:	00000000 	.word	0x00000000

00080150 <at24cxx_acknowledge_polling>:
 *
 * \param twi_package Pointer to TWI data package. Only the slave address is
 * used in the acknowledge polling.
 */
static void at24cxx_acknowledge_polling(twi_package_t *twi_package)
{
   80150:	e92d 47f0 	stmdb	sp!, {r4, r5, r6, r7, r8, r9, sl, lr}
   80154:	b082      	sub	sp, #8
   80156:	4604      	mov	r4, r0
	uint8_t data = 0;
   80158:	2200      	movs	r2, #0
   8015a:	ab02      	add	r3, sp, #8
   8015c:	f803 2d01 	strb.w	r2, [r3, #-1]!

	/* Store the package parameters */
	uint8_t addr = twi_package->addr[0];
   80160:	f890 a000 	ldrb.w	sl, [r0]
	uint32_t addr_length = twi_package->addr_length;
   80164:	f8d0 9004 	ldr.w	r9, [r0, #4]
	void *buffer = twi_package->buffer;
   80168:	f8d0 8008 	ldr.w	r8, [r0, #8]
	uint32_t length = twi_package->length;
   8016c:	68c7      	ldr	r7, [r0, #12]

	/* Configure the data packet to be transmitted */
	twi_package->addr[0] = 0;
   8016e:	7002      	strb	r2, [r0, #0]
	twi_package->addr_length = 0;
   80170:	6042      	str	r2, [r0, #4]
	twi_package->buffer = &data;
   80172:	6083      	str	r3, [r0, #8]
	twi_package->length = 1;
   80174:	2301      	movs	r3, #1
   80176:	60c3      	str	r3, [r0, #12]

	while (twi_master_write(BOARD_AT24C_TWI_INSTANCE, twi_package) !=
   80178:	4e08      	ldr	r6, [pc, #32]	; (8019c <at24cxx_acknowledge_polling+0x4c>)
   8017a:	4d09      	ldr	r5, [pc, #36]	; (801a0 <at24cxx_acknowledge_polling+0x50>)
   8017c:	4621      	mov	r1, r4
   8017e:	4630      	mov	r0, r6
   80180:	47a8      	blx	r5
   80182:	2800      	cmp	r0, #0
   80184:	d1fa      	bne.n	8017c <at24cxx_acknowledge_polling+0x2c>
		TWI_SUCCESS);

	/* Restore the package parameters */
	twi_package->addr[0] = addr;
   80186:	f884 a000 	strb.w	sl, [r4]
	twi_package->addr_length = addr_length;
   8018a:	f8c4 9004 	str.w	r9, [r4, #4]
	twi_package->buffer = buffer;
   8018e:	f8c4 8008 	str.w	r8, [r4, #8]
	twi_package->length = length;
   80192:	60e7      	str	r7, [r4, #12]
}
   80194:	b002      	add	sp, #8
   80196:	e8bd 87f0 	ldmia.w	sp!, {r4, r5, r6, r7, r8, r9, sl, pc}
   8019a:	bf00      	nop
   8019c:	40090000 	.word	0x40090000
   801a0:	00080985 	.word	0x00080985

000801a4 <at24cxx_write_byte>:
 *
 * \return AT24C_WRITE_SUCCESS if single byte was written, AT24C_WRITE_FAIL
 * otherwise.
 */
uint32_t at24cxx_write_byte(uint32_t u32_address, uint8_t u8_value)
{
   801a4:	b510      	push	{r4, lr}
   801a6:	b088      	sub	sp, #32
   801a8:	f88d 1007 	strb.w	r1, [sp, #7]
	twi_package_t twi_package;

	/* Configure the data packet to be transmitted */
	twi_package.chip = BOARD_AT24C_ADDRESS;
   801ac:	2350      	movs	r3, #80	; 0x50
   801ae:	f88d 301c 	strb.w	r3, [sp, #28]
	at24c_build_word_address(twi_package.addr, u32_address);
   801b2:	0a03      	lsrs	r3, r0, #8
   801b4:	f88d 300c 	strb.w	r3, [sp, #12]
   801b8:	f88d 000d 	strb.w	r0, [sp, #13]
	twi_package.addr_length = AT24C_MEM_ADDR_LEN;
   801bc:	2302      	movs	r3, #2
   801be:	9304      	str	r3, [sp, #16]
	twi_package.buffer = &u8_value;
   801c0:	f10d 0307 	add.w	r3, sp, #7
   801c4:	9305      	str	r3, [sp, #20]
	twi_package.length = 1;
   801c6:	2301      	movs	r3, #1
   801c8:	9306      	str	r3, [sp, #24]

	if (twi_master_write(BOARD_AT24C_TWI_INSTANCE, &twi_package) !=
   801ca:	a903      	add	r1, sp, #12
   801cc:	4806      	ldr	r0, [pc, #24]	; (801e8 <at24cxx_write_byte+0x44>)
   801ce:	4b07      	ldr	r3, [pc, #28]	; (801ec <at24cxx_write_byte+0x48>)
   801d0:	4798      	blx	r3
   801d2:	b920      	cbnz	r0, 801de <at24cxx_write_byte+0x3a>
   801d4:	4604      	mov	r4, r0
			TWI_SUCCESS) {
		return AT24C_WRITE_FAIL;
	}
	at24cxx_acknowledge_polling(&twi_package);
   801d6:	a803      	add	r0, sp, #12
   801d8:	4b05      	ldr	r3, [pc, #20]	; (801f0 <at24cxx_write_byte+0x4c>)
   801da:	4798      	blx	r3

	return AT24C_WRITE_SUCCESS;
   801dc:	e000      	b.n	801e0 <at24cxx_write_byte+0x3c>
	twi_package.buffer = &u8_value;
	twi_package.length = 1;

	if (twi_master_write(BOARD_AT24C_TWI_INSTANCE, &twi_package) !=
			TWI_SUCCESS) {
		return AT24C_WRITE_FAIL;
   801de:	2401      	movs	r4, #1
	}
	at24cxx_acknowledge_polling(&twi_package);

	return AT24C_WRITE_SUCCESS;
}
   801e0:	4620      	mov	r0, r4
   801e2:	b008      	add	sp, #32
   801e4:	bd10      	pop	{r4, pc}
   801e6:	bf00      	nop
   801e8:	40090000 	.word	0x40090000
   801ec:	00080985 	.word	0x00080985
   801f0:	00080151 	.word	0x00080151

000801f4 <at24cxx_read_byte>:
 * \param p_rd_byte Pointer to memory where the read byte will be stored.
 *
 * \return AT24C_READ_SUCCESS if one byte was read, AT24C_READ_FAIL otherwise.
 */
uint32_t at24cxx_read_byte(uint32_t u32_address, uint8_t *p_rd_byte)
{
   801f4:	b500      	push	{lr}
   801f6:	b087      	sub	sp, #28
	twi_package_t twi_package;

	/* Configure the data packet to be received */
	twi_package.chip = BOARD_AT24C_ADDRESS;
   801f8:	2350      	movs	r3, #80	; 0x50
   801fa:	f88d 3014 	strb.w	r3, [sp, #20]
	at24c_build_word_address(twi_package.addr, u32_address);
   801fe:	0a03      	lsrs	r3, r0, #8
   80200:	f88d 3004 	strb.w	r3, [sp, #4]
   80204:	f88d 0005 	strb.w	r0, [sp, #5]
	twi_package.addr_length = AT24C_MEM_ADDR_LEN;
   80208:	2302      	movs	r3, #2
   8020a:	9302      	str	r3, [sp, #8]
	twi_package.buffer = p_rd_byte;
   8020c:	9103      	str	r1, [sp, #12]
	twi_package.length = 1;
   8020e:	2301      	movs	r3, #1
   80210:	9304      	str	r3, [sp, #16]

	if (twi_master_read(BOARD_AT24C_TWI_INSTANCE, &twi_package) !=
   80212:	a901      	add	r1, sp, #4
   80214:	4804      	ldr	r0, [pc, #16]	; (80228 <at24cxx_read_byte+0x34>)
   80216:	4b05      	ldr	r3, [pc, #20]	; (8022c <at24cxx_read_byte+0x38>)
   80218:	4798      	blx	r3
			TWI_SUCCESS) {
		return AT24C_READ_FAIL;
	}

	return AT24C_READ_SUCCESS;
}
   8021a:	3000      	adds	r0, #0
   8021c:	bf18      	it	ne
   8021e:	2001      	movne	r0, #1
   80220:	b007      	add	sp, #28
   80222:	f85d fb04 	ldr.w	pc, [sp], #4
   80226:	bf00      	nop
   80228:	40090000 	.word	0x40090000
   8022c:	000808b1 	.word	0x000808b1

00080230 <at24cxx_read_continuous>:
 *
 * \return AT24C_READ_SUCCESS if one byte was read, AT24C_READ_FAIL otherwise.
 */
uint32_t at24cxx_read_continuous(uint32_t u32_start_address,
		uint16_t u16_length, uint8_t *p_rd_buffer)
{
   80230:	b500      	push	{lr}
   80232:	b087      	sub	sp, #28
	twi_package_t twi_package;

	/* Configure the data packet to be received */
	twi_package.chip = BOARD_AT24C_ADDRESS;
   80234:	2350      	movs	r3, #80	; 0x50
   80236:	f88d 3014 	strb.w	r3, [sp, #20]
	at24c_build_word_address(twi_package.addr, u32_start_address);
   8023a:	0a03      	lsrs	r3, r0, #8
   8023c:	f88d 3004 	strb.w	r3, [sp, #4]
   80240:	f88d 0005 	strb.w	r0, [sp, #5]
	twi_package.addr_length = AT24C_MEM_ADDR_LEN;
   80244:	2302      	movs	r3, #2
   80246:	9302      	str	r3, [sp, #8]
	twi_package.buffer = p_rd_buffer;
   80248:	9203      	str	r2, [sp, #12]
	twi_package.length = u16_length;
   8024a:	9104      	str	r1, [sp, #16]

	if (twi_master_read(BOARD_AT24C_TWI_INSTANCE, &twi_package) !=
   8024c:	a901      	add	r1, sp, #4
   8024e:	4804      	ldr	r0, [pc, #16]	; (80260 <at24cxx_read_continuous+0x30>)
   80250:	4b04      	ldr	r3, [pc, #16]	; (80264 <at24cxx_read_continuous+0x34>)
   80252:	4798      	blx	r3
			TWI_SUCCESS) {
		return AT24C_READ_FAIL;
	}

	return AT24C_READ_SUCCESS;
}
   80254:	3000      	adds	r0, #0
   80256:	bf18      	it	ne
   80258:	2001      	movne	r0, #1
   8025a:	b007      	add	sp, #28
   8025c:	f85d fb04 	ldr.w	pc, [sp], #4
   80260:	40090000 	.word	0x40090000
   80264:	000808b1 	.word	0x000808b1

00080268 <adc_init>:
 *
 * \return 0 on success.
 */
uint32_t adc_init(Adc *p_adc, const uint32_t ul_mck,
		const uint32_t ul_adc_clock, const enum adc_startup_time startup)
{
   80268:	b430      	push	{r4, r5}
	uint32_t ul_prescal;

	/*  Reset the controller. */
	p_adc->ADC_CR = ADC_CR_SWRST;
   8026a:	2401      	movs	r4, #1
   8026c:	6004      	str	r4, [r0, #0]

	/* Reset Mode Register. */
	p_adc->ADC_MR = 0;
   8026e:	2500      	movs	r5, #0
   80270:	6045      	str	r5, [r0, #4]

	/* Reset PDC transfer. */
	p_adc->ADC_PTCR = (ADC_PTCR_RXTDIS | ADC_PTCR_TXTDIS);
   80272:	f240 2402 	movw	r4, #514	; 0x202
   80276:	f8c0 4120 	str.w	r4, [r0, #288]	; 0x120
	p_adc->ADC_RCR = 0;
   8027a:	f8c0 5104 	str.w	r5, [r0, #260]	; 0x104
	p_adc->ADC_RNCR = 0;
   8027e:	f8c0 5114 	str.w	r5, [r0, #276]	; 0x114

	ul_prescal = ul_mck / (2 * ul_adc_clock) - 1;
	p_adc->ADC_MR |= ADC_MR_PRESCAL(ul_prescal) | startup;
   80282:	6844      	ldr	r4, [r0, #4]
   80284:	0052      	lsls	r2, r2, #1
   80286:	fbb1 f1f2 	udiv	r1, r1, r2
   8028a:	1e4a      	subs	r2, r1, #1
   8028c:	0212      	lsls	r2, r2, #8
   8028e:	b292      	uxth	r2, r2
   80290:	4323      	orrs	r3, r4
   80292:	431a      	orrs	r2, r3
   80294:	6042      	str	r2, [r0, #4]
	return 0;
}
   80296:	4628      	mov	r0, r5
   80298:	bc30      	pop	{r4, r5}
   8029a:	4770      	bx	lr

0008029c <adc_set_resolution>:
		p_adc->ADC_MR &= ~ADC_MR_LOWRES;
		p_adc->ADC_EMR |= resolution;
		break;
	}
#else
	p_adc->ADC_MR &= ~ADC_MR_LOWRES;
   8029c:	6843      	ldr	r3, [r0, #4]
   8029e:	f023 0310 	bic.w	r3, r3, #16
   802a2:	6043      	str	r3, [r0, #4]
	p_adc->ADC_MR |= resolution;
   802a4:	6843      	ldr	r3, [r0, #4]
   802a6:	4319      	orrs	r1, r3
   802a8:	6041      	str	r1, [r0, #4]
   802aa:	4770      	bx	lr

000802ac <adc_configure_trigger>:
 *
 */
void adc_configure_trigger(Adc *p_adc, const enum adc_trigger_t trigger,
		uint8_t uc_freerun)
{
	p_adc->ADC_MR |= trigger | ((uc_freerun << 7) & ADC_MR_FREERUN);
   802ac:	6843      	ldr	r3, [r0, #4]
   802ae:	01d2      	lsls	r2, r2, #7
   802b0:	b2d2      	uxtb	r2, r2
   802b2:	4319      	orrs	r1, r3
   802b4:	4311      	orrs	r1, r2
   802b6:	6041      	str	r1, [r0, #4]
   802b8:	4770      	bx	lr
   802ba:	bf00      	nop

000802bc <adc_configure_timing>:
 * \param uc_settling Analog settling time = (uc_settling + 1) / ADC clock.
 * \param uc_transfer Data transfer time = (uc_transfer * 2 + 3) / ADC clock.
 */
void adc_configure_timing(Adc *p_adc, const uint8_t uc_tracking,
		const enum adc_settling_time_t settling,const uint8_t uc_transfer)
{
   802bc:	b410      	push	{r4}
	p_adc->ADC_MR |= ADC_MR_TRANSFER(uc_transfer)
   802be:	6844      	ldr	r4, [r0, #4]
   802c0:	0609      	lsls	r1, r1, #24
   802c2:	f001 6170 	and.w	r1, r1, #251658240	; 0xf000000
   802c6:	4322      	orrs	r2, r4
   802c8:	430a      	orrs	r2, r1
   802ca:	071b      	lsls	r3, r3, #28
   802cc:	f003 5340 	and.w	r3, r3, #805306368	; 0x30000000
   802d0:	4313      	orrs	r3, r2
   802d2:	6043      	str	r3, [r0, #4]
			| settling | ADC_MR_TRACKTIM(uc_tracking);
}
   802d4:	bc10      	pop	{r4}
   802d6:	4770      	bx	lr

000802d8 <adc_start>:
 * \param p_adc Pointer to an ADC instance.
 */

void adc_start(Adc *p_adc)
{
	p_adc->ADC_CR = ADC_CR_START;
   802d8:	2302      	movs	r3, #2
   802da:	6003      	str	r3, [r0, #0]
   802dc:	4770      	bx	lr
   802de:	bf00      	nop

000802e0 <adc_enable_channel>:
 * \param p_adc Pointer to an ADC instance.
 * \param adc_ch ADC channel number.
 */
void adc_enable_channel(Adc *p_adc, const enum adc_channel_num_t adc_ch)
{
	p_adc->ADC_CHER = 1 << adc_ch;
   802e0:	2301      	movs	r3, #1
   802e2:	fa03 f101 	lsl.w	r1, r3, r1
   802e6:	6101      	str	r1, [r0, #16]
   802e8:	4770      	bx	lr
   802ea:	bf00      	nop

000802ec <adc_enable_tag>:
 *
 * \param p_adc Pointer to an ADC instance.
 */
void adc_enable_tag(Adc *p_adc)
{
	p_adc->ADC_EMR |= ADC_EMR_TAG;
   802ec:	6c03      	ldr	r3, [r0, #64]	; 0x40
   802ee:	f043 7380 	orr.w	r3, r3, #16777216	; 0x1000000
   802f2:	6403      	str	r3, [r0, #64]	; 0x40
   802f4:	4770      	bx	lr
   802f6:	bf00      	nop

000802f8 <adc_enable_interrupt>:
 * \param p_adc Pointer to an ADC instance.
 * \param ul_source Interrupts to be enabled.
 */
void adc_enable_interrupt(Adc *p_adc, const uint32_t ul_source)
{
	p_adc->ADC_IER = ul_source;
   802f8:	6241      	str	r1, [r0, #36]	; 0x24
   802fa:	4770      	bx	lr

000802fc <sysclk_init>:
	pmc_disable_udpck();
}
#endif // CONFIG_USBCLK_SOURCE

void sysclk_init(void)
{
   802fc:	b510      	push	{r4, lr}
	struct pll_config pllcfg;

	/* Set flash wait state to max in case the below clock switching. */
	system_init_flash(CHIP_FREQ_CPU_MAX);
   802fe:	480e      	ldr	r0, [pc, #56]	; (80338 <sysclk_init+0x3c>)
   80300:	4b0e      	ldr	r3, [pc, #56]	; (8033c <sysclk_init+0x40>)
   80302:	4798      	blx	r3
		pmc_switch_mainck_to_fastrc(CKGR_MOR_MOSCRCF_12_MHz);
		break;


	case OSC_MAINCK_XTAL:
		pmc_switch_mainck_to_xtal(PMC_OSC_XTAL,
   80304:	213e      	movs	r1, #62	; 0x3e
   80306:	2000      	movs	r0, #0
   80308:	4b0d      	ldr	r3, [pc, #52]	; (80340 <sysclk_init+0x44>)
   8030a:	4798      	blx	r3
	case OSC_MAINCK_4M_RC:
	case OSC_MAINCK_8M_RC:
	case OSC_MAINCK_12M_RC:
	case OSC_MAINCK_XTAL:
	case OSC_MAINCK_BYPASS:
		return pmc_osc_is_ready_mainck();
   8030c:	4c0d      	ldr	r4, [pc, #52]	; (80344 <sysclk_init+0x48>)
   8030e:	47a0      	blx	r4
 *
 * \param id A number identifying the oscillator to wait for.
 */
static inline void osc_wait_ready(uint8_t id)
{
	while (!osc_is_ready(id)) {
   80310:	2800      	cmp	r0, #0
   80312:	d0fc      	beq.n	8030e <sysclk_init+0x12>
static inline void pll_enable(const struct pll_config *p_cfg, uint32_t ul_pll_id)
{
	Assert(ul_pll_id < NR_PLLS);

	if (ul_pll_id == PLLA_ID) {
		pmc_disable_pllack(); // Always stop PLL first!
   80314:	4b0c      	ldr	r3, [pc, #48]	; (80348 <sysclk_init+0x4c>)
   80316:	4798      	blx	r3
		PMC->CKGR_PLLAR = CKGR_PLLAR_ONE | p_cfg->ctrl;
   80318:	4a0c      	ldr	r2, [pc, #48]	; (8034c <sysclk_init+0x50>)
   8031a:	4b0d      	ldr	r3, [pc, #52]	; (80350 <sysclk_init+0x54>)
   8031c:	629a      	str	r2, [r3, #40]	; 0x28
static inline uint32_t pll_is_locked(uint32_t ul_pll_id)
{
	Assert(ul_pll_id < NR_PLLS);

	if (ul_pll_id == PLLA_ID) {
		return pmc_is_locked_pllack();
   8031e:	4c0d      	ldr	r4, [pc, #52]	; (80354 <sysclk_init+0x58>)
   80320:	47a0      	blx	r4
 */
static inline int pll_wait_for_lock(unsigned int pll_id)
{
	Assert(pll_id < NR_PLLS);

	while (!pll_is_locked(pll_id)) {
   80322:	2800      	cmp	r0, #0
   80324:	d0fc      	beq.n	80320 <sysclk_init+0x24>
	else if (CONFIG_SYSCLK_SOURCE == SYSCLK_SRC_PLLACK) {
		pll_enable_source(CONFIG_PLL0_SOURCE);
		pll_config_defaults(&pllcfg, 0);
		pll_enable(&pllcfg, 0);
		pll_wait_for_lock(0);
		pmc_switch_mck_to_pllack(CONFIG_SYSCLK_PRES);
   80326:	2010      	movs	r0, #16
   80328:	4b0b      	ldr	r3, [pc, #44]	; (80358 <sysclk_init+0x5c>)
   8032a:	4798      	blx	r3
		pll_wait_for_lock(1);
		pmc_switch_mck_to_upllck(CONFIG_SYSCLK_PRES);
	}

	/* Update the SystemFrequency variable */
	SystemCoreClockUpdate();
   8032c:	4b0b      	ldr	r3, [pc, #44]	; (8035c <sysclk_init+0x60>)
   8032e:	4798      	blx	r3

	/* Set a flash wait state depending on the new cpu frequency */
	system_init_flash(sysclk_get_cpu_hz());
   80330:	4801      	ldr	r0, [pc, #4]	; (80338 <sysclk_init+0x3c>)
   80332:	4b02      	ldr	r3, [pc, #8]	; (8033c <sysclk_init+0x40>)
   80334:	4798      	blx	r3
   80336:	bd10      	pop	{r4, pc}
   80338:	0501bd00 	.word	0x0501bd00
   8033c:	200700a5 	.word	0x200700a5
   80340:	00080681 	.word	0x00080681
   80344:	000806d5 	.word	0x000806d5
   80348:	000806e5 	.word	0x000806e5
   8034c:	200d3f01 	.word	0x200d3f01
   80350:	400e0600 	.word	0x400e0600
   80354:	000806f5 	.word	0x000806f5
   80358:	00080619 	.word	0x00080619
   8035c:	00080abd 	.word	0x00080abd

00080360 <board_init>:
#include "conf_board.h"
#include "gpio.h"
#include "ioport.h"

void board_init(void)
{
   80360:	b510      	push	{r4, lr}
#ifndef CONF_BOARD_KEEP_WATCHDOG_AT_INIT
	/* Disable the watchdog */
	WDT->WDT_MR = WDT_MR_WDDIS;
   80362:	f44f 4200 	mov.w	r2, #32768	; 0x8000
   80366:	4b16      	ldr	r3, [pc, #88]	; (803c0 <board_init+0x60>)
   80368:	605a      	str	r2, [r3, #4]
 *
 * \param ul_id Id (number) of the peripheral clock.
 */
static inline void sysclk_enable_peripheral_clock(uint32_t ul_id)
{
	pmc_enable_periph_clk(ul_id);
   8036a:	200b      	movs	r0, #11
   8036c:	4c15      	ldr	r4, [pc, #84]	; (803c4 <board_init+0x64>)
   8036e:	47a0      	blx	r4
   80370:	200c      	movs	r0, #12
   80372:	47a0      	blx	r4
   80374:	200d      	movs	r0, #13
   80376:	47a0      	blx	r4
   80378:	200e      	movs	r0, #14
   8037a:	47a0      	blx	r4
	 * In new designs IOPORT is used instead.
	 * Here IOPORT must be initialized for others to use before setting up IO.
	 */
	ioport_init();
	/* Configure LED pins */
	gpio_configure_pin(LED0_GPIO, LED0_FLAGS);
   8037c:	f04f 5160 	mov.w	r1, #939524096	; 0x38000000
   80380:	203b      	movs	r0, #59	; 0x3b
   80382:	4c11      	ldr	r4, [pc, #68]	; (803c8 <board_init+0x68>)
   80384:	47a0      	blx	r4
	gpio_configure_pin(LED1_GPIO, LED1_FLAGS);
   80386:	f04f 5160 	mov.w	r1, #939524096	; 0x38000000
   8038a:	2055      	movs	r0, #85	; 0x55
   8038c:	47a0      	blx	r4
	gpio_configure_pin(LED2_GPIO, LED2_FLAGS);
   8038e:	f04f 5160 	mov.w	r1, #939524096	; 0x38000000
   80392:	2056      	movs	r0, #86	; 0x56
   80394:	47a0      	blx	r4

	/* Configure Push Button pins */
	gpio_configure_pin(GPIO_PUSH_BUTTON_1, GPIO_PUSH_BUTTON_1_FLAGS);
   80396:	490d      	ldr	r1, [pc, #52]	; (803cc <board_init+0x6c>)
   80398:	2068      	movs	r0, #104	; 0x68
   8039a:	47a0      	blx	r4
	gpio_configure_pin(GPIO_PUSH_BUTTON_2, GPIO_PUSH_BUTTON_2_FLAGS);
   8039c:	490c      	ldr	r1, [pc, #48]	; (803d0 <board_init+0x70>)
   8039e:	205c      	movs	r0, #92	; 0x5c
   803a0:	47a0      	blx	r4

#ifdef CONF_BOARD_UART_CONSOLE
	/* Configure UART pins */
	gpio_configure_group(PINS_UART_PIO, PINS_UART, PINS_UART_FLAGS);
   803a2:	4a0c      	ldr	r2, [pc, #48]	; (803d4 <board_init+0x74>)
   803a4:	f44f 7140 	mov.w	r1, #768	; 0x300
   803a8:	480b      	ldr	r0, [pc, #44]	; (803d8 <board_init+0x78>)
   803aa:	4b0c      	ldr	r3, [pc, #48]	; (803dc <board_init+0x7c>)
   803ac:	4798      	blx	r3
	gpio_configure_pin(PIN_USART0_TXD_IDX, PIN_USART0_TXD_FLAGS);
#endif

#ifdef CONF_BOARD_USB_PORT
	/* Configure USB_ID (UOTGID) pin */
	gpio_configure_pin(USB_ID_GPIO, USB_ID_FLAGS);
   803ae:	f04f 6100 	mov.w	r1, #134217728	; 0x8000000
   803b2:	202b      	movs	r0, #43	; 0x2b
   803b4:	47a0      	blx	r4
	/* Configure USB_VBOF (UOTGVBOF) pin */
	gpio_configure_pin(USB_VBOF_GPIO, USB_VBOF_FLAGS);
   803b6:	f04f 6100 	mov.w	r1, #134217728	; 0x8000000
   803ba:	202a      	movs	r0, #42	; 0x2a
   803bc:	47a0      	blx	r4
   803be:	bd10      	pop	{r4, pc}
   803c0:	400e1a50 	.word	0x400e1a50
   803c4:	00080705 	.word	0x00080705
   803c8:	000804a5 	.word	0x000804a5
   803cc:	28000079 	.word	0x28000079
   803d0:	28000001 	.word	0x28000001
   803d4:	08000001 	.word	0x08000001
   803d8:	400e0e00 	.word	0x400e0e00
   803dc:	00080579 	.word	0x00080579

000803e0 <pdc_tx_init>:
		pdc_packet_t *p_next_packet)
{
	/* Validate inputs. */
	Assert(p_pdc);
	
	if (p_packet) {
   803e0:	460b      	mov	r3, r1
   803e2:	b119      	cbz	r1, 803ec <pdc_tx_init+0xc>
		p_pdc->PERIPH_TPR = p_packet->ul_addr;
   803e4:	6809      	ldr	r1, [r1, #0]
   803e6:	6081      	str	r1, [r0, #8]
		p_pdc->PERIPH_TCR = p_packet->ul_size;
   803e8:	685b      	ldr	r3, [r3, #4]
   803ea:	60c3      	str	r3, [r0, #12]
	}
	if (p_next_packet) {
   803ec:	b11a      	cbz	r2, 803f6 <pdc_tx_init+0x16>
		p_pdc->PERIPH_TNPR = p_next_packet->ul_addr;
   803ee:	6813      	ldr	r3, [r2, #0]
   803f0:	6183      	str	r3, [r0, #24]
		p_pdc->PERIPH_TNCR = p_next_packet->ul_size;
   803f2:	6853      	ldr	r3, [r2, #4]
   803f4:	61c3      	str	r3, [r0, #28]
   803f6:	4770      	bx	lr

000803f8 <pdc_enable_transfer>:
{
	/* Validate inputs. */
	Assert(p_pdc);
	
	p_pdc->PERIPH_PTCR =
			ul_controls & (PERIPH_PTCR_RXTEN | PERIPH_PTCR_TXTEN);
   803f8:	f021 01fe 	bic.w	r1, r1, #254	; 0xfe
   803fc:	05c9      	lsls	r1, r1, #23
   803fe:	0dc9      	lsrs	r1, r1, #23
		uint32_t ul_controls)
{
	/* Validate inputs. */
	Assert(p_pdc);
	
	p_pdc->PERIPH_PTCR =
   80400:	6201      	str	r1, [r0, #32]
   80402:	4770      	bx	lr

00080404 <pio_clear>:
 * \param p_pio Pointer to a PIO instance.
 * \param ul_mask Bitmask of one or more pin(s) to configure.
 */
void pio_clear(Pio *p_pio, const uint32_t ul_mask)
{
	p_pio->PIO_CODR = ul_mask;
   80404:	6341      	str	r1, [r0, #52]	; 0x34
   80406:	4770      	bx	lr

00080408 <pio_set_peripheral>:
		const uint32_t ul_mask)
{
	uint32_t ul_sr;

	/* Disable interrupts on the pin(s) */
	p_pio->PIO_IDR = ul_mask;
   80408:	6442      	str	r2, [r0, #68]	; 0x44
	case PIO_OUTPUT_1:
	case PIO_NOT_A_PIN:
		return;
	}
#elif (SAM3XA|| SAM3U)
	switch (ul_type) {
   8040a:	f1b1 5f80 	cmp.w	r1, #268435456	; 0x10000000
   8040e:	d016      	beq.n	8043e <pio_set_peripheral+0x36>
   80410:	d804      	bhi.n	8041c <pio_set_peripheral+0x14>
   80412:	b1c1      	cbz	r1, 80446 <pio_set_peripheral+0x3e>
   80414:	f1b1 6f00 	cmp.w	r1, #134217728	; 0x8000000
   80418:	d00a      	beq.n	80430 <pio_set_peripheral+0x28>
   8041a:	e013      	b.n	80444 <pio_set_peripheral+0x3c>
   8041c:	f1b1 5f40 	cmp.w	r1, #805306368	; 0x30000000
   80420:	d011      	beq.n	80446 <pio_set_peripheral+0x3e>
   80422:	f1b1 5f60 	cmp.w	r1, #939524096	; 0x38000000
   80426:	d00e      	beq.n	80446 <pio_set_peripheral+0x3e>
   80428:	f1b1 5f20 	cmp.w	r1, #671088640	; 0x28000000
   8042c:	d10a      	bne.n	80444 <pio_set_peripheral+0x3c>
   8042e:	4770      	bx	lr
	case PIO_PERIPH_A:
		ul_sr = p_pio->PIO_ABSR;
   80430:	6f01      	ldr	r1, [r0, #112]	; 0x70
		p_pio->PIO_ABSR &= (~ul_mask & ul_sr);
   80432:	6f03      	ldr	r3, [r0, #112]	; 0x70
   80434:	400b      	ands	r3, r1
   80436:	ea23 0302 	bic.w	r3, r3, r2
   8043a:	6703      	str	r3, [r0, #112]	; 0x70
		break;
   8043c:	e002      	b.n	80444 <pio_set_peripheral+0x3c>

	case PIO_PERIPH_B:
		ul_sr = p_pio->PIO_ABSR;
   8043e:	6f03      	ldr	r3, [r0, #112]	; 0x70
		p_pio->PIO_ABSR = (ul_mask | ul_sr);
   80440:	4313      	orrs	r3, r2
   80442:	6703      	str	r3, [r0, #112]	; 0x70
#else
#error "Unsupported device"
#endif

	/* Remove the pins from under the control of PIO */
	p_pio->PIO_PDR = ul_mask;
   80444:	6042      	str	r2, [r0, #4]
   80446:	4770      	bx	lr

00080448 <pio_set_input>:
 * \param p_pio Pointer to a PIO instance.
 * \param ul_mask Interrupt sources bit map.
 */
void pio_disable_interrupt(Pio *p_pio, const uint32_t ul_mask)
{
	p_pio->PIO_IDR = ul_mask;
   80448:	6441      	str	r1, [r0, #68]	; 0x44
 */
void pio_pull_up(Pio *p_pio, const uint32_t ul_mask,
		const uint32_t ul_pull_up_enable)
{
	/* Enable the pull-up(s) if necessary */
	if (ul_pull_up_enable) {
   8044a:	f012 0f01 	tst.w	r2, #1
		p_pio->PIO_PUER = ul_mask;
   8044e:	bf14      	ite	ne
   80450:	6641      	strne	r1, [r0, #100]	; 0x64
	} else {
		p_pio->PIO_PUDR = ul_mask;
   80452:	6601      	streq	r1, [r0, #96]	; 0x60
{
	pio_disable_interrupt(p_pio, ul_mask);
	pio_pull_up(p_pio, ul_mask, ul_attribute & PIO_PULLUP);

	/* Enable Input Filter if necessary */
	if (ul_attribute & (PIO_DEGLITCH | PIO_DEBOUNCE)) {
   80454:	f012 0f0a 	tst.w	r2, #10
		p_pio->PIO_IFER = ul_mask;
   80458:	bf14      	ite	ne
   8045a:	6201      	strne	r1, [r0, #32]
	} else {
		p_pio->PIO_IFDR = ul_mask;
   8045c:	6241      	streq	r1, [r0, #36]	; 0x24
			p_pio->PIO_IFSCER = ul_mask;
		}
	}
#elif (SAM3XA|| SAM3U)
	/* Enable de-glitch or de-bounce if necessary */
	if (ul_attribute & PIO_DEGLITCH) {
   8045e:	f012 0f02 	tst.w	r2, #2
   80462:	d002      	beq.n	8046a <pio_set_input+0x22>
		p_pio->PIO_SCIFSR = ul_mask;
   80464:	f8c0 1080 	str.w	r1, [r0, #128]	; 0x80
   80468:	e004      	b.n	80474 <pio_set_input+0x2c>
	} else {
		if (ul_attribute & PIO_DEBOUNCE) {
   8046a:	f012 0f08 	tst.w	r2, #8
			p_pio->PIO_DIFSR = ul_mask;
   8046e:	bf18      	it	ne
   80470:	f8c0 1084 	strne.w	r1, [r0, #132]	; 0x84
#else
#error "Unsupported device"
#endif

	/* Configure pin as input */
	p_pio->PIO_ODR = ul_mask;
   80474:	6141      	str	r1, [r0, #20]
	p_pio->PIO_PER = ul_mask;
   80476:	6001      	str	r1, [r0, #0]
   80478:	4770      	bx	lr
   8047a:	bf00      	nop

0008047c <pio_set_output>:
 */
void pio_set_output(Pio *p_pio, const uint32_t ul_mask,
		const uint32_t ul_default_level,
		const uint32_t ul_multidrive_enable,
		const uint32_t ul_pull_up_enable)
{
   8047c:	b410      	push	{r4}
 * \param p_pio Pointer to a PIO instance.
 * \param ul_mask Interrupt sources bit map.
 */
void pio_disable_interrupt(Pio *p_pio, const uint32_t ul_mask)
{
	p_pio->PIO_IDR = ul_mask;
   8047e:	6441      	str	r1, [r0, #68]	; 0x44
 */
void pio_pull_up(Pio *p_pio, const uint32_t ul_mask,
		const uint32_t ul_pull_up_enable)
{
	/* Enable the pull-up(s) if necessary */
	if (ul_pull_up_enable) {
   80480:	9c01      	ldr	r4, [sp, #4]
   80482:	b10c      	cbz	r4, 80488 <pio_set_output+0xc>
		p_pio->PIO_PUER = ul_mask;
   80484:	6641      	str	r1, [r0, #100]	; 0x64
   80486:	e000      	b.n	8048a <pio_set_output+0xe>
	} else {
		p_pio->PIO_PUDR = ul_mask;
   80488:	6601      	str	r1, [r0, #96]	; 0x60
{
	pio_disable_interrupt(p_pio, ul_mask);
	pio_pull_up(p_pio, ul_mask, ul_pull_up_enable);

	/* Enable multi-drive if necessary */
	if (ul_multidrive_enable) {
   8048a:	b10b      	cbz	r3, 80490 <pio_set_output+0x14>
		p_pio->PIO_MDER = ul_mask;
   8048c:	6501      	str	r1, [r0, #80]	; 0x50
   8048e:	e000      	b.n	80492 <pio_set_output+0x16>
	} else {
		p_pio->PIO_MDDR = ul_mask;
   80490:	6541      	str	r1, [r0, #84]	; 0x54
	}

	/* Set default value */
	if (ul_default_level) {
   80492:	b10a      	cbz	r2, 80498 <pio_set_output+0x1c>
		p_pio->PIO_SODR = ul_mask;
   80494:	6301      	str	r1, [r0, #48]	; 0x30
   80496:	e000      	b.n	8049a <pio_set_output+0x1e>
	} else {
		p_pio->PIO_CODR = ul_mask;
   80498:	6341      	str	r1, [r0, #52]	; 0x34
	}

	/* Configure pin(s) as output(s) */
	p_pio->PIO_OER = ul_mask;
   8049a:	6101      	str	r1, [r0, #16]
	p_pio->PIO_PER = ul_mask;
   8049c:	6001      	str	r1, [r0, #0]
}
   8049e:	bc10      	pop	{r4}
   804a0:	4770      	bx	lr
   804a2:	bf00      	nop

000804a4 <pio_configure_pin>:
 * \param ul_flags Pins attributes.
 *
 * \return Whether the pin(s) have been configured properly.
 */
uint32_t pio_configure_pin(uint32_t ul_pin, const uint32_t ul_flags)
{
   804a4:	b570      	push	{r4, r5, r6, lr}
   804a6:	b082      	sub	sp, #8
   804a8:	460d      	mov	r5, r1
		p_pio = PIOC;
	} else {
		p_pio = (Pio *)((uint32_t)PIOA + (PIO_DELTA * (ul_pin >> 5)));
	}
#else
	p_pio = (Pio *)((uint32_t)PIOA + (PIO_DELTA * (ul_pin >> 5)));
   804aa:	0943      	lsrs	r3, r0, #5
   804ac:	f503 1300 	add.w	r3, r3, #2097152	; 0x200000
   804b0:	f203 7307 	addw	r3, r3, #1799	; 0x707
   804b4:	025c      	lsls	r4, r3, #9
 */
uint32_t pio_configure_pin(uint32_t ul_pin, const uint32_t ul_flags)
{
	Pio *p_pio = pio_get_pin_group(ul_pin);
	/* Configure pins */
	switch (ul_flags & PIO_TYPE_Msk) {
   804b6:	f001 43f0 	and.w	r3, r1, #2013265920	; 0x78000000
   804ba:	f1b3 5f20 	cmp.w	r3, #671088640	; 0x28000000
   804be:	d030      	beq.n	80522 <pio_configure_pin+0x7e>
   804c0:	d806      	bhi.n	804d0 <pio_configure_pin+0x2c>
   804c2:	f1b3 6f00 	cmp.w	r3, #134217728	; 0x8000000
   804c6:	d00a      	beq.n	804de <pio_configure_pin+0x3a>
   804c8:	f1b3 5f80 	cmp.w	r3, #268435456	; 0x10000000
   804cc:	d018      	beq.n	80500 <pio_configure_pin+0x5c>
   804ce:	e049      	b.n	80564 <pio_configure_pin+0xc0>
   804d0:	f1b3 5f40 	cmp.w	r3, #805306368	; 0x30000000
   804d4:	d030      	beq.n	80538 <pio_configure_pin+0x94>
   804d6:	f1b3 5f60 	cmp.w	r3, #939524096	; 0x38000000
   804da:	d02d      	beq.n	80538 <pio_configure_pin+0x94>
   804dc:	e042      	b.n	80564 <pio_configure_pin+0xc0>
	case PIO_TYPE_PIO_PERIPH_A:
		pio_set_peripheral(p_pio, PIO_PERIPH_A, (1 << (ul_pin & 0x1F)));
   804de:	f000 001f 	and.w	r0, r0, #31
   804e2:	2601      	movs	r6, #1
   804e4:	4086      	lsls	r6, r0
   804e6:	4632      	mov	r2, r6
   804e8:	f04f 6100 	mov.w	r1, #134217728	; 0x8000000
   804ec:	4620      	mov	r0, r4
   804ee:	4b1f      	ldr	r3, [pc, #124]	; (8056c <pio_configure_pin+0xc8>)
   804f0:	4798      	blx	r3
 */
void pio_pull_up(Pio *p_pio, const uint32_t ul_mask,
		const uint32_t ul_pull_up_enable)
{
	/* Enable the pull-up(s) if necessary */
	if (ul_pull_up_enable) {
   804f2:	f015 0f01 	tst.w	r5, #1
		p_pio->PIO_PUER = ul_mask;
   804f6:	bf14      	ite	ne
   804f8:	6666      	strne	r6, [r4, #100]	; 0x64
	} else {
		p_pio->PIO_PUDR = ul_mask;
   804fa:	6626      	streq	r6, [r4, #96]	; 0x60

	default:
		return 0;
	}

	return 1;
   804fc:	2001      	movs	r0, #1
   804fe:	e032      	b.n	80566 <pio_configure_pin+0xc2>
		pio_set_peripheral(p_pio, PIO_PERIPH_A, (1 << (ul_pin & 0x1F)));
		pio_pull_up(p_pio, (1 << (ul_pin & 0x1F)),
				(ul_flags & PIO_PULLUP));
		break;
	case PIO_TYPE_PIO_PERIPH_B:
		pio_set_peripheral(p_pio, PIO_PERIPH_B, (1 << (ul_pin & 0x1F)));
   80500:	f000 001f 	and.w	r0, r0, #31
   80504:	2601      	movs	r6, #1
   80506:	4086      	lsls	r6, r0
   80508:	4632      	mov	r2, r6
   8050a:	f04f 5180 	mov.w	r1, #268435456	; 0x10000000
   8050e:	4620      	mov	r0, r4
   80510:	4b16      	ldr	r3, [pc, #88]	; (8056c <pio_configure_pin+0xc8>)
   80512:	4798      	blx	r3
 */
void pio_pull_up(Pio *p_pio, const uint32_t ul_mask,
		const uint32_t ul_pull_up_enable)
{
	/* Enable the pull-up(s) if necessary */
	if (ul_pull_up_enable) {
   80514:	f015 0f01 	tst.w	r5, #1
		p_pio->PIO_PUER = ul_mask;
   80518:	bf14      	ite	ne
   8051a:	6666      	strne	r6, [r4, #100]	; 0x64
	} else {
		p_pio->PIO_PUDR = ul_mask;
   8051c:	6626      	streq	r6, [r4, #96]	; 0x60

	default:
		return 0;
	}

	return 1;
   8051e:	2001      	movs	r0, #1
   80520:	e021      	b.n	80566 <pio_configure_pin+0xc2>
				(ul_flags & PIO_PULLUP));
		break;
#endif

	case PIO_TYPE_PIO_INPUT:
		pio_set_input(p_pio, (1 << (ul_pin & 0x1F)), ul_flags);
   80522:	f000 011f 	and.w	r1, r0, #31
   80526:	2601      	movs	r6, #1
   80528:	462a      	mov	r2, r5
   8052a:	fa06 f101 	lsl.w	r1, r6, r1
   8052e:	4620      	mov	r0, r4
   80530:	4b0f      	ldr	r3, [pc, #60]	; (80570 <pio_configure_pin+0xcc>)
   80532:	4798      	blx	r3

	default:
		return 0;
	}

	return 1;
   80534:	4630      	mov	r0, r6
		break;
#endif

	case PIO_TYPE_PIO_INPUT:
		pio_set_input(p_pio, (1 << (ul_pin & 0x1F)), ul_flags);
		break;
   80536:	e016      	b.n	80566 <pio_configure_pin+0xc2>

	case PIO_TYPE_PIO_OUTPUT_0:
	case PIO_TYPE_PIO_OUTPUT_1:
		pio_set_output(p_pio, (1 << (ul_pin & 0x1F)),
   80538:	f005 5260 	and.w	r2, r5, #939524096	; 0x38000000
   8053c:	f000 011f 	and.w	r1, r0, #31
   80540:	2601      	movs	r6, #1
   80542:	ea05 0306 	and.w	r3, r5, r6
   80546:	9300      	str	r3, [sp, #0]
   80548:	f3c5 0380 	ubfx	r3, r5, #2, #1
   8054c:	f1b2 5f60 	cmp.w	r2, #939524096	; 0x38000000
   80550:	bf14      	ite	ne
   80552:	2200      	movne	r2, #0
   80554:	2201      	moveq	r2, #1
   80556:	fa06 f101 	lsl.w	r1, r6, r1
   8055a:	4620      	mov	r0, r4
   8055c:	4c05      	ldr	r4, [pc, #20]	; (80574 <pio_configure_pin+0xd0>)
   8055e:	47a0      	blx	r4

	default:
		return 0;
	}

	return 1;
   80560:	4630      	mov	r0, r6
		pio_set_output(p_pio, (1 << (ul_pin & 0x1F)),
				((ul_flags & PIO_TYPE_PIO_OUTPUT_1)
				== PIO_TYPE_PIO_OUTPUT_1) ? 1 : 0,
				(ul_flags & PIO_OPENDRAIN) ? 1 : 0,
				(ul_flags & PIO_PULLUP) ? 1 : 0);
		break;
   80562:	e000      	b.n	80566 <pio_configure_pin+0xc2>

	default:
		return 0;
   80564:	2000      	movs	r0, #0
	}

	return 1;
}
   80566:	b002      	add	sp, #8
   80568:	bd70      	pop	{r4, r5, r6, pc}
   8056a:	bf00      	nop
   8056c:	00080409 	.word	0x00080409
   80570:	00080449 	.word	0x00080449
   80574:	0008047d 	.word	0x0008047d

00080578 <pio_configure_pin_group>:
 *
 * \return Whether the pin(s) have been configured properly.
 */
uint32_t pio_configure_pin_group(Pio *p_pio,
		uint32_t ul_mask, const uint32_t ul_flags)
{
   80578:	b570      	push	{r4, r5, r6, lr}
   8057a:	b082      	sub	sp, #8
   8057c:	4605      	mov	r5, r0
   8057e:	460e      	mov	r6, r1
   80580:	4614      	mov	r4, r2
	/* Configure pins */
	switch (ul_flags & PIO_TYPE_Msk) {
   80582:	f002 43f0 	and.w	r3, r2, #2013265920	; 0x78000000
   80586:	f1b3 5f20 	cmp.w	r3, #671088640	; 0x28000000
   8058a:	d026      	beq.n	805da <pio_configure_pin_group+0x62>
   8058c:	d806      	bhi.n	8059c <pio_configure_pin_group+0x24>
   8058e:	f1b3 6f00 	cmp.w	r3, #134217728	; 0x8000000
   80592:	d00a      	beq.n	805aa <pio_configure_pin_group+0x32>
   80594:	f1b3 5f80 	cmp.w	r3, #268435456	; 0x10000000
   80598:	d013      	beq.n	805c2 <pio_configure_pin_group+0x4a>
   8059a:	e034      	b.n	80606 <pio_configure_pin_group+0x8e>
   8059c:	f1b3 5f40 	cmp.w	r3, #805306368	; 0x30000000
   805a0:	d01f      	beq.n	805e2 <pio_configure_pin_group+0x6a>
   805a2:	f1b3 5f60 	cmp.w	r3, #939524096	; 0x38000000
   805a6:	d01c      	beq.n	805e2 <pio_configure_pin_group+0x6a>
   805a8:	e02d      	b.n	80606 <pio_configure_pin_group+0x8e>
	case PIO_TYPE_PIO_PERIPH_A:
		pio_set_peripheral(p_pio, PIO_PERIPH_A, ul_mask);
   805aa:	460a      	mov	r2, r1
   805ac:	f04f 6100 	mov.w	r1, #134217728	; 0x8000000
   805b0:	4b16      	ldr	r3, [pc, #88]	; (8060c <pio_configure_pin_group+0x94>)
   805b2:	4798      	blx	r3
 */
void pio_pull_up(Pio *p_pio, const uint32_t ul_mask,
		const uint32_t ul_pull_up_enable)
{
	/* Enable the pull-up(s) if necessary */
	if (ul_pull_up_enable) {
   805b4:	f014 0f01 	tst.w	r4, #1
		p_pio->PIO_PUER = ul_mask;
   805b8:	bf14      	ite	ne
   805ba:	666e      	strne	r6, [r5, #100]	; 0x64
	} else {
		p_pio->PIO_PUDR = ul_mask;
   805bc:	662e      	streq	r6, [r5, #96]	; 0x60

	default:
		return 0;
	}

	return 1;
   805be:	2001      	movs	r0, #1
   805c0:	e022      	b.n	80608 <pio_configure_pin_group+0x90>
	case PIO_TYPE_PIO_PERIPH_A:
		pio_set_peripheral(p_pio, PIO_PERIPH_A, ul_mask);
		pio_pull_up(p_pio, ul_mask, (ul_flags & PIO_PULLUP));
		break;
	case PIO_TYPE_PIO_PERIPH_B:
		pio_set_peripheral(p_pio, PIO_PERIPH_B, ul_mask);
   805c2:	460a      	mov	r2, r1
   805c4:	f04f 5180 	mov.w	r1, #268435456	; 0x10000000
   805c8:	4b10      	ldr	r3, [pc, #64]	; (8060c <pio_configure_pin_group+0x94>)
   805ca:	4798      	blx	r3
 */
void pio_pull_up(Pio *p_pio, const uint32_t ul_mask,
		const uint32_t ul_pull_up_enable)
{
	/* Enable the pull-up(s) if necessary */
	if (ul_pull_up_enable) {
   805cc:	f014 0f01 	tst.w	r4, #1
		p_pio->PIO_PUER = ul_mask;
   805d0:	bf14      	ite	ne
   805d2:	666e      	strne	r6, [r5, #100]	; 0x64
	} else {
		p_pio->PIO_PUDR = ul_mask;
   805d4:	662e      	streq	r6, [r5, #96]	; 0x60

	default:
		return 0;
	}

	return 1;
   805d6:	2001      	movs	r0, #1
   805d8:	e016      	b.n	80608 <pio_configure_pin_group+0x90>
		pio_pull_up(p_pio, ul_mask, (ul_flags & PIO_PULLUP));
		break;
#endif

	case PIO_TYPE_PIO_INPUT:
		pio_set_input(p_pio, ul_mask, ul_flags);
   805da:	4b0d      	ldr	r3, [pc, #52]	; (80610 <pio_configure_pin_group+0x98>)
   805dc:	4798      	blx	r3

	default:
		return 0;
	}

	return 1;
   805de:	2001      	movs	r0, #1
		break;
#endif

	case PIO_TYPE_PIO_INPUT:
		pio_set_input(p_pio, ul_mask, ul_flags);
		break;
   805e0:	e012      	b.n	80608 <pio_configure_pin_group+0x90>

	case PIO_TYPE_PIO_OUTPUT_0:
	case PIO_TYPE_PIO_OUTPUT_1:
		pio_set_output(p_pio, ul_mask,
   805e2:	f004 5260 	and.w	r2, r4, #939524096	; 0x38000000
   805e6:	f004 0301 	and.w	r3, r4, #1
   805ea:	9300      	str	r3, [sp, #0]
   805ec:	f3c4 0380 	ubfx	r3, r4, #2, #1
   805f0:	f1b2 5f60 	cmp.w	r2, #939524096	; 0x38000000
   805f4:	bf14      	ite	ne
   805f6:	2200      	movne	r2, #0
   805f8:	2201      	moveq	r2, #1
   805fa:	4631      	mov	r1, r6
   805fc:	4628      	mov	r0, r5
   805fe:	4c05      	ldr	r4, [pc, #20]	; (80614 <pio_configure_pin_group+0x9c>)
   80600:	47a0      	blx	r4

	default:
		return 0;
	}

	return 1;
   80602:	2001      	movs	r0, #1
		pio_set_output(p_pio, ul_mask,
				((ul_flags & PIO_TYPE_PIO_OUTPUT_1)
				== PIO_TYPE_PIO_OUTPUT_1) ? 1 : 0,
				(ul_flags & PIO_OPENDRAIN) ? 1 : 0,
				(ul_flags & PIO_PULLUP) ? 1 : 0);
		break;
   80604:	e000      	b.n	80608 <pio_configure_pin_group+0x90>

	default:
		return 0;
   80606:	2000      	movs	r0, #0
	}

	return 1;
}
   80608:	b002      	add	sp, #8
   8060a:	bd70      	pop	{r4, r5, r6, pc}
   8060c:	00080409 	.word	0x00080409
   80610:	00080449 	.word	0x00080449
   80614:	0008047d 	.word	0x0008047d

00080618 <pmc_switch_mck_to_pllack>:
 */
uint32_t pmc_switch_mck_to_pllack(uint32_t ul_pres)
{
	uint32_t ul_timeout;

	PMC->PMC_MCKR = (PMC->PMC_MCKR & (~PMC_MCKR_PRES_Msk)) | ul_pres;
   80618:	4a18      	ldr	r2, [pc, #96]	; (8067c <pmc_switch_mck_to_pllack+0x64>)
   8061a:	6b13      	ldr	r3, [r2, #48]	; 0x30
   8061c:	f023 0370 	bic.w	r3, r3, #112	; 0x70
   80620:	4318      	orrs	r0, r3
   80622:	6310      	str	r0, [r2, #48]	; 0x30
	for (ul_timeout = PMC_TIMEOUT; !(PMC->PMC_SR & PMC_SR_MCKRDY);
   80624:	6e93      	ldr	r3, [r2, #104]	; 0x68
   80626:	f013 0f08 	tst.w	r3, #8
   8062a:	d003      	beq.n	80634 <pmc_switch_mck_to_pllack+0x1c>
   8062c:	e009      	b.n	80642 <pmc_switch_mck_to_pllack+0x2a>
			--ul_timeout) {
		if (ul_timeout == 0) {
   8062e:	3b01      	subs	r3, #1
   80630:	d103      	bne.n	8063a <pmc_switch_mck_to_pllack+0x22>
   80632:	e01e      	b.n	80672 <pmc_switch_mck_to_pllack+0x5a>
uint32_t pmc_switch_mck_to_pllack(uint32_t ul_pres)
{
	uint32_t ul_timeout;

	PMC->PMC_MCKR = (PMC->PMC_MCKR & (~PMC_MCKR_PRES_Msk)) | ul_pres;
	for (ul_timeout = PMC_TIMEOUT; !(PMC->PMC_SR & PMC_SR_MCKRDY);
   80634:	f44f 6300 	mov.w	r3, #2048	; 0x800
   80638:	4910      	ldr	r1, [pc, #64]	; (8067c <pmc_switch_mck_to_pllack+0x64>)
   8063a:	6e8a      	ldr	r2, [r1, #104]	; 0x68
   8063c:	f012 0f08 	tst.w	r2, #8
   80640:	d0f5      	beq.n	8062e <pmc_switch_mck_to_pllack+0x16>
		if (ul_timeout == 0) {
			return 1;
		}
	}

	PMC->PMC_MCKR = (PMC->PMC_MCKR & (~PMC_MCKR_CSS_Msk)) |
   80642:	4a0e      	ldr	r2, [pc, #56]	; (8067c <pmc_switch_mck_to_pllack+0x64>)
   80644:	6b13      	ldr	r3, [r2, #48]	; 0x30
   80646:	f023 0303 	bic.w	r3, r3, #3
   8064a:	f043 0302 	orr.w	r3, r3, #2
   8064e:	6313      	str	r3, [r2, #48]	; 0x30
			PMC_MCKR_CSS_PLLA_CLK;

	for (ul_timeout = PMC_TIMEOUT; !(PMC->PMC_SR & PMC_SR_MCKRDY);
   80650:	6e90      	ldr	r0, [r2, #104]	; 0x68
   80652:	f010 0008 	ands.w	r0, r0, #8
   80656:	d004      	beq.n	80662 <pmc_switch_mck_to_pllack+0x4a>
		if (ul_timeout == 0) {
			return 1;
		}
	}

	return 0;
   80658:	2000      	movs	r0, #0
   8065a:	4770      	bx	lr
	PMC->PMC_MCKR = (PMC->PMC_MCKR & (~PMC_MCKR_CSS_Msk)) |
			PMC_MCKR_CSS_PLLA_CLK;

	for (ul_timeout = PMC_TIMEOUT; !(PMC->PMC_SR & PMC_SR_MCKRDY);
			--ul_timeout) {
		if (ul_timeout == 0) {
   8065c:	3b01      	subs	r3, #1
   8065e:	d103      	bne.n	80668 <pmc_switch_mck_to_pllack+0x50>
   80660:	e009      	b.n	80676 <pmc_switch_mck_to_pllack+0x5e>
	}

	PMC->PMC_MCKR = (PMC->PMC_MCKR & (~PMC_MCKR_CSS_Msk)) |
			PMC_MCKR_CSS_PLLA_CLK;

	for (ul_timeout = PMC_TIMEOUT; !(PMC->PMC_SR & PMC_SR_MCKRDY);
   80662:	f44f 6300 	mov.w	r3, #2048	; 0x800
   80666:	4905      	ldr	r1, [pc, #20]	; (8067c <pmc_switch_mck_to_pllack+0x64>)
   80668:	6e8a      	ldr	r2, [r1, #104]	; 0x68
   8066a:	f012 0f08 	tst.w	r2, #8
   8066e:	d0f5      	beq.n	8065c <pmc_switch_mck_to_pllack+0x44>
   80670:	4770      	bx	lr

	PMC->PMC_MCKR = (PMC->PMC_MCKR & (~PMC_MCKR_PRES_Msk)) | ul_pres;
	for (ul_timeout = PMC_TIMEOUT; !(PMC->PMC_SR & PMC_SR_MCKRDY);
			--ul_timeout) {
		if (ul_timeout == 0) {
			return 1;
   80672:	2001      	movs	r0, #1
   80674:	4770      	bx	lr
			PMC_MCKR_CSS_PLLA_CLK;

	for (ul_timeout = PMC_TIMEOUT; !(PMC->PMC_SR & PMC_SR_MCKRDY);
			--ul_timeout) {
		if (ul_timeout == 0) {
			return 1;
   80676:	2001      	movs	r0, #1
		}
	}

	return 0;
}
   80678:	4770      	bx	lr
   8067a:	bf00      	nop
   8067c:	400e0600 	.word	0x400e0600

00080680 <pmc_switch_mainck_to_xtal>:
 */
void pmc_switch_mainck_to_xtal(uint32_t ul_bypass,
		uint32_t ul_xtal_startup_time)
{
	/* Enable Main Xtal oscillator */
	if (ul_bypass) {
   80680:	b138      	cbz	r0, 80692 <pmc_switch_mainck_to_xtal+0x12>
		PMC->CKGR_MOR = (PMC->CKGR_MOR & ~CKGR_MOR_MOSCXTEN) |
   80682:	4911      	ldr	r1, [pc, #68]	; (806c8 <pmc_switch_mainck_to_xtal+0x48>)
   80684:	6a0b      	ldr	r3, [r1, #32]
				CKGR_MOR_KEY_PASSWD | CKGR_MOR_MOSCXTBY |
   80686:	4a11      	ldr	r2, [pc, #68]	; (806cc <pmc_switch_mainck_to_xtal+0x4c>)
   80688:	401a      	ands	r2, r3
   8068a:	4b11      	ldr	r3, [pc, #68]	; (806d0 <pmc_switch_mainck_to_xtal+0x50>)
   8068c:	4313      	orrs	r3, r2
void pmc_switch_mainck_to_xtal(uint32_t ul_bypass,
		uint32_t ul_xtal_startup_time)
{
	/* Enable Main Xtal oscillator */
	if (ul_bypass) {
		PMC->CKGR_MOR = (PMC->CKGR_MOR & ~CKGR_MOR_MOSCXTEN) |
   8068e:	620b      	str	r3, [r1, #32]
   80690:	4770      	bx	lr
				CKGR_MOR_KEY_PASSWD | CKGR_MOR_MOSCXTBY |
				CKGR_MOR_MOSCSEL;
	} else {
		PMC->CKGR_MOR = (PMC->CKGR_MOR & ~CKGR_MOR_MOSCXTBY) |
   80692:	480d      	ldr	r0, [pc, #52]	; (806c8 <pmc_switch_mainck_to_xtal+0x48>)
   80694:	6a02      	ldr	r2, [r0, #32]
				CKGR_MOR_KEY_PASSWD | CKGR_MOR_MOSCXTEN |
   80696:	0209      	lsls	r1, r1, #8
   80698:	b289      	uxth	r1, r1
   8069a:	f422 135c 	bic.w	r3, r2, #3604480	; 0x370000
   8069e:	f023 0303 	bic.w	r3, r3, #3
   806a2:	f443 135c 	orr.w	r3, r3, #3604480	; 0x370000
   806a6:	f043 0301 	orr.w	r3, r3, #1
   806aa:	430b      	orrs	r3, r1
	if (ul_bypass) {
		PMC->CKGR_MOR = (PMC->CKGR_MOR & ~CKGR_MOR_MOSCXTEN) |
				CKGR_MOR_KEY_PASSWD | CKGR_MOR_MOSCXTBY |
				CKGR_MOR_MOSCSEL;
	} else {
		PMC->CKGR_MOR = (PMC->CKGR_MOR & ~CKGR_MOR_MOSCXTBY) |
   806ac:	6203      	str	r3, [r0, #32]
				CKGR_MOR_KEY_PASSWD | CKGR_MOR_MOSCXTEN |
				CKGR_MOR_MOSCXTST(ul_xtal_startup_time);
		/* Wait the Xtal to stabilize */
		while (!(PMC->PMC_SR & PMC_SR_MOSCXTS));
   806ae:	4602      	mov	r2, r0
   806b0:	6e93      	ldr	r3, [r2, #104]	; 0x68
   806b2:	f013 0f01 	tst.w	r3, #1
   806b6:	d0fb      	beq.n	806b0 <pmc_switch_mainck_to_xtal+0x30>

		PMC->CKGR_MOR |= CKGR_MOR_KEY_PASSWD | CKGR_MOR_MOSCSEL;
   806b8:	4a03      	ldr	r2, [pc, #12]	; (806c8 <pmc_switch_mainck_to_xtal+0x48>)
   806ba:	6a13      	ldr	r3, [r2, #32]
   806bc:	f043 739b 	orr.w	r3, r3, #20316160	; 0x1360000
   806c0:	f443 3380 	orr.w	r3, r3, #65536	; 0x10000
   806c4:	6213      	str	r3, [r2, #32]
   806c6:	4770      	bx	lr
   806c8:	400e0600 	.word	0x400e0600
   806cc:	fec8fffc 	.word	0xfec8fffc
   806d0:	01370002 	.word	0x01370002

000806d4 <pmc_osc_is_ready_mainck>:
 * \retval 1 Xtal is ready.
 * \retval 0 Xtal is not ready.
 */
uint32_t pmc_osc_is_ready_mainck(void)
{
	return PMC->PMC_SR & PMC_SR_MOSCSELS;
   806d4:	4b02      	ldr	r3, [pc, #8]	; (806e0 <pmc_osc_is_ready_mainck+0xc>)
   806d6:	6e98      	ldr	r0, [r3, #104]	; 0x68
}
   806d8:	f400 3080 	and.w	r0, r0, #65536	; 0x10000
   806dc:	4770      	bx	lr
   806de:	bf00      	nop
   806e0:	400e0600 	.word	0x400e0600

000806e4 <pmc_disable_pllack>:
void pmc_disable_pllack(void)
{
#if (SAM4C || SAM4CM || SAM4CP || SAMG)
	PMC->CKGR_PLLAR = CKGR_PLLAR_MULA(0);
#else
	PMC->CKGR_PLLAR = CKGR_PLLAR_ONE | CKGR_PLLAR_MULA(0);
   806e4:	f04f 5200 	mov.w	r2, #536870912	; 0x20000000
   806e8:	4b01      	ldr	r3, [pc, #4]	; (806f0 <pmc_disable_pllack+0xc>)
   806ea:	629a      	str	r2, [r3, #40]	; 0x28
   806ec:	4770      	bx	lr
   806ee:	bf00      	nop
   806f0:	400e0600 	.word	0x400e0600

000806f4 <pmc_is_locked_pllack>:
 * \retval 0 Not locked.
 * \retval 1 Locked.
 */
uint32_t pmc_is_locked_pllack(void)
{
	return (PMC->PMC_SR & PMC_SR_LOCKA);
   806f4:	4b02      	ldr	r3, [pc, #8]	; (80700 <pmc_is_locked_pllack+0xc>)
   806f6:	6e98      	ldr	r0, [r3, #104]	; 0x68
}
   806f8:	f000 0002 	and.w	r0, r0, #2
   806fc:	4770      	bx	lr
   806fe:	bf00      	nop
   80700:	400e0600 	.word	0x400e0600

00080704 <pmc_enable_periph_clk>:
 * \retval 0 Success.
 * \retval 1 Invalid parameter.
 */
uint32_t pmc_enable_periph_clk(uint32_t ul_id)
{
	if (ul_id > MAX_PERIPH_ID) {
   80704:	282c      	cmp	r0, #44	; 0x2c
   80706:	d81e      	bhi.n	80746 <pmc_enable_periph_clk+0x42>
		return 1;
	}

	if (ul_id < 32) {
   80708:	281f      	cmp	r0, #31
   8070a:	d80c      	bhi.n	80726 <pmc_enable_periph_clk+0x22>
		if ((PMC->PMC_PCSR0 & (1u << ul_id)) != (1u << ul_id)) {
   8070c:	4b11      	ldr	r3, [pc, #68]	; (80754 <pmc_enable_periph_clk+0x50>)
   8070e:	699a      	ldr	r2, [r3, #24]
   80710:	2301      	movs	r3, #1
   80712:	4083      	lsls	r3, r0
   80714:	4393      	bics	r3, r2
   80716:	d018      	beq.n	8074a <pmc_enable_periph_clk+0x46>
			PMC->PMC_PCER0 = 1 << ul_id;
   80718:	2301      	movs	r3, #1
   8071a:	fa03 f000 	lsl.w	r0, r3, r0
   8071e:	4b0d      	ldr	r3, [pc, #52]	; (80754 <pmc_enable_periph_clk+0x50>)
   80720:	6118      	str	r0, [r3, #16]
			PMC->PMC_PCER1 = 1 << ul_id;
		}
#endif
	}

	return 0;
   80722:	2000      	movs	r0, #0
   80724:	4770      	bx	lr
		if ((PMC->PMC_PCSR0 & (1u << ul_id)) != (1u << ul_id)) {
			PMC->PMC_PCER0 = 1 << ul_id;
		}
#if (SAM3S || SAM3XA || SAM4S || SAM4E || SAM4C || SAM4CM || SAM4CP || SAMG55 || SAMV71 || SAMV70 || SAME70 || SAMS70)
	} else {
		ul_id -= 32;
   80726:	3820      	subs	r0, #32
		if ((PMC->PMC_PCSR1 & (1u << ul_id)) != (1u << ul_id)) {
   80728:	4b0a      	ldr	r3, [pc, #40]	; (80754 <pmc_enable_periph_clk+0x50>)
   8072a:	f8d3 2108 	ldr.w	r2, [r3, #264]	; 0x108
   8072e:	2301      	movs	r3, #1
   80730:	4083      	lsls	r3, r0
   80732:	4393      	bics	r3, r2
   80734:	d00b      	beq.n	8074e <pmc_enable_periph_clk+0x4a>
			PMC->PMC_PCER1 = 1 << ul_id;
   80736:	2301      	movs	r3, #1
   80738:	fa03 f000 	lsl.w	r0, r3, r0
   8073c:	4b05      	ldr	r3, [pc, #20]	; (80754 <pmc_enable_periph_clk+0x50>)
   8073e:	f8c3 0100 	str.w	r0, [r3, #256]	; 0x100
		}
#endif
	}

	return 0;
   80742:	2000      	movs	r0, #0
   80744:	4770      	bx	lr
 * \retval 1 Invalid parameter.
 */
uint32_t pmc_enable_periph_clk(uint32_t ul_id)
{
	if (ul_id > MAX_PERIPH_ID) {
		return 1;
   80746:	2001      	movs	r0, #1
   80748:	4770      	bx	lr
			PMC->PMC_PCER1 = 1 << ul_id;
		}
#endif
	}

	return 0;
   8074a:	2000      	movs	r0, #0
   8074c:	4770      	bx	lr
   8074e:	2000      	movs	r0, #0
}
   80750:	4770      	bx	lr
   80752:	bf00      	nop
   80754:	400e0600 	.word	0x400e0600

00080758 <tc_init>:
 */
void tc_init(
		Tc *p_tc,
		uint32_t ul_channel,
		uint32_t ul_mode)
{
   80758:	b410      	push	{r4}

	/* Validate inputs. */
	Assert(p_tc);
	Assert(ul_channel <
			(sizeof(p_tc->TC_CHANNEL) / sizeof(p_tc->TC_CHANNEL[0])));
	tc_channel = p_tc->TC_CHANNEL + ul_channel;
   8075a:	0189      	lsls	r1, r1, #6
   8075c:	1843      	adds	r3, r0, r1

	/*  Disable TC clock. */
	tc_channel->TC_CCR = TC_CCR_CLKDIS;
   8075e:	2402      	movs	r4, #2
   80760:	5044      	str	r4, [r0, r1]

	/*  Disable interrupts. */
	tc_channel->TC_IDR = 0xFFFFFFFF;
   80762:	f04f 31ff 	mov.w	r1, #4294967295
   80766:	6299      	str	r1, [r3, #40]	; 0x28

	/*  Clear status register. */
	tc_channel->TC_SR;
   80768:	6a19      	ldr	r1, [r3, #32]

	/*  Set mode. */
	tc_channel->TC_CMR = ul_mode;
   8076a:	605a      	str	r2, [r3, #4]
}
   8076c:	bc10      	pop	{r4}
   8076e:	4770      	bx	lr

00080770 <tc_start>:
	/* Validate inputs. */
	Assert(p_tc);
	Assert(ul_channel <
			(sizeof(p_tc->TC_CHANNEL) / sizeof(p_tc->TC_CHANNEL[0])));

	p_tc->TC_CHANNEL[ul_channel].TC_CCR = TC_CCR_CLKEN | TC_CCR_SWTRG;
   80770:	0189      	lsls	r1, r1, #6
   80772:	2305      	movs	r3, #5
   80774:	5043      	str	r3, [r0, r1]
   80776:	4770      	bx	lr

00080778 <tc_write_ra>:
	/* Validate inputs. */
	Assert(p_tc);
	Assert(ul_channel <
			(sizeof(p_tc->TC_CHANNEL) / sizeof(p_tc->TC_CHANNEL[0])));

	p_tc->TC_CHANNEL[ul_channel].TC_RA = ul_value;
   80778:	eb00 1181 	add.w	r1, r0, r1, lsl #6
   8077c:	614a      	str	r2, [r1, #20]
   8077e:	4770      	bx	lr

00080780 <tc_write_rc>:
	/* Validate inputs. */
	Assert(p_tc);
	Assert(ul_channel <
			(sizeof(p_tc->TC_CHANNEL) / sizeof(p_tc->TC_CHANNEL[0])));

	p_tc->TC_CHANNEL[ul_channel].TC_RC = ul_value;
   80780:	eb00 1181 	add.w	r1, r0, r1, lsl #6
   80784:	61ca      	str	r2, [r1, #28]
   80786:	4770      	bx	lr

00080788 <tc_enable_interrupt>:

	/* Validate inputs. */
	Assert(p_tc);
	Assert(ul_channel <
			(sizeof(p_tc->TC_CHANNEL) / sizeof(p_tc->TC_CHANNEL[0])));
	tc_channel = p_tc->TC_CHANNEL + ul_channel;
   80788:	eb00 1181 	add.w	r1, r0, r1, lsl #6
	tc_channel->TC_IER = ul_sources;
   8078c:	624a      	str	r2, [r1, #36]	; 0x24
   8078e:	4770      	bx	lr

00080790 <twi_set_speed>:
{
	uint32_t ckdiv = 0;
	uint32_t c_lh_div;
	uint32_t cldiv, chdiv;

	if (ul_speed > I2C_FAST_MODE_SPEED) {
   80790:	4b2b      	ldr	r3, [pc, #172]	; (80840 <twi_set_speed+0xb0>)
   80792:	4299      	cmp	r1, r3
   80794:	d849      	bhi.n	8082a <twi_set_speed+0x9a>
		return FAIL;
	}

	/* Low level time not less than 1.3us of I2C Fast Mode. */
	if (ul_speed > LOW_LEVEL_TIME_LIMIT) {
   80796:	f5a3 537a 	sub.w	r3, r3, #16000	; 0x3e80
   8079a:	4299      	cmp	r1, r3
   8079c:	d92b      	bls.n	807f6 <twi_set_speed+0x66>
 *
 * \retval PASS New speed setting is accepted.
 * \retval FAIL New speed setting is rejected.
 */
uint32_t twi_set_speed(Twi *p_twi, uint32_t ul_speed, uint32_t ul_mck)
{
   8079e:	b410      	push	{r4}
	}

	/* Low level time not less than 1.3us of I2C Fast Mode. */
	if (ul_speed > LOW_LEVEL_TIME_LIMIT) {
		/* Low level of time fixed for 1.3us. */
		cldiv = ul_mck / (LOW_LEVEL_TIME_LIMIT * TWI_CLK_DIVIDER) - TWI_CLK_CALC_ARGU;
   807a0:	4c28      	ldr	r4, [pc, #160]	; (80844 <twi_set_speed+0xb4>)
   807a2:	fba4 3402 	umull	r3, r4, r4, r2
   807a6:	0ba4      	lsrs	r4, r4, #14
   807a8:	3c04      	subs	r4, #4
		chdiv = ul_mck / ((ul_speed + (ul_speed - LOW_LEVEL_TIME_LIMIT)) * TWI_CLK_DIVIDER) - TWI_CLK_CALC_ARGU;
   807aa:	4b27      	ldr	r3, [pc, #156]	; (80848 <twi_set_speed+0xb8>)
   807ac:	440b      	add	r3, r1
   807ae:	009b      	lsls	r3, r3, #2
   807b0:	fbb2 f2f3 	udiv	r2, r2, r3
   807b4:	3a04      	subs	r2, #4
		
		/* cldiv must fit in 8 bits, ckdiv must fit in 3 bits */
		while ((cldiv > TWI_CLK_DIV_MAX) && (ckdiv < TWI_CLK_DIV_MIN)) {
   807b6:	2cff      	cmp	r4, #255	; 0xff
   807b8:	d939      	bls.n	8082e <twi_set_speed+0x9e>
   807ba:	2300      	movs	r3, #0
			/* Increase clock divider */
			ckdiv++;
   807bc:	3301      	adds	r3, #1
			/* Divide cldiv value */
			cldiv /= TWI_CLK_DIVIDER;
   807be:	0864      	lsrs	r4, r4, #1
		/* Low level of time fixed for 1.3us. */
		cldiv = ul_mck / (LOW_LEVEL_TIME_LIMIT * TWI_CLK_DIVIDER) - TWI_CLK_CALC_ARGU;
		chdiv = ul_mck / ((ul_speed + (ul_speed - LOW_LEVEL_TIME_LIMIT)) * TWI_CLK_DIVIDER) - TWI_CLK_CALC_ARGU;
		
		/* cldiv must fit in 8 bits, ckdiv must fit in 3 bits */
		while ((cldiv > TWI_CLK_DIV_MAX) && (ckdiv < TWI_CLK_DIV_MIN)) {
   807c0:	2cff      	cmp	r4, #255	; 0xff
   807c2:	d902      	bls.n	807ca <twi_set_speed+0x3a>
   807c4:	2b07      	cmp	r3, #7
   807c6:	d1f9      	bne.n	807bc <twi_set_speed+0x2c>
   807c8:	e00a      	b.n	807e0 <twi_set_speed+0x50>
			ckdiv++;
			/* Divide cldiv value */
			cldiv /= TWI_CLK_DIVIDER;
		}
		/* chdiv must fit in 8 bits, ckdiv must fit in 3 bits */
		while ((chdiv > TWI_CLK_DIV_MAX) && (ckdiv < TWI_CLK_DIV_MIN)) {
   807ca:	2aff      	cmp	r2, #255	; 0xff
   807cc:	d908      	bls.n	807e0 <twi_set_speed+0x50>
   807ce:	2b06      	cmp	r3, #6
   807d0:	d900      	bls.n	807d4 <twi_set_speed+0x44>
   807d2:	e005      	b.n	807e0 <twi_set_speed+0x50>
			/* Increase clock divider */
			ckdiv++;
   807d4:	3301      	adds	r3, #1
			/* Divide cldiv value */
			chdiv /= TWI_CLK_DIVIDER;
   807d6:	0852      	lsrs	r2, r2, #1
			ckdiv++;
			/* Divide cldiv value */
			cldiv /= TWI_CLK_DIVIDER;
		}
		/* chdiv must fit in 8 bits, ckdiv must fit in 3 bits */
		while ((chdiv > TWI_CLK_DIV_MAX) && (ckdiv < TWI_CLK_DIV_MIN)) {
   807d8:	2aff      	cmp	r2, #255	; 0xff
   807da:	d901      	bls.n	807e0 <twi_set_speed+0x50>
   807dc:	2b06      	cmp	r3, #6
   807de:	d9f9      	bls.n	807d4 <twi_set_speed+0x44>
			chdiv /= TWI_CLK_DIVIDER;
		}

		/* set clock waveform generator register */
		p_twi->TWI_CWGR =
				TWI_CWGR_CLDIV(cldiv) | TWI_CWGR_CHDIV(chdiv) |
   807e0:	0212      	lsls	r2, r2, #8
   807e2:	b292      	uxth	r2, r2
   807e4:	041b      	lsls	r3, r3, #16
   807e6:	f403 23e0 	and.w	r3, r3, #458752	; 0x70000
   807ea:	431a      	orrs	r2, r3
   807ec:	b2e4      	uxtb	r4, r4
   807ee:	4322      	orrs	r2, r4
			/* Divide cldiv value */
			chdiv /= TWI_CLK_DIVIDER;
		}

		/* set clock waveform generator register */
		p_twi->TWI_CWGR =
   807f0:	6102      	str	r2, [r0, #16]
		p_twi->TWI_CWGR =
				TWI_CWGR_CLDIV(c_lh_div) | TWI_CWGR_CHDIV(c_lh_div) |
				TWI_CWGR_CKDIV(ckdiv);
	}

	return PASS;
   807f2:	2000      	movs	r0, #0
   807f4:	e021      	b.n	8083a <twi_set_speed+0xaa>
		/* set clock waveform generator register */
		p_twi->TWI_CWGR =
				TWI_CWGR_CLDIV(cldiv) | TWI_CWGR_CHDIV(chdiv) |
				TWI_CWGR_CKDIV(ckdiv);		
	} else {
		c_lh_div = ul_mck / (ul_speed * TWI_CLK_DIVIDER) - TWI_CLK_CALC_ARGU;
   807f6:	0049      	lsls	r1, r1, #1
   807f8:	fbb2 f2f1 	udiv	r2, r2, r1
   807fc:	3a04      	subs	r2, #4

		/* cldiv must fit in 8 bits, ckdiv must fit in 3 bits */
		while ((c_lh_div > TWI_CLK_DIV_MAX) && (ckdiv < TWI_CLK_DIV_MIN)) {
   807fe:	2aff      	cmp	r2, #255	; 0xff
   80800:	d907      	bls.n	80812 <twi_set_speed+0x82>
   80802:	2300      	movs	r3, #0
			/* Increase clock divider */
			ckdiv++;
   80804:	3301      	adds	r3, #1
			/* Divide cldiv value */
			c_lh_div /= TWI_CLK_DIVIDER;
   80806:	0852      	lsrs	r2, r2, #1
				TWI_CWGR_CKDIV(ckdiv);		
	} else {
		c_lh_div = ul_mck / (ul_speed * TWI_CLK_DIVIDER) - TWI_CLK_CALC_ARGU;

		/* cldiv must fit in 8 bits, ckdiv must fit in 3 bits */
		while ((c_lh_div > TWI_CLK_DIV_MAX) && (ckdiv < TWI_CLK_DIV_MIN)) {
   80808:	2aff      	cmp	r2, #255	; 0xff
   8080a:	d903      	bls.n	80814 <twi_set_speed+0x84>
   8080c:	2b07      	cmp	r3, #7
   8080e:	d1f9      	bne.n	80804 <twi_set_speed+0x74>
   80810:	e000      	b.n	80814 <twi_set_speed+0x84>
 * \retval PASS New speed setting is accepted.
 * \retval FAIL New speed setting is rejected.
 */
uint32_t twi_set_speed(Twi *p_twi, uint32_t ul_speed, uint32_t ul_mck)
{
	uint32_t ckdiv = 0;
   80812:	2300      	movs	r3, #0
			c_lh_div /= TWI_CLK_DIVIDER;
		}

		/* set clock waveform generator register */
		p_twi->TWI_CWGR =
				TWI_CWGR_CLDIV(c_lh_div) | TWI_CWGR_CHDIV(c_lh_div) |
   80814:	0211      	lsls	r1, r2, #8
   80816:	b289      	uxth	r1, r1
   80818:	041b      	lsls	r3, r3, #16
   8081a:	f403 23e0 	and.w	r3, r3, #458752	; 0x70000
   8081e:	430b      	orrs	r3, r1
   80820:	b2d2      	uxtb	r2, r2
   80822:	431a      	orrs	r2, r3
			/* Divide cldiv value */
			c_lh_div /= TWI_CLK_DIVIDER;
		}

		/* set clock waveform generator register */
		p_twi->TWI_CWGR =
   80824:	6102      	str	r2, [r0, #16]
				TWI_CWGR_CLDIV(c_lh_div) | TWI_CWGR_CHDIV(c_lh_div) |
				TWI_CWGR_CKDIV(ckdiv);
	}

	return PASS;
   80826:	2000      	movs	r0, #0
}
   80828:	4770      	bx	lr
	uint32_t ckdiv = 0;
	uint32_t c_lh_div;
	uint32_t cldiv, chdiv;

	if (ul_speed > I2C_FAST_MODE_SPEED) {
		return FAIL;
   8082a:	2001      	movs	r0, #1
   8082c:	4770      	bx	lr
			ckdiv++;
			/* Divide cldiv value */
			cldiv /= TWI_CLK_DIVIDER;
		}
		/* chdiv must fit in 8 bits, ckdiv must fit in 3 bits */
		while ((chdiv > TWI_CLK_DIV_MAX) && (ckdiv < TWI_CLK_DIV_MIN)) {
   8082e:	2aff      	cmp	r2, #255	; 0xff
 * \retval PASS New speed setting is accepted.
 * \retval FAIL New speed setting is rejected.
 */
uint32_t twi_set_speed(Twi *p_twi, uint32_t ul_speed, uint32_t ul_mck)
{
	uint32_t ckdiv = 0;
   80830:	bf88      	it	hi
   80832:	2300      	movhi	r3, #0
			ckdiv++;
			/* Divide cldiv value */
			cldiv /= TWI_CLK_DIVIDER;
		}
		/* chdiv must fit in 8 bits, ckdiv must fit in 3 bits */
		while ((chdiv > TWI_CLK_DIV_MAX) && (ckdiv < TWI_CLK_DIV_MIN)) {
   80834:	d8ce      	bhi.n	807d4 <twi_set_speed+0x44>
 * \retval PASS New speed setting is accepted.
 * \retval FAIL New speed setting is rejected.
 */
uint32_t twi_set_speed(Twi *p_twi, uint32_t ul_speed, uint32_t ul_mck)
{
	uint32_t ckdiv = 0;
   80836:	2300      	movs	r3, #0
   80838:	e7d2      	b.n	807e0 <twi_set_speed+0x50>
				TWI_CWGR_CLDIV(c_lh_div) | TWI_CWGR_CHDIV(c_lh_div) |
				TWI_CWGR_CKDIV(ckdiv);
	}

	return PASS;
}
   8083a:	bc10      	pop	{r4}
   8083c:	4770      	bx	lr
   8083e:	bf00      	nop
   80840:	00061a80 	.word	0x00061a80
   80844:	057619f1 	.word	0x057619f1
   80848:	3ffd1200 	.word	0x3ffd1200

0008084c <twi_master_init>:
 * \param p_opt Options for initializing the TWI module (see \ref twi_options_t).
 *
 * \return TWI_SUCCESS if initialization is complete, error code otherwise.
 */
uint32_t twi_master_init(Twi *p_twi, const twi_options_t *p_opt)
{
   8084c:	b538      	push	{r3, r4, r5, lr}
   8084e:	4604      	mov	r4, r0
   80850:	460d      	mov	r5, r1
	uint32_t status = TWI_SUCCESS;

	/* Disable TWI interrupts */
	p_twi->TWI_IDR = ~0UL;
   80852:	f04f 33ff 	mov.w	r3, #4294967295
   80856:	6283      	str	r3, [r0, #40]	; 0x28

	/* Dummy read in status register */
	p_twi->TWI_SR;
   80858:	6a03      	ldr	r3, [r0, #32]
 * \param p_twi Pointer to a TWI instance.
 */
void twi_reset(Twi *p_twi)
{
	/* Set SWRST bit to reset TWI peripheral */
	p_twi->TWI_CR = TWI_CR_SWRST;
   8085a:	2380      	movs	r3, #128	; 0x80
   8085c:	6003      	str	r3, [r0, #0]
	p_twi->TWI_RHR;
   8085e:	6b03      	ldr	r3, [r0, #48]	; 0x30
 * \param p_twi Pointer to a TWI instance.
 */
void twi_enable_master_mode(Twi *p_twi)
{
	/* Set Master Disable bit and Slave Disable bit */
	p_twi->TWI_CR = TWI_CR_MSDIS;
   80860:	2308      	movs	r3, #8
   80862:	6003      	str	r3, [r0, #0]
	p_twi->TWI_CR = TWI_CR_SVDIS;
   80864:	2320      	movs	r3, #32
   80866:	6003      	str	r3, [r0, #0]

	/* Set Master Enable bit */
	p_twi->TWI_CR = TWI_CR_MSEN;
   80868:	2304      	movs	r3, #4
   8086a:	6003      	str	r3, [r0, #0]
	twi_reset(p_twi);

	twi_enable_master_mode(p_twi);

	/* Select the speed */
	if (twi_set_speed(p_twi, p_opt->speed, p_opt->master_clk) == FAIL) {
   8086c:	680a      	ldr	r2, [r1, #0]
   8086e:	6849      	ldr	r1, [r1, #4]
   80870:	4b05      	ldr	r3, [pc, #20]	; (80888 <twi_master_init+0x3c>)
   80872:	4798      	blx	r3
 *
 * \return TWI_SUCCESS if initialization is complete, error code otherwise.
 */
uint32_t twi_master_init(Twi *p_twi, const twi_options_t *p_opt)
{
	uint32_t status = TWI_SUCCESS;
   80874:	2801      	cmp	r0, #1
   80876:	bf14      	ite	ne
   80878:	2000      	movne	r0, #0
   8087a:	2001      	moveq	r0, #1
	if (twi_set_speed(p_twi, p_opt->speed, p_opt->master_clk) == FAIL) {
		/* The desired speed setting is rejected */
		status = TWI_INVALID_ARGUMENT;
	}

	if (p_opt->smbus == 1) {
   8087c:	7a6b      	ldrb	r3, [r5, #9]
   8087e:	2b01      	cmp	r3, #1
		p_twi->TWI_CR = TWI_CR_QUICK;
   80880:	bf04      	itt	eq
   80882:	2340      	moveq	r3, #64	; 0x40
   80884:	6023      	streq	r3, [r4, #0]
	}

	return status;
}
   80886:	bd38      	pop	{r3, r4, r5, pc}
   80888:	00080791 	.word	0x00080791

0008088c <twi_mk_addr>:
 */
uint32_t twi_mk_addr(const uint8_t *addr, int len)
{
	uint32_t val;

	if (len == 0)
   8088c:	460a      	mov	r2, r1
   8088e:	b159      	cbz	r1, 808a8 <twi_mk_addr+0x1c>
		return 0;

	val = addr[0];
   80890:	7803      	ldrb	r3, [r0, #0]
	if (len > 1) {
   80892:	2901      	cmp	r1, #1
		val <<= 8;
		val |= addr[1];
   80894:	bfc4      	itt	gt
   80896:	7841      	ldrbgt	r1, [r0, #1]
   80898:	ea41 2303 	orrgt.w	r3, r1, r3, lsl #8
	}
	if (len > 2) {
   8089c:	2a02      	cmp	r2, #2
   8089e:	dd05      	ble.n	808ac <twi_mk_addr+0x20>
		val <<= 8;
		val |= addr[2];
   808a0:	7880      	ldrb	r0, [r0, #2]
   808a2:	ea40 2003 	orr.w	r0, r0, r3, lsl #8
   808a6:	4770      	bx	lr
uint32_t twi_mk_addr(const uint8_t *addr, int len)
{
	uint32_t val;

	if (len == 0)
		return 0;
   808a8:	2000      	movs	r0, #0
   808aa:	4770      	bx	lr
   808ac:	4618      	mov	r0, r3
	if (len > 2) {
		val <<= 8;
		val |= addr[2];
	}
	return val;
}
   808ae:	4770      	bx	lr

000808b0 <twi_master_read>:
 * \param p_packet Packet information and data (see \ref twi_packet_t).
 *
 * \return TWI_SUCCESS if all bytes were read, error code otherwise.
 */
uint32_t twi_master_read(Twi *p_twi, twi_packet_t *p_packet)
{
   808b0:	e92d 41f0 	stmdb	sp!, {r4, r5, r6, r7, r8, lr}
	uint32_t status;
	uint32_t cnt = p_packet->length;
   808b4:	68cc      	ldr	r4, [r1, #12]
	uint8_t *buffer = p_packet->buffer;
	uint8_t stop_sent = 0;
	uint32_t timeout = TWI_TIMEOUT;;
	
	/* Check argument */
	if (cnt == 0) {
   808b6:	2c00      	cmp	r4, #0
   808b8:	d045      	beq.n	80946 <twi_master_read+0x96>
   808ba:	460b      	mov	r3, r1
   808bc:	4605      	mov	r5, r0
 */
uint32_t twi_master_read(Twi *p_twi, twi_packet_t *p_packet)
{
	uint32_t status;
	uint32_t cnt = p_packet->length;
	uint8_t *buffer = p_packet->buffer;
   808be:	688e      	ldr	r6, [r1, #8]
	if (cnt == 0) {
		return TWI_INVALID_ARGUMENT;
	}

	/* Set read mode, slave address and 3 internal address byte lengths */
	p_twi->TWI_MMR = 0;
   808c0:	2000      	movs	r0, #0
   808c2:	6068      	str	r0, [r5, #4]
	p_twi->TWI_MMR = TWI_MMR_MREAD | TWI_MMR_DADR(p_packet->chip) |
   808c4:	684a      	ldr	r2, [r1, #4]
   808c6:	0212      	lsls	r2, r2, #8
   808c8:	f402 7240 	and.w	r2, r2, #768	; 0x300
   808cc:	f442 5180 	orr.w	r1, r2, #4096	; 0x1000
   808d0:	7c1a      	ldrb	r2, [r3, #16]
   808d2:	0412      	lsls	r2, r2, #16
   808d4:	f402 02fe 	and.w	r2, r2, #8323072	; 0x7f0000
   808d8:	430a      	orrs	r2, r1
   808da:	606a      	str	r2, [r5, #4]
			((p_packet->addr_length << TWI_MMR_IADRSZ_Pos) &
			TWI_MMR_IADRSZ_Msk);

	/* Set internal address for remote chip */
	p_twi->TWI_IADR = 0;
   808dc:	60e8      	str	r0, [r5, #12]
	p_twi->TWI_IADR = twi_mk_addr(p_packet->addr, p_packet->addr_length);
   808de:	6859      	ldr	r1, [r3, #4]
   808e0:	4618      	mov	r0, r3
   808e2:	4b27      	ldr	r3, [pc, #156]	; (80980 <twi_master_read+0xd0>)
   808e4:	4798      	blx	r3
   808e6:	60e8      	str	r0, [r5, #12]

	/* Send a START condition */
	if (cnt == 1) {
   808e8:	2c01      	cmp	r4, #1
   808ea:	d104      	bne.n	808f6 <twi_master_read+0x46>
		p_twi->TWI_CR = TWI_CR_START | TWI_CR_STOP;
   808ec:	2303      	movs	r3, #3
   808ee:	602b      	str	r3, [r5, #0]
		stop_sent = 1;
   808f0:	f04f 0e01 	mov.w	lr, #1
   808f4:	e033      	b.n	8095e <twi_master_read+0xae>
	} else {
		p_twi->TWI_CR = TWI_CR_START;
   808f6:	2301      	movs	r3, #1
   808f8:	602b      	str	r3, [r5, #0]
		stop_sent = 0;
   808fa:	f04f 0e00 	mov.w	lr, #0
   808fe:	e02e      	b.n	8095e <twi_master_read+0xae>
		if (cnt == 1  && !stop_sent) {
			p_twi->TWI_CR = TWI_CR_STOP;
			stop_sent = 1;
		}

		if (!(status & TWI_SR_RXRDY)) {
   80900:	460a      	mov	r2, r1
		p_twi->TWI_CR = TWI_CR_START;
		stop_sent = 0;
	}

	while (cnt > 0) {
		status = p_twi->TWI_SR;
   80902:	6a2b      	ldr	r3, [r5, #32]
		if (status & TWI_SR_NACK) {
   80904:	f413 7f80 	tst.w	r3, #256	; 0x100
   80908:	d120      	bne.n	8094c <twi_master_read+0x9c>
			return TWI_RECEIVE_NACK;
		}

		if (!timeout--) {
   8090a:	1e51      	subs	r1, r2, #1
   8090c:	b30a      	cbz	r2, 80952 <twi_master_read+0xa2>
			return TWI_ERROR_TIMEOUT;
		}
				
		/* Last byte ? */
		if (cnt == 1  && !stop_sent) {
   8090e:	2c01      	cmp	r4, #1
   80910:	d106      	bne.n	80920 <twi_master_read+0x70>
   80912:	f1be 0f00 	cmp.w	lr, #0
   80916:	d12f      	bne.n	80978 <twi_master_read+0xc8>
			p_twi->TWI_CR = TWI_CR_STOP;
   80918:	f8c5 8000 	str.w	r8, [r5]
			stop_sent = 1;
   8091c:	46e6      	mov	lr, ip
   8091e:	e02b      	b.n	80978 <twi_master_read+0xc8>
		}

		if (!(status & TWI_SR_RXRDY)) {
   80920:	f013 0f02 	tst.w	r3, #2
   80924:	d005      	beq.n	80932 <twi_master_read+0x82>
			continue;
		}
		*buffer++ = p_twi->TWI_RHR;
   80926:	6b2b      	ldr	r3, [r5, #48]	; 0x30
   80928:	7033      	strb	r3, [r6, #0]

		cnt--;
   8092a:	3c01      	subs	r4, #1
		}

		if (!(status & TWI_SR_RXRDY)) {
			continue;
		}
		*buffer++ = p_twi->TWI_RHR;
   8092c:	3601      	adds	r6, #1

		cnt--;
		timeout = TWI_TIMEOUT;
   8092e:	463a      	mov	r2, r7
   80930:	e000      	b.n	80934 <twi_master_read+0x84>
   80932:	460a      	mov	r2, r1
	} else {
		p_twi->TWI_CR = TWI_CR_START;
		stop_sent = 0;
	}

	while (cnt > 0) {
   80934:	2c00      	cmp	r4, #0
   80936:	d1e4      	bne.n	80902 <twi_master_read+0x52>

		cnt--;
		timeout = TWI_TIMEOUT;
	}

	while (!(p_twi->TWI_SR & TWI_SR_TXCOMP)) {
   80938:	6a2b      	ldr	r3, [r5, #32]
   8093a:	f013 0f01 	tst.w	r3, #1
   8093e:	d0fb      	beq.n	80938 <twi_master_read+0x88>
	}

	p_twi->TWI_SR;
   80940:	6a2b      	ldr	r3, [r5, #32]

	return TWI_SUCCESS;
   80942:	e8bd 81f0 	ldmia.w	sp!, {r4, r5, r6, r7, r8, pc}
	uint8_t stop_sent = 0;
	uint32_t timeout = TWI_TIMEOUT;;
	
	/* Check argument */
	if (cnt == 0) {
		return TWI_INVALID_ARGUMENT;
   80946:	2001      	movs	r0, #1
   80948:	e8bd 81f0 	ldmia.w	sp!, {r4, r5, r6, r7, r8, pc}
	}

	while (cnt > 0) {
		status = p_twi->TWI_SR;
		if (status & TWI_SR_NACK) {
			return TWI_RECEIVE_NACK;
   8094c:	2005      	movs	r0, #5
   8094e:	e8bd 81f0 	ldmia.w	sp!, {r4, r5, r6, r7, r8, pc}
		}

		if (!timeout--) {
			return TWI_ERROR_TIMEOUT;
   80952:	2009      	movs	r0, #9
   80954:	e8bd 81f0 	ldmia.w	sp!, {r4, r5, r6, r7, r8, pc}
	}

	while (cnt > 0) {
		status = p_twi->TWI_SR;
		if (status & TWI_SR_NACK) {
			return TWI_RECEIVE_NACK;
   80958:	2005      	movs	r0, #5
   8095a:	e8bd 81f0 	ldmia.w	sp!, {r4, r5, r6, r7, r8, pc}
		p_twi->TWI_CR = TWI_CR_START;
		stop_sent = 0;
	}

	while (cnt > 0) {
		status = p_twi->TWI_SR;
   8095e:	6a2b      	ldr	r3, [r5, #32]
		if (status & TWI_SR_NACK) {
   80960:	f413 7080 	ands.w	r0, r3, #256	; 0x100
   80964:	d1f8      	bne.n	80958 <twi_master_read+0xa8>
   80966:	f643 2197 	movw	r1, #14999	; 0x3a97
			continue;
		}
		*buffer++ = p_twi->TWI_RHR;

		cnt--;
		timeout = TWI_TIMEOUT;
   8096a:	f643 2798 	movw	r7, #15000	; 0x3a98
			return TWI_ERROR_TIMEOUT;
		}
				
		/* Last byte ? */
		if (cnt == 1  && !stop_sent) {
			p_twi->TWI_CR = TWI_CR_STOP;
   8096e:	f04f 0802 	mov.w	r8, #2
			stop_sent = 1;
   80972:	f04f 0c01 	mov.w	ip, #1
   80976:	e7ca      	b.n	8090e <twi_master_read+0x5e>
		}

		if (!(status & TWI_SR_RXRDY)) {
   80978:	f013 0f02 	tst.w	r3, #2
   8097c:	d0c0      	beq.n	80900 <twi_master_read+0x50>
   8097e:	e7d2      	b.n	80926 <twi_master_read+0x76>
   80980:	0008088d 	.word	0x0008088d

00080984 <twi_master_write>:
 * \param p_packet Packet information and data (see \ref twi_packet_t).
 *
 * \return TWI_SUCCESS if all bytes were written, error code otherwise.
 */
uint32_t twi_master_write(Twi *p_twi, twi_packet_t *p_packet)
{
   80984:	b570      	push	{r4, r5, r6, lr}
	uint32_t status;
	uint32_t cnt = p_packet->length;
   80986:	68cd      	ldr	r5, [r1, #12]
	uint8_t *buffer = p_packet->buffer;

	/* Check argument */
	if (cnt == 0) {
   80988:	2d00      	cmp	r5, #0
   8098a:	d034      	beq.n	809f6 <twi_master_write+0x72>
   8098c:	460b      	mov	r3, r1
   8098e:	4604      	mov	r4, r0
 */
uint32_t twi_master_write(Twi *p_twi, twi_packet_t *p_packet)
{
	uint32_t status;
	uint32_t cnt = p_packet->length;
	uint8_t *buffer = p_packet->buffer;
   80990:	688e      	ldr	r6, [r1, #8]
	if (cnt == 0) {
		return TWI_INVALID_ARGUMENT;
	}

	/* Set write mode, slave address and 3 internal address byte lengths */
	p_twi->TWI_MMR = 0;
   80992:	2000      	movs	r0, #0
   80994:	6060      	str	r0, [r4, #4]
	p_twi->TWI_MMR = TWI_MMR_DADR(p_packet->chip) |
   80996:	7c0a      	ldrb	r2, [r1, #16]
   80998:	0412      	lsls	r2, r2, #16
   8099a:	f402 01fe 	and.w	r1, r2, #8323072	; 0x7f0000
   8099e:	685a      	ldr	r2, [r3, #4]
   809a0:	0212      	lsls	r2, r2, #8
   809a2:	f402 7240 	and.w	r2, r2, #768	; 0x300
   809a6:	430a      	orrs	r2, r1
   809a8:	6062      	str	r2, [r4, #4]
			((p_packet->addr_length << TWI_MMR_IADRSZ_Pos) &
			TWI_MMR_IADRSZ_Msk);

	/* Set internal address for remote chip */
	p_twi->TWI_IADR = 0;
   809aa:	60e0      	str	r0, [r4, #12]
	p_twi->TWI_IADR = twi_mk_addr(p_packet->addr, p_packet->addr_length);
   809ac:	6859      	ldr	r1, [r3, #4]
   809ae:	4618      	mov	r0, r3
   809b0:	4b15      	ldr	r3, [pc, #84]	; (80a08 <twi_master_write+0x84>)
   809b2:	4798      	blx	r3
   809b4:	60e0      	str	r0, [r4, #12]

	/* Send all bytes */
	while (cnt > 0) {
		status = p_twi->TWI_SR;
   809b6:	6a23      	ldr	r3, [r4, #32]
		if (status & TWI_SR_NACK) {
   809b8:	f413 7f80 	tst.w	r3, #256	; 0x100
   809bc:	d004      	beq.n	809c8 <twi_master_write+0x44>
   809be:	e01c      	b.n	809fa <twi_master_write+0x76>
	p_twi->TWI_IADR = 0;
	p_twi->TWI_IADR = twi_mk_addr(p_packet->addr, p_packet->addr_length);

	/* Send all bytes */
	while (cnt > 0) {
		status = p_twi->TWI_SR;
   809c0:	6a23      	ldr	r3, [r4, #32]
		if (status & TWI_SR_NACK) {
   809c2:	f413 7f80 	tst.w	r3, #256	; 0x100
   809c6:	d11a      	bne.n	809fe <twi_master_write+0x7a>
			return TWI_RECEIVE_NACK;
		}

		if (!(status & TWI_SR_TXRDY)) {
   809c8:	f013 0f04 	tst.w	r3, #4
   809cc:	d003      	beq.n	809d6 <twi_master_write+0x52>
			continue;
		}
		p_twi->TWI_THR = *buffer++;
   809ce:	7833      	ldrb	r3, [r6, #0]
   809d0:	6363      	str	r3, [r4, #52]	; 0x34

		cnt--;
   809d2:	3d01      	subs	r5, #1
		}

		if (!(status & TWI_SR_TXRDY)) {
			continue;
		}
		p_twi->TWI_THR = *buffer++;
   809d4:	3601      	adds	r6, #1
	/* Set internal address for remote chip */
	p_twi->TWI_IADR = 0;
	p_twi->TWI_IADR = twi_mk_addr(p_packet->addr, p_packet->addr_length);

	/* Send all bytes */
	while (cnt > 0) {
   809d6:	2d00      	cmp	r5, #0
   809d8:	d1f2      	bne.n	809c0 <twi_master_write+0x3c>

		cnt--;
	}

	while (1) {
		status = p_twi->TWI_SR;
   809da:	6a23      	ldr	r3, [r4, #32]
		if (status & TWI_SR_NACK) {
   809dc:	f413 7080 	ands.w	r0, r3, #256	; 0x100
   809e0:	d10f      	bne.n	80a02 <twi_master_write+0x7e>
			return TWI_RECEIVE_NACK;
		}

		if (status & TWI_SR_TXRDY) {
   809e2:	f013 0f04 	tst.w	r3, #4
   809e6:	d0f8      	beq.n	809da <twi_master_write+0x56>
			break;
		}
	}

	p_twi->TWI_CR = TWI_CR_STOP;
   809e8:	2302      	movs	r3, #2
   809ea:	6023      	str	r3, [r4, #0]

	while (!(p_twi->TWI_SR & TWI_SR_TXCOMP)) {
   809ec:	6a23      	ldr	r3, [r4, #32]
   809ee:	f013 0f01 	tst.w	r3, #1
   809f2:	d0fb      	beq.n	809ec <twi_master_write+0x68>
   809f4:	bd70      	pop	{r4, r5, r6, pc}
	uint32_t cnt = p_packet->length;
	uint8_t *buffer = p_packet->buffer;

	/* Check argument */
	if (cnt == 0) {
		return TWI_INVALID_ARGUMENT;
   809f6:	2001      	movs	r0, #1
   809f8:	bd70      	pop	{r4, r5, r6, pc}

	/* Send all bytes */
	while (cnt > 0) {
		status = p_twi->TWI_SR;
		if (status & TWI_SR_NACK) {
			return TWI_RECEIVE_NACK;
   809fa:	2005      	movs	r0, #5
   809fc:	bd70      	pop	{r4, r5, r6, pc}
   809fe:	2005      	movs	r0, #5
   80a00:	bd70      	pop	{r4, r5, r6, pc}
	}

	while (1) {
		status = p_twi->TWI_SR;
		if (status & TWI_SR_NACK) {
			return TWI_RECEIVE_NACK;
   80a02:	2005      	movs	r0, #5

	while (!(p_twi->TWI_SR & TWI_SR_TXCOMP)) {
	}

	return TWI_SUCCESS;
}
   80a04:	bd70      	pop	{r4, r5, r6, pc}
   80a06:	bf00      	nop
   80a08:	0008088d 	.word	0x0008088d

00080a0c <Dummy_Handler>:

/**
 * \brief Default interrupt handler for unused IRQs.
 */
void Dummy_Handler(void)
{
   80a0c:	e7fe      	b.n	80a0c <Dummy_Handler>
   80a0e:	bf00      	nop

00080a10 <Reset_Handler>:
/**
 * \brief This is the code that gets called on processor reset.
 * To initialize the device, and call the main() routine.
 */
void Reset_Handler(void)
{
   80a10:	b508      	push	{r3, lr}

	/* Initialize the relocate segment */
	pSrc = &_etext;
	pDest = &_srelocate;

	if (pSrc != pDest) {
   80a12:	4b1e      	ldr	r3, [pc, #120]	; (80a8c <Reset_Handler+0x7c>)
   80a14:	4a1e      	ldr	r2, [pc, #120]	; (80a90 <Reset_Handler+0x80>)
   80a16:	429a      	cmp	r2, r3
   80a18:	d003      	beq.n	80a22 <Reset_Handler+0x12>
		for (; pDest < &_erelocate;) {
   80a1a:	4b1e      	ldr	r3, [pc, #120]	; (80a94 <Reset_Handler+0x84>)
   80a1c:	4a1b      	ldr	r2, [pc, #108]	; (80a8c <Reset_Handler+0x7c>)
   80a1e:	429a      	cmp	r2, r3
   80a20:	d304      	bcc.n	80a2c <Reset_Handler+0x1c>
			*pDest++ = *pSrc++;
		}
	}

	/* Clear the zero segment */
	for (pDest = &_szero; pDest < &_ezero;) {
   80a22:	4b1d      	ldr	r3, [pc, #116]	; (80a98 <Reset_Handler+0x88>)
   80a24:	4a1d      	ldr	r2, [pc, #116]	; (80a9c <Reset_Handler+0x8c>)
   80a26:	429a      	cmp	r2, r3
   80a28:	d30f      	bcc.n	80a4a <Reset_Handler+0x3a>
   80a2a:	e01a      	b.n	80a62 <Reset_Handler+0x52>
   80a2c:	4917      	ldr	r1, [pc, #92]	; (80a8c <Reset_Handler+0x7c>)
   80a2e:	4b1c      	ldr	r3, [pc, #112]	; (80aa0 <Reset_Handler+0x90>)
   80a30:	1a5b      	subs	r3, r3, r1
   80a32:	f023 0303 	bic.w	r3, r3, #3
   80a36:	3304      	adds	r3, #4
   80a38:	4a15      	ldr	r2, [pc, #84]	; (80a90 <Reset_Handler+0x80>)
   80a3a:	4413      	add	r3, r2
	pSrc = &_etext;
	pDest = &_srelocate;

	if (pSrc != pDest) {
		for (; pDest < &_erelocate;) {
			*pDest++ = *pSrc++;
   80a3c:	f852 0b04 	ldr.w	r0, [r2], #4
   80a40:	f841 0b04 	str.w	r0, [r1], #4
	/* Initialize the relocate segment */
	pSrc = &_etext;
	pDest = &_srelocate;

	if (pSrc != pDest) {
		for (; pDest < &_erelocate;) {
   80a44:	429a      	cmp	r2, r3
   80a46:	d1f9      	bne.n	80a3c <Reset_Handler+0x2c>
   80a48:	e7eb      	b.n	80a22 <Reset_Handler+0x12>
   80a4a:	4b16      	ldr	r3, [pc, #88]	; (80aa4 <Reset_Handler+0x94>)
   80a4c:	4a16      	ldr	r2, [pc, #88]	; (80aa8 <Reset_Handler+0x98>)
   80a4e:	1ad2      	subs	r2, r2, r3
   80a50:	f022 0203 	bic.w	r2, r2, #3
   80a54:	441a      	add	r2, r3
			*pDest++ = *pSrc++;
		}
	}

	/* Clear the zero segment */
	for (pDest = &_szero; pDest < &_ezero;) {
   80a56:	3b04      	subs	r3, #4
		*pDest++ = 0;
   80a58:	2100      	movs	r1, #0
   80a5a:	f843 1b04 	str.w	r1, [r3], #4
			*pDest++ = *pSrc++;
		}
	}

	/* Clear the zero segment */
	for (pDest = &_szero; pDest < &_ezero;) {
   80a5e:	4293      	cmp	r3, r2
   80a60:	d1fb      	bne.n	80a5a <Reset_Handler+0x4a>
		*pDest++ = 0;
	}

	/* Set the vector table base address */
	pSrc = (uint32_t *) & _sfixed;
	SCB->VTOR = ((uint32_t) pSrc & SCB_VTOR_TBLOFF_Msk);
   80a62:	4b12      	ldr	r3, [pc, #72]	; (80aac <Reset_Handler+0x9c>)
   80a64:	f023 4260 	bic.w	r2, r3, #3758096384	; 0xe0000000
   80a68:	f022 027f 	bic.w	r2, r2, #127	; 0x7f
   80a6c:	4910      	ldr	r1, [pc, #64]	; (80ab0 <Reset_Handler+0xa0>)
   80a6e:	608a      	str	r2, [r1, #8]

	if (((uint32_t) pSrc >= IRAM0_ADDR) && ((uint32_t) pSrc < NFC_RAM_ADDR)) {
   80a70:	f103 4360 	add.w	r3, r3, #3758096384	; 0xe0000000
   80a74:	f5b3 1f80 	cmp.w	r3, #1048576	; 0x100000
   80a78:	d203      	bcs.n	80a82 <Reset_Handler+0x72>
		SCB->VTOR |= 1 << SCB_VTOR_TBLBASE_Pos;
   80a7a:	688b      	ldr	r3, [r1, #8]
   80a7c:	f043 5300 	orr.w	r3, r3, #536870912	; 0x20000000
   80a80:	608b      	str	r3, [r1, #8]
	}

	/* Initialize the C library */
	__libc_init_array();
   80a82:	4b0c      	ldr	r3, [pc, #48]	; (80ab4 <Reset_Handler+0xa4>)
   80a84:	4798      	blx	r3

	/* Branch to main function */
	main();
   80a86:	4b0c      	ldr	r3, [pc, #48]	; (80ab8 <Reset_Handler+0xa8>)
   80a88:	4798      	blx	r3
   80a8a:	e7fe      	b.n	80a8a <Reset_Handler+0x7a>
   80a8c:	20070000 	.word	0x20070000
   80a90:	000839d4 	.word	0x000839d4
   80a94:	2007096c 	.word	0x2007096c
   80a98:	200721fc 	.word	0x200721fc
   80a9c:	2007096c 	.word	0x2007096c
   80aa0:	2007096b 	.word	0x2007096b
   80aa4:	20070970 	.word	0x20070970
   80aa8:	200721ff 	.word	0x200721ff
   80aac:	00080000 	.word	0x00080000
   80ab0:	e000ed00 	.word	0xe000ed00
   80ab4:	00082fdd 	.word	0x00082fdd
   80ab8:	0008260d 	.word	0x0008260d

00080abc <SystemCoreClockUpdate>:
}

void SystemCoreClockUpdate(void)
{
	/* Determine clock frequency according to clock register values */
	switch (PMC->PMC_MCKR & PMC_MCKR_CSS_Msk) {
   80abc:	4b3e      	ldr	r3, [pc, #248]	; (80bb8 <SystemCoreClockUpdate+0xfc>)
   80abe:	6b1b      	ldr	r3, [r3, #48]	; 0x30
   80ac0:	f003 0303 	and.w	r3, r3, #3
   80ac4:	2b03      	cmp	r3, #3
   80ac6:	d85f      	bhi.n	80b88 <SystemCoreClockUpdate+0xcc>
   80ac8:	e8df f003 	tbb	[pc, r3]
   80acc:	2b2b0e02 	.word	0x2b2b0e02
	case PMC_MCKR_CSS_SLOW_CLK:	/* Slow clock */
		if (SUPC->SUPC_SR & SUPC_SR_OSCSEL) {
   80ad0:	4b3a      	ldr	r3, [pc, #232]	; (80bbc <SystemCoreClockUpdate+0x100>)
   80ad2:	695b      	ldr	r3, [r3, #20]
   80ad4:	f013 0f80 	tst.w	r3, #128	; 0x80
			SystemCoreClock = CHIP_FREQ_XTAL_32K;
   80ad8:	bf14      	ite	ne
   80ada:	f44f 4200 	movne.w	r2, #32768	; 0x8000
		} else {
			SystemCoreClock = CHIP_FREQ_SLCK_RC;
   80ade:	f44f 42fa 	moveq.w	r2, #32000	; 0x7d00
   80ae2:	4b37      	ldr	r3, [pc, #220]	; (80bc0 <SystemCoreClockUpdate+0x104>)
   80ae4:	601a      	str	r2, [r3, #0]
   80ae6:	e04f      	b.n	80b88 <SystemCoreClockUpdate+0xcc>
		}
		break;
	case PMC_MCKR_CSS_MAIN_CLK:	/* Main clock */
		if (PMC->CKGR_MOR & CKGR_MOR_MOSCSEL) {
   80ae8:	4b33      	ldr	r3, [pc, #204]	; (80bb8 <SystemCoreClockUpdate+0xfc>)
   80aea:	6a1b      	ldr	r3, [r3, #32]
   80aec:	f013 7f80 	tst.w	r3, #16777216	; 0x1000000
   80af0:	d003      	beq.n	80afa <SystemCoreClockUpdate+0x3e>
			SystemCoreClock = CHIP_FREQ_XTAL_12M;
   80af2:	4a34      	ldr	r2, [pc, #208]	; (80bc4 <SystemCoreClockUpdate+0x108>)
   80af4:	4b32      	ldr	r3, [pc, #200]	; (80bc0 <SystemCoreClockUpdate+0x104>)
   80af6:	601a      	str	r2, [r3, #0]
   80af8:	e046      	b.n	80b88 <SystemCoreClockUpdate+0xcc>
		} else {
			SystemCoreClock = CHIP_FREQ_MAINCK_RC_4MHZ;
   80afa:	4a33      	ldr	r2, [pc, #204]	; (80bc8 <SystemCoreClockUpdate+0x10c>)
   80afc:	4b30      	ldr	r3, [pc, #192]	; (80bc0 <SystemCoreClockUpdate+0x104>)
   80afe:	601a      	str	r2, [r3, #0]

			switch (PMC->CKGR_MOR & CKGR_MOR_MOSCRCF_Msk) {
   80b00:	4b2d      	ldr	r3, [pc, #180]	; (80bb8 <SystemCoreClockUpdate+0xfc>)
   80b02:	6a1b      	ldr	r3, [r3, #32]
   80b04:	f003 0370 	and.w	r3, r3, #112	; 0x70
   80b08:	2b10      	cmp	r3, #16
   80b0a:	d002      	beq.n	80b12 <SystemCoreClockUpdate+0x56>
   80b0c:	2b20      	cmp	r3, #32
   80b0e:	d004      	beq.n	80b1a <SystemCoreClockUpdate+0x5e>
   80b10:	e03a      	b.n	80b88 <SystemCoreClockUpdate+0xcc>
			case CKGR_MOR_MOSCRCF_4_MHz:
				break;
			case CKGR_MOR_MOSCRCF_8_MHz:
				SystemCoreClock *= 2U;
   80b12:	4a2e      	ldr	r2, [pc, #184]	; (80bcc <SystemCoreClockUpdate+0x110>)
   80b14:	4b2a      	ldr	r3, [pc, #168]	; (80bc0 <SystemCoreClockUpdate+0x104>)
   80b16:	601a      	str	r2, [r3, #0]
				break;
   80b18:	e036      	b.n	80b88 <SystemCoreClockUpdate+0xcc>
			case CKGR_MOR_MOSCRCF_12_MHz:
				SystemCoreClock *= 3U;
   80b1a:	4a2a      	ldr	r2, [pc, #168]	; (80bc4 <SystemCoreClockUpdate+0x108>)
   80b1c:	4b28      	ldr	r3, [pc, #160]	; (80bc0 <SystemCoreClockUpdate+0x104>)
   80b1e:	601a      	str	r2, [r3, #0]
				break;
   80b20:	e032      	b.n	80b88 <SystemCoreClockUpdate+0xcc>
			}
		}
		break;
	case PMC_MCKR_CSS_PLLA_CLK:	/* PLLA clock */
	case PMC_MCKR_CSS_UPLL_CLK:	/* UPLL clock */
		if (PMC->CKGR_MOR & CKGR_MOR_MOSCSEL) {
   80b22:	4b25      	ldr	r3, [pc, #148]	; (80bb8 <SystemCoreClockUpdate+0xfc>)
   80b24:	6a1b      	ldr	r3, [r3, #32]
   80b26:	f013 7f80 	tst.w	r3, #16777216	; 0x1000000
   80b2a:	d003      	beq.n	80b34 <SystemCoreClockUpdate+0x78>
			SystemCoreClock = CHIP_FREQ_XTAL_12M;
   80b2c:	4a25      	ldr	r2, [pc, #148]	; (80bc4 <SystemCoreClockUpdate+0x108>)
   80b2e:	4b24      	ldr	r3, [pc, #144]	; (80bc0 <SystemCoreClockUpdate+0x104>)
   80b30:	601a      	str	r2, [r3, #0]
   80b32:	e012      	b.n	80b5a <SystemCoreClockUpdate+0x9e>
		} else {
			SystemCoreClock = CHIP_FREQ_MAINCK_RC_4MHZ;
   80b34:	4a24      	ldr	r2, [pc, #144]	; (80bc8 <SystemCoreClockUpdate+0x10c>)
   80b36:	4b22      	ldr	r3, [pc, #136]	; (80bc0 <SystemCoreClockUpdate+0x104>)
   80b38:	601a      	str	r2, [r3, #0]

			switch (PMC->CKGR_MOR & CKGR_MOR_MOSCRCF_Msk) {
   80b3a:	4b1f      	ldr	r3, [pc, #124]	; (80bb8 <SystemCoreClockUpdate+0xfc>)
   80b3c:	6a1b      	ldr	r3, [r3, #32]
   80b3e:	f003 0370 	and.w	r3, r3, #112	; 0x70
   80b42:	2b10      	cmp	r3, #16
   80b44:	d002      	beq.n	80b4c <SystemCoreClockUpdate+0x90>
   80b46:	2b20      	cmp	r3, #32
   80b48:	d004      	beq.n	80b54 <SystemCoreClockUpdate+0x98>
   80b4a:	e006      	b.n	80b5a <SystemCoreClockUpdate+0x9e>
			case CKGR_MOR_MOSCRCF_4_MHz:
				break;
			case CKGR_MOR_MOSCRCF_8_MHz:
				SystemCoreClock *= 2U;
   80b4c:	4a1f      	ldr	r2, [pc, #124]	; (80bcc <SystemCoreClockUpdate+0x110>)
   80b4e:	4b1c      	ldr	r3, [pc, #112]	; (80bc0 <SystemCoreClockUpdate+0x104>)
   80b50:	601a      	str	r2, [r3, #0]
				break;
   80b52:	e002      	b.n	80b5a <SystemCoreClockUpdate+0x9e>
			case CKGR_MOR_MOSCRCF_12_MHz:
				SystemCoreClock *= 3U;
   80b54:	4a1b      	ldr	r2, [pc, #108]	; (80bc4 <SystemCoreClockUpdate+0x108>)
   80b56:	4b1a      	ldr	r3, [pc, #104]	; (80bc0 <SystemCoreClockUpdate+0x104>)
   80b58:	601a      	str	r2, [r3, #0]
				break;
			default:
				break;
			}
		}
		if ((PMC->PMC_MCKR & PMC_MCKR_CSS_Msk) == PMC_MCKR_CSS_PLLA_CLK) {
   80b5a:	4b17      	ldr	r3, [pc, #92]	; (80bb8 <SystemCoreClockUpdate+0xfc>)
   80b5c:	6b1b      	ldr	r3, [r3, #48]	; 0x30
   80b5e:	f003 0303 	and.w	r3, r3, #3
   80b62:	2b02      	cmp	r3, #2
   80b64:	d10d      	bne.n	80b82 <SystemCoreClockUpdate+0xc6>
			SystemCoreClock *= ((((PMC->CKGR_PLLAR) & CKGR_PLLAR_MULA_Msk) >> 
   80b66:	4a14      	ldr	r2, [pc, #80]	; (80bb8 <SystemCoreClockUpdate+0xfc>)
   80b68:	6a93      	ldr	r3, [r2, #40]	; 0x28
				                            CKGR_PLLAR_MULA_Pos) + 1U);
			SystemCoreClock /= ((((PMC->CKGR_PLLAR) & CKGR_PLLAR_DIVA_Msk) >> 
   80b6a:	6a92      	ldr	r2, [r2, #40]	; 0x28
   80b6c:	4814      	ldr	r0, [pc, #80]	; (80bc0 <SystemCoreClockUpdate+0x104>)
   80b6e:	f3c3 410a 	ubfx	r1, r3, #16, #11
   80b72:	6803      	ldr	r3, [r0, #0]
   80b74:	fb01 3303 	mla	r3, r1, r3, r3
   80b78:	b2d2      	uxtb	r2, r2
   80b7a:	fbb3 f3f2 	udiv	r3, r3, r2
   80b7e:	6003      	str	r3, [r0, #0]
   80b80:	e002      	b.n	80b88 <SystemCoreClockUpdate+0xcc>
				                             CKGR_PLLAR_DIVA_Pos));
		} else {
			SystemCoreClock = SYS_UTMIPLL / 2U;
   80b82:	4a13      	ldr	r2, [pc, #76]	; (80bd0 <SystemCoreClockUpdate+0x114>)
   80b84:	4b0e      	ldr	r3, [pc, #56]	; (80bc0 <SystemCoreClockUpdate+0x104>)
   80b86:	601a      	str	r2, [r3, #0]
		}
		break;
	}

	if ((PMC->PMC_MCKR & PMC_MCKR_PRES_Msk) == PMC_MCKR_PRES_CLK_3) {
   80b88:	4b0b      	ldr	r3, [pc, #44]	; (80bb8 <SystemCoreClockUpdate+0xfc>)
   80b8a:	6b1b      	ldr	r3, [r3, #48]	; 0x30
   80b8c:	f003 0370 	and.w	r3, r3, #112	; 0x70
   80b90:	2b70      	cmp	r3, #112	; 0x70
   80b92:	d107      	bne.n	80ba4 <SystemCoreClockUpdate+0xe8>
		SystemCoreClock /= 3U;
   80b94:	4a0a      	ldr	r2, [pc, #40]	; (80bc0 <SystemCoreClockUpdate+0x104>)
   80b96:	6813      	ldr	r3, [r2, #0]
   80b98:	490e      	ldr	r1, [pc, #56]	; (80bd4 <SystemCoreClockUpdate+0x118>)
   80b9a:	fba1 1303 	umull	r1, r3, r1, r3
   80b9e:	085b      	lsrs	r3, r3, #1
   80ba0:	6013      	str	r3, [r2, #0]
   80ba2:	4770      	bx	lr
	} else {
		SystemCoreClock >>= ((PMC->PMC_MCKR & PMC_MCKR_PRES_Msk) >> 
   80ba4:	4b04      	ldr	r3, [pc, #16]	; (80bb8 <SystemCoreClockUpdate+0xfc>)
   80ba6:	6b1b      	ldr	r3, [r3, #48]	; 0x30
   80ba8:	4905      	ldr	r1, [pc, #20]	; (80bc0 <SystemCoreClockUpdate+0x104>)
   80baa:	f3c3 1202 	ubfx	r2, r3, #4, #3
   80bae:	680b      	ldr	r3, [r1, #0]
   80bb0:	40d3      	lsrs	r3, r2
   80bb2:	600b      	str	r3, [r1, #0]
   80bb4:	4770      	bx	lr
   80bb6:	bf00      	nop
   80bb8:	400e0600 	.word	0x400e0600
   80bbc:	400e1a10 	.word	0x400e1a10
   80bc0:	2007012c 	.word	0x2007012c
   80bc4:	00b71b00 	.word	0x00b71b00
   80bc8:	003d0900 	.word	0x003d0900
   80bcc:	007a1200 	.word	0x007a1200
   80bd0:	0e4e1c00 	.word	0x0e4e1c00
   80bd4:	aaaaaaab 	.word	0xaaaaaaab

00080bd8 <_sbrk>:
{
	static unsigned char *heap = NULL;
	unsigned char *prev_heap;
	int ramend = (int)&__ram_end__;

	if (heap == NULL) {
   80bd8:	4b09      	ldr	r3, [pc, #36]	; (80c00 <_sbrk+0x28>)
   80bda:	681b      	ldr	r3, [r3, #0]
   80bdc:	b913      	cbnz	r3, 80be4 <_sbrk+0xc>
		heap = (unsigned char *)&_end;
   80bde:	4a09      	ldr	r2, [pc, #36]	; (80c04 <_sbrk+0x2c>)
   80be0:	4b07      	ldr	r3, [pc, #28]	; (80c00 <_sbrk+0x28>)
   80be2:	601a      	str	r2, [r3, #0]
	}
	prev_heap = heap;
   80be4:	4b06      	ldr	r3, [pc, #24]	; (80c00 <_sbrk+0x28>)
   80be6:	681b      	ldr	r3, [r3, #0]

	if (((int)prev_heap + incr) > ramend) {
   80be8:	181a      	adds	r2, r3, r0
   80bea:	4907      	ldr	r1, [pc, #28]	; (80c08 <_sbrk+0x30>)
   80bec:	4291      	cmp	r1, r2
   80bee:	db04      	blt.n	80bfa <_sbrk+0x22>
		return (caddr_t) -1;	
	}

	heap += incr;
   80bf0:	4610      	mov	r0, r2
   80bf2:	4a03      	ldr	r2, [pc, #12]	; (80c00 <_sbrk+0x28>)
   80bf4:	6010      	str	r0, [r2, #0]

	return (caddr_t) prev_heap;
   80bf6:	4618      	mov	r0, r3
   80bf8:	4770      	bx	lr
		heap = (unsigned char *)&_end;
	}
	prev_heap = heap;

	if (((int)prev_heap + incr) > ramend) {
		return (caddr_t) -1;	
   80bfa:	f04f 30ff 	mov.w	r0, #4294967295
	}

	heap += incr;

	return (caddr_t) prev_heap;
}
   80bfe:	4770      	bx	lr
   80c00:	20070988 	.word	0x20070988
   80c04:	20074200 	.word	0x20074200
   80c08:	20087ffc 	.word	0x20087ffc

00080c0c <adc_initialize>:

#include "ADC.h" 

/* A global Analog to Digital Controller initialization function */
void adc_initialize(void)
{
   80c0c:	b570      	push	{r4, r5, r6, lr}
	pmc_enable_periph_clk(ID_ADC);
   80c0e:	2025      	movs	r0, #37	; 0x25
   80c10:	4b19      	ldr	r3, [pc, #100]	; (80c78 <adc_initialize+0x6c>)
   80c12:	4798      	blx	r3
	adc_init(ADC, sysclk_get_main_hz(), ADC_FREQ_MIN, ADC_STARTUP_TIME_4);
   80c14:	4c19      	ldr	r4, [pc, #100]	; (80c7c <adc_initialize+0x70>)
   80c16:	f44f 2380 	mov.w	r3, #262144	; 0x40000
   80c1a:	4a19      	ldr	r2, [pc, #100]	; (80c80 <adc_initialize+0x74>)
   80c1c:	4919      	ldr	r1, [pc, #100]	; (80c84 <adc_initialize+0x78>)
   80c1e:	4620      	mov	r0, r4
   80c20:	4d19      	ldr	r5, [pc, #100]	; (80c88 <adc_initialize+0x7c>)
   80c22:	47a8      	blx	r5
	adc_configure_timing(ADC, 1, ADC_SETTLING_TIME_3, 1);
   80c24:	2301      	movs	r3, #1
   80c26:	f44f 1240 	mov.w	r2, #3145728	; 0x300000
   80c2a:	4619      	mov	r1, r3
   80c2c:	4620      	mov	r0, r4
   80c2e:	4d17      	ldr	r5, [pc, #92]	; (80c8c <adc_initialize+0x80>)
   80c30:	47a8      	blx	r5
	adc_set_resolution(ADC, ADC_MR_LOWRES_BITS_10);
   80c32:	2110      	movs	r1, #16
   80c34:	4620      	mov	r0, r4
   80c36:	4b16      	ldr	r3, [pc, #88]	; (80c90 <adc_initialize+0x84>)
   80c38:	4798      	blx	r3
	adc_configure_trigger(ADC, ADC_TRIG_SW, ADC_MR_FREERUN_OFF);
   80c3a:	2200      	movs	r2, #0
   80c3c:	4611      	mov	r1, r2
   80c3e:	4620      	mov	r0, r4
   80c40:	4b14      	ldr	r3, [pc, #80]	; (80c94 <adc_initialize+0x88>)
   80c42:	4798      	blx	r3
	adc_enable_tag(ADC);
   80c44:	4620      	mov	r0, r4
   80c46:	4b14      	ldr	r3, [pc, #80]	; (80c98 <adc_initialize+0x8c>)
   80c48:	4798      	blx	r3
   80c4a:	2300      	movs	r3, #0

	// Initialize data arrays
	for (uint8_t i = 0; i < MAX_NR_OF_ADC_CHANNELS; i++)
	{
		if (i < NR_OF_ACTIVE_ADC_CHANNELS)
			AdcChannels[i] = 0;
   80c4c:	4e13      	ldr	r6, [pc, #76]	; (80c9c <adc_initialize+0x90>)
   80c4e:	461a      	mov	r2, r3
		for (uint16_t j = 0; j < ADC_MEDIAN_FILTER_LENGTH; j++)
			AdcData[i][j] = 0;
   80c50:	4c13      	ldr	r4, [pc, #76]	; (80ca0 <adc_initialize+0x94>)
		AdcMedianCounter[i] = 0;
   80c52:	4d14      	ldr	r5, [pc, #80]	; (80ca4 <adc_initialize+0x98>)
	adc_enable_tag(ADC);

	// Initialize data arrays
	for (uint8_t i = 0; i < MAX_NR_OF_ADC_CHANNELS; i++)
	{
		if (i < NR_OF_ACTIVE_ADC_CHANNELS)
   80c54:	b2d9      	uxtb	r1, r3
   80c56:	2906      	cmp	r1, #6
			AdcChannels[i] = 0;
   80c58:	bf98      	it	ls
   80c5a:	54f2      	strbls	r2, [r6, r3]
		for (uint16_t j = 0; j < ADC_MEDIAN_FILTER_LENGTH; j++)
			AdcData[i][j] = 0;
   80c5c:	eb03 0043 	add.w	r0, r3, r3, lsl #1
   80c60:	eb04 0140 	add.w	r1, r4, r0, lsl #1
   80c64:	f824 2010 	strh.w	r2, [r4, r0, lsl #1]
   80c68:	804a      	strh	r2, [r1, #2]
   80c6a:	808a      	strh	r2, [r1, #4]
		AdcMedianCounter[i] = 0;
   80c6c:	54ea      	strb	r2, [r5, r3]
   80c6e:	3301      	adds	r3, #1
	adc_set_resolution(ADC, ADC_MR_LOWRES_BITS_10);
	adc_configure_trigger(ADC, ADC_TRIG_SW, ADC_MR_FREERUN_OFF);
	adc_enable_tag(ADC);

	// Initialize data arrays
	for (uint8_t i = 0; i < MAX_NR_OF_ADC_CHANNELS; i++)
   80c70:	2b0f      	cmp	r3, #15
   80c72:	d1ef      	bne.n	80c54 <adc_initialize+0x48>
			AdcData[i][j] = 0;
		AdcMedianCounter[i] = 0;
	}

	
}
   80c74:	bd70      	pop	{r4, r5, r6, pc}
   80c76:	bf00      	nop
   80c78:	00080705 	.word	0x00080705
   80c7c:	400c0000 	.word	0x400c0000
   80c80:	000f4240 	.word	0x000f4240
   80c84:	0a037a00 	.word	0x0a037a00
   80c88:	00080269 	.word	0x00080269
   80c8c:	000802bd 	.word	0x000802bd
   80c90:	0008029d 	.word	0x0008029d
   80c94:	000802ad 	.word	0x000802ad
   80c98:	000802ed 	.word	0x000802ed
   80c9c:	20071d2c 	.word	0x20071d2c
   80ca0:	20071838 	.word	0x20071838
   80ca4:	2007189c 	.word	0x2007189c

00080ca8 <adc_turn_on_multiple_channels>:
/* A global turn on ADC channels function, remember to define how many channels are used */
void adc_turn_on_multiple_channels (uint8_t ChannelNumber[NR_OF_ACTIVE_ADC_CHANNELS], uint8_t EnableAdcInterrupt, uint8_t AdcInterruptPriority)
{
   80ca8:	e92d 47f0 	stmdb	sp!, {r4, r5, r6, r7, r8, r9, sl, lr}
   80cac:	4689      	mov	r9, r1
   80cae:	4692      	mov	sl, r2
   80cb0:	1e45      	subs	r5, r0, #1
   80cb2:	2400      	movs	r4, #0
	for (uint8_t i = 0; i < NR_OF_ACTIVE_ADC_CHANNELS; i++){
		// Turn on each described channel
		adc_enable_channel(ADC, ChannelNumber[i]);
   80cb4:	f8df 803c 	ldr.w	r8, [pc, #60]	; 80cf4 <adc_turn_on_multiple_channels+0x4c>
   80cb8:	4f0c      	ldr	r7, [pc, #48]	; (80cec <adc_turn_on_multiple_channels+0x44>)
		// Store the channel numbers for interrupts
		AdcChannels[i] = ChannelNumber[i];	
   80cba:	4e0d      	ldr	r6, [pc, #52]	; (80cf0 <adc_turn_on_multiple_channels+0x48>)
/* A global turn on ADC channels function, remember to define how many channels are used */
void adc_turn_on_multiple_channels (uint8_t ChannelNumber[NR_OF_ACTIVE_ADC_CHANNELS], uint8_t EnableAdcInterrupt, uint8_t AdcInterruptPriority)
{
	for (uint8_t i = 0; i < NR_OF_ACTIVE_ADC_CHANNELS; i++){
		// Turn on each described channel
		adc_enable_channel(ADC, ChannelNumber[i]);
   80cbc:	f815 1f01 	ldrb.w	r1, [r5, #1]!
   80cc0:	4640      	mov	r0, r8
   80cc2:	47b8      	blx	r7
		// Store the channel numbers for interrupts
		AdcChannels[i] = ChannelNumber[i];	
   80cc4:	782b      	ldrb	r3, [r5, #0]
   80cc6:	5533      	strb	r3, [r6, r4]
   80cc8:	3401      	adds	r4, #1
	
}
/* A global turn on ADC channels function, remember to define how many channels are used */
void adc_turn_on_multiple_channels (uint8_t ChannelNumber[NR_OF_ACTIVE_ADC_CHANNELS], uint8_t EnableAdcInterrupt, uint8_t AdcInterruptPriority)
{
	for (uint8_t i = 0; i < NR_OF_ACTIVE_ADC_CHANNELS; i++){
   80cca:	2c07      	cmp	r4, #7
   80ccc:	d1f6      	bne.n	80cbc <adc_turn_on_multiple_channels+0x14>
		adc_enable_channel(ADC, ChannelNumber[i]);
		// Store the channel numbers for interrupts
		AdcChannels[i] = ChannelNumber[i];	
		//uart_print_string("Channel: "); uart_print_int(channel_number[i]);
	}
	if (EnableAdcInterrupt)
   80cce:	f1b9 0f00 	cmp.w	r9, #0
   80cd2:	d008      	beq.n	80ce6 <adc_turn_on_multiple_channels+0x3e>
	{
		adc_enable_interrupt(ADC, ADC_IER_DRDY);
   80cd4:	f04f 7180 	mov.w	r1, #16777216	; 0x1000000
   80cd8:	4806      	ldr	r0, [pc, #24]	; (80cf4 <adc_turn_on_multiple_channels+0x4c>)
   80cda:	4b07      	ldr	r3, [pc, #28]	; (80cf8 <adc_turn_on_multiple_channels+0x50>)
   80cdc:	4798      	blx	r3
		interrupts_enable_interrupt_vector(ADC_IRQn, AdcInterruptPriority);
   80cde:	4651      	mov	r1, sl
   80ce0:	2025      	movs	r0, #37	; 0x25
   80ce2:	4b06      	ldr	r3, [pc, #24]	; (80cfc <adc_turn_on_multiple_channels+0x54>)
   80ce4:	4798      	blx	r3
   80ce6:	e8bd 87f0 	ldmia.w	sp!, {r4, r5, r6, r7, r8, r9, sl, pc}
   80cea:	bf00      	nop
   80cec:	000802e1 	.word	0x000802e1
   80cf0:	20071d2c 	.word	0x20071d2c
   80cf4:	400c0000 	.word	0x400c0000
   80cf8:	000802f9 	.word	0x000802f9
   80cfc:	0008131d 	.word	0x0008131d

00080d00 <ADC_Handler>:
	}
}

void ADC_Handler(void)
{
   80d00:	b410      	push	{r4}
	7 6 5 4 3 2 1 0
	     LDATA   
	CHNB: Channel number
	LDATA: Last Data Converted */
	/************************************************************************/
	uint16_t Result = ADC->ADC_LCDR; //Last converted data register
   80d02:	4b0f      	ldr	r3, [pc, #60]	; (80d40 <ADC_Handler+0x40>)
   80d04:	6a1b      	ldr	r3, [r3, #32]
   80d06:	b29b      	uxth	r3, r3
	uint16_t ChannelNumber = ((Result & 0xF000) >> 12);
	AdcData[ChannelNumber][AdcMedianCounter[ChannelNumber]] = (0x0FFF & Result); // Discard channel number from results
   80d08:	0b19      	lsrs	r1, r3, #12
   80d0a:	480e      	ldr	r0, [pc, #56]	; (80d44 <ADC_Handler+0x44>)
   80d0c:	5c44      	ldrb	r4, [r0, r1]
   80d0e:	f3c3 030b 	ubfx	r3, r3, #0, #12
   80d12:	eb01 0241 	add.w	r2, r1, r1, lsl #1
   80d16:	4422      	add	r2, r4
   80d18:	4c0b      	ldr	r4, [pc, #44]	; (80d48 <ADC_Handler+0x48>)
   80d1a:	f824 3012 	strh.w	r3, [r4, r2, lsl #1]
	AdcMedianCounter[ChannelNumber] = (AdcMedianCounter[ChannelNumber] + 1) % ADC_MEDIAN_FILTER_LENGTH;
   80d1e:	5c43      	ldrb	r3, [r0, r1]
   80d20:	3301      	adds	r3, #1
   80d22:	4a0a      	ldr	r2, [pc, #40]	; (80d4c <ADC_Handler+0x4c>)
   80d24:	fb82 4203 	smull	r4, r2, r2, r3
   80d28:	eba2 72e3 	sub.w	r2, r2, r3, asr #31
   80d2c:	eb02 0242 	add.w	r2, r2, r2, lsl #1
   80d30:	1a9b      	subs	r3, r3, r2
   80d32:	b2db      	uxtb	r3, r3
   80d34:	5443      	strb	r3, [r0, r1]
	AdcFlag = TRUE;
   80d36:	2201      	movs	r2, #1
   80d38:	4b05      	ldr	r3, [pc, #20]	; (80d50 <ADC_Handler+0x50>)
   80d3a:	701a      	strb	r2, [r3, #0]
   80d3c:	bc10      	pop	{r4}
   80d3e:	4770      	bx	lr
   80d40:	400c0000 	.word	0x400c0000
   80d44:	2007189c 	.word	0x2007189c
   80d48:	20071838 	.word	0x20071838
   80d4c:	55555556 	.word	0x55555556
   80d50:	20071d2a 	.word	0x20071d2a

00080d54 <decoders_crank_primary>:

#include "decoders.h"


void decoders_crank_primary(void)
{
   80d54:	e92d 43f8 	stmdb	sp!, {r3, r4, r5, r6, r7, r8, r9, lr}
	if (CrankSignalFlag)
   80d58:	4b4d      	ldr	r3, [pc, #308]	; (80e90 <decoders_crank_primary+0x13c>)
   80d5a:	781b      	ldrb	r3, [r3, #0]
   80d5c:	f013 0fff 	tst.w	r3, #255	; 0xff
   80d60:	f000 8094 	beq.w	80e8c <decoders_crank_primary+0x138>
	{
		if(CrankCurrCycleCounts > (3 * (CrankPrevCycleCounts >> 1)))
   80d64:	4b4b      	ldr	r3, [pc, #300]	; (80e94 <decoders_crank_primary+0x140>)
   80d66:	681b      	ldr	r3, [r3, #0]
   80d68:	4a4b      	ldr	r2, [pc, #300]	; (80e98 <decoders_crank_primary+0x144>)
   80d6a:	6812      	ldr	r2, [r2, #0]
   80d6c:	085b      	lsrs	r3, r3, #1
   80d6e:	eb03 0343 	add.w	r3, r3, r3, lsl #1
   80d72:	4293      	cmp	r3, r2
   80d74:	d253      	bcs.n	80e1e <decoders_crank_primary+0xca>
		{
			if (isDebug)
   80d76:	4b49      	ldr	r3, [pc, #292]	; (80e9c <decoders_crank_primary+0x148>)
   80d78:	681b      	ldr	r3, [r3, #0]
   80d7a:	b143      	cbz	r3, 80d8e <decoders_crank_primary+0x3a>
			{
				uart_print_string("C "); uart_print_int(CrankTooth); uart_new_line();
   80d7c:	4848      	ldr	r0, [pc, #288]	; (80ea0 <decoders_crank_primary+0x14c>)
   80d7e:	4b49      	ldr	r3, [pc, #292]	; (80ea4 <decoders_crank_primary+0x150>)
   80d80:	4798      	blx	r3
   80d82:	4b49      	ldr	r3, [pc, #292]	; (80ea8 <decoders_crank_primary+0x154>)
   80d84:	7818      	ldrb	r0, [r3, #0]
   80d86:	4b49      	ldr	r3, [pc, #292]	; (80eac <decoders_crank_primary+0x158>)
   80d88:	4798      	blx	r3
   80d8a:	4b49      	ldr	r3, [pc, #292]	; (80eb0 <decoders_crank_primary+0x15c>)
   80d8c:	4798      	blx	r3
			}
			CrankTooth = 0;
   80d8e:	2500      	movs	r5, #0
   80d90:	4b45      	ldr	r3, [pc, #276]	; (80ea8 <decoders_crank_primary+0x154>)
   80d92:	701d      	strb	r5, [r3, #0]
			CrankSecondTooth = TachPulse;
   80d94:	4b47      	ldr	r3, [pc, #284]	; (80eb4 <decoders_crank_primary+0x160>)
   80d96:	781b      	ldrb	r3, [r3, #0]
   80d98:	b2db      	uxtb	r3, r3
   80d9a:	4a47      	ldr	r2, [pc, #284]	; (80eb8 <decoders_crank_primary+0x164>)
   80d9c:	7013      	strb	r3, [r2, #0]
			
			// uart_print_string("C "); uart_print_int(CrankTooth); uart_new_line();
			CamSignalFlag ^= TRUE;
   80d9e:	4a47      	ldr	r2, [pc, #284]	; (80ebc <decoders_crank_primary+0x168>)
   80da0:	7813      	ldrb	r3, [r2, #0]
   80da2:	f083 0301 	eor.w	r3, r3, #1
   80da6:	7013      	strb	r3, [r2, #0]
			IgnitionDegree = math_interpolation_array(engine_realtime.Rpm, engine_realtime.Map, &IGN);
   80da8:	4c45      	ldr	r4, [pc, #276]	; (80ec0 <decoders_crank_primary+0x16c>)
   80daa:	89e0      	ldrh	r0, [r4, #14]
   80dac:	88a1      	ldrh	r1, [r4, #4]
   80dae:	4a45      	ldr	r2, [pc, #276]	; (80ec4 <decoders_crank_primary+0x170>)
   80db0:	b289      	uxth	r1, r1
   80db2:	b280      	uxth	r0, r0
   80db4:	4b44      	ldr	r3, [pc, #272]	; (80ec8 <decoders_crank_primary+0x174>)
   80db6:	4798      	blx	r3
   80db8:	4e44      	ldr	r6, [pc, #272]	; (80ecc <decoders_crank_primary+0x178>)
   80dba:	8030      	strh	r0, [r6, #0]
			
			DwellDegree = IgnitionDegree + igncalc_dwell_degree();
   80dbc:	4b44      	ldr	r3, [pc, #272]	; (80ed0 <decoders_crank_primary+0x17c>)
   80dbe:	4798      	blx	r3
   80dc0:	8833      	ldrh	r3, [r6, #0]
   80dc2:	4418      	add	r0, r3
   80dc4:	b280      	uxth	r0, r0
   80dc6:	4f43      	ldr	r7, [pc, #268]	; (80ed4 <decoders_crank_primary+0x180>)
   80dc8:	8038      	strh	r0, [r7, #0]
			{
				//uart_transfer('C'); uart_print_int(igncalc_dwell_degree()); uart_new_line();
			}
			
			// uart_transfer('D'); uart_print_int(DwellDegree); uart_new_line();
			DwellSecondTach = igncalc_ign_time_teeth(DwellDegree);
   80dca:	8838      	ldrh	r0, [r7, #0]
   80dcc:	b2c0      	uxtb	r0, r0
   80dce:	f8df 8120 	ldr.w	r8, [pc, #288]	; 80ef0 <decoders_crank_primary+0x19c>
   80dd2:	47c0      	blx	r8
   80dd4:	b2c0      	uxtb	r0, r0
   80dd6:	4b40      	ldr	r3, [pc, #256]	; (80ed8 <decoders_crank_primary+0x184>)
   80dd8:	7018      	strb	r0, [r3, #0]
			DwellSecondInterval = igncalc_ign_time_interval(DwellDegree) + decoders_tooth_degree_correction();
   80dda:	8838      	ldrh	r0, [r7, #0]
   80ddc:	b2c0      	uxtb	r0, r0
   80dde:	f8df 9118 	ldr.w	r9, [pc, #280]	; 80ef8 <decoders_crank_primary+0x1a4>
   80de2:	47c8      	blx	r9
// Ignition timing correction.  
// The 0 is at the middle of the tooth and calculations are done at the edge of every tooth.
// This function corrects the calculations by shifting the tach degree (0 and 180 in this case) to the middle of the tooth
uint32_t decoders_tooth_degree_correction(void)
{
	return CrankPrevCycleCounts/4;
   80de4:	4f2b      	ldr	r7, [pc, #172]	; (80e94 <decoders_crank_primary+0x140>)
   80de6:	683b      	ldr	r3, [r7, #0]
				//uart_transfer('C'); uart_print_int(igncalc_dwell_degree()); uart_new_line();
			}
			
			// uart_transfer('D'); uart_print_int(DwellDegree); uart_new_line();
			DwellSecondTach = igncalc_ign_time_teeth(DwellDegree);
			DwellSecondInterval = igncalc_ign_time_interval(DwellDegree) + decoders_tooth_degree_correction();
   80de8:	eb00 0093 	add.w	r0, r0, r3, lsr #2
   80dec:	4b3b      	ldr	r3, [pc, #236]	; (80edc <decoders_crank_primary+0x188>)
   80dee:	6018      	str	r0, [r3, #0]
			
			
			CrankSecondTach = igncalc_ign_time_teeth(IgnitionDegree);
   80df0:	8830      	ldrh	r0, [r6, #0]
   80df2:	b2c0      	uxtb	r0, r0
   80df4:	47c0      	blx	r8
   80df6:	b2c0      	uxtb	r0, r0
   80df8:	4b39      	ldr	r3, [pc, #228]	; (80ee0 <decoders_crank_primary+0x18c>)
   80dfa:	7018      	strb	r0, [r3, #0]
			CrankSecondInterval = igncalc_ign_time_interval(IgnitionDegree) + decoders_tooth_degree_correction();
   80dfc:	8830      	ldrh	r0, [r6, #0]
   80dfe:	b2c0      	uxtb	r0, r0
   80e00:	47c8      	blx	r9
// Ignition timing correction.  
// The 0 is at the middle of the tooth and calculations are done at the edge of every tooth.
// This function corrects the calculations by shifting the tach degree (0 and 180 in this case) to the middle of the tooth
uint32_t decoders_tooth_degree_correction(void)
{
	return CrankPrevCycleCounts/4;
   80e02:	683b      	ldr	r3, [r7, #0]
			DwellSecondTach = igncalc_ign_time_teeth(DwellDegree);
			DwellSecondInterval = igncalc_ign_time_interval(DwellDegree) + decoders_tooth_degree_correction();
			
			
			CrankSecondTach = igncalc_ign_time_teeth(IgnitionDegree);
			CrankSecondInterval = igncalc_ign_time_interval(IgnitionDegree) + decoders_tooth_degree_correction();
   80e04:	eb00 0093 	add.w	r0, r0, r3, lsr #2
   80e08:	4b36      	ldr	r3, [pc, #216]	; (80ee4 <decoders_crank_primary+0x190>)
   80e0a:	6018      	str	r0, [r3, #0]
			}
			*/
			
			
			// RPM calculations
			uint64_t CalcRpm = GLOBAL_TIMER_FREQ * 60 / CrankRevCounts;
   80e0c:	4a36      	ldr	r2, [pc, #216]	; (80ee8 <decoders_crank_primary+0x194>)
   80e0e:	6811      	ldr	r1, [r2, #0]
			// TODO: CHECK if calculated RPM is crap, well above redline (high frequency filter)
			engine_realtime.Rpm = (uint16_t)CalcRpm;
   80e10:	4b36      	ldr	r3, [pc, #216]	; (80eec <decoders_crank_primary+0x198>)
   80e12:	fbb3 f3f1 	udiv	r3, r3, r1
   80e16:	b29b      	uxth	r3, r3
   80e18:	81e3      	strh	r3, [r4, #14]
			
			
			
			CrankRevCounts = 0;
   80e1a:	6015      	str	r5, [r2, #0]
   80e1c:	e033      	b.n	80e86 <decoders_crank_primary+0x132>
			
		}
		else if (CrankTooth == TachPulse)
   80e1e:	4b22      	ldr	r3, [pc, #136]	; (80ea8 <decoders_crank_primary+0x154>)
   80e20:	781b      	ldrb	r3, [r3, #0]
   80e22:	4a24      	ldr	r2, [pc, #144]	; (80eb4 <decoders_crank_primary+0x160>)
   80e24:	7812      	ldrb	r2, [r2, #0]
   80e26:	b2db      	uxtb	r3, r3
   80e28:	4293      	cmp	r3, r2
   80e2a:	d12c      	bne.n	80e86 <decoders_crank_primary+0x132>
		{
			CrankSecondTooth = 0;
   80e2c:	2200      	movs	r2, #0
   80e2e:	4b22      	ldr	r3, [pc, #136]	; (80eb8 <decoders_crank_primary+0x164>)
   80e30:	701a      	strb	r2, [r3, #0]
			IgnitionDegree = math_interpolation_array(engine_realtime.Rpm, engine_realtime.Map, &IGN);
   80e32:	4b23      	ldr	r3, [pc, #140]	; (80ec0 <decoders_crank_primary+0x16c>)
   80e34:	89d8      	ldrh	r0, [r3, #14]
   80e36:	8899      	ldrh	r1, [r3, #4]
   80e38:	4a22      	ldr	r2, [pc, #136]	; (80ec4 <decoders_crank_primary+0x170>)
   80e3a:	b289      	uxth	r1, r1
   80e3c:	b280      	uxth	r0, r0
   80e3e:	4b22      	ldr	r3, [pc, #136]	; (80ec8 <decoders_crank_primary+0x174>)
   80e40:	4798      	blx	r3
   80e42:	4c22      	ldr	r4, [pc, #136]	; (80ecc <decoders_crank_primary+0x178>)
   80e44:	8020      	strh	r0, [r4, #0]
			
			DwellFirstTach = igncalc_ign_time_teeth(DwellDegree);
   80e46:	4d23      	ldr	r5, [pc, #140]	; (80ed4 <decoders_crank_primary+0x180>)
   80e48:	8828      	ldrh	r0, [r5, #0]
   80e4a:	b2c0      	uxtb	r0, r0
   80e4c:	4f28      	ldr	r7, [pc, #160]	; (80ef0 <decoders_crank_primary+0x19c>)
   80e4e:	47b8      	blx	r7
   80e50:	b2c0      	uxtb	r0, r0
   80e52:	4b28      	ldr	r3, [pc, #160]	; (80ef4 <decoders_crank_primary+0x1a0>)
   80e54:	7018      	strb	r0, [r3, #0]
			/*if (DwellFirstTach < TachPulse && DwellFirstTach > TachPulse - )
			{
			}*/
			DwellFirstInterval = igncalc_ign_time_interval(DwellDegree) + decoders_tooth_degree_correction();
   80e56:	8828      	ldrh	r0, [r5, #0]
   80e58:	b2c0      	uxtb	r0, r0
   80e5a:	4e27      	ldr	r6, [pc, #156]	; (80ef8 <decoders_crank_primary+0x1a4>)
   80e5c:	47b0      	blx	r6
// Ignition timing correction.  
// The 0 is at the middle of the tooth and calculations are done at the edge of every tooth.
// This function corrects the calculations by shifting the tach degree (0 and 180 in this case) to the middle of the tooth
uint32_t decoders_tooth_degree_correction(void)
{
	return CrankPrevCycleCounts/4;
   80e5e:	4d0d      	ldr	r5, [pc, #52]	; (80e94 <decoders_crank_primary+0x140>)
   80e60:	682b      	ldr	r3, [r5, #0]
			
			DwellFirstTach = igncalc_ign_time_teeth(DwellDegree);
			/*if (DwellFirstTach < TachPulse && DwellFirstTach > TachPulse - )
			{
			}*/
			DwellFirstInterval = igncalc_ign_time_interval(DwellDegree) + decoders_tooth_degree_correction();
   80e62:	eb00 0093 	add.w	r0, r0, r3, lsr #2
   80e66:	4b25      	ldr	r3, [pc, #148]	; (80efc <decoders_crank_primary+0x1a8>)
   80e68:	6018      	str	r0, [r3, #0]
			
			CrankFirstTach = igncalc_ign_time_teeth(IgnitionDegree);
   80e6a:	8820      	ldrh	r0, [r4, #0]
   80e6c:	b2c0      	uxtb	r0, r0
   80e6e:	47b8      	blx	r7
   80e70:	b2c0      	uxtb	r0, r0
   80e72:	4b23      	ldr	r3, [pc, #140]	; (80f00 <decoders_crank_primary+0x1ac>)
   80e74:	7018      	strb	r0, [r3, #0]
			CrankFirstInterval = igncalc_ign_time_interval(IgnitionDegree) + decoders_tooth_degree_correction();
   80e76:	8820      	ldrh	r0, [r4, #0]
   80e78:	b2c0      	uxtb	r0, r0
   80e7a:	47b0      	blx	r6
// Ignition timing correction.  
// The 0 is at the middle of the tooth and calculations are done at the edge of every tooth.
// This function corrects the calculations by shifting the tach degree (0 and 180 in this case) to the middle of the tooth
uint32_t decoders_tooth_degree_correction(void)
{
	return CrankPrevCycleCounts/4;
   80e7c:	682b      	ldr	r3, [r5, #0]
			{
			}*/
			DwellFirstInterval = igncalc_ign_time_interval(DwellDegree) + decoders_tooth_degree_correction();
			
			CrankFirstTach = igncalc_ign_time_teeth(IgnitionDegree);
			CrankFirstInterval = igncalc_ign_time_interval(IgnitionDegree) + decoders_tooth_degree_correction();
   80e7e:	eb00 0093 	add.w	r0, r0, r3, lsr #2
   80e82:	4b20      	ldr	r3, [pc, #128]	; (80f04 <decoders_crank_primary+0x1b0>)
   80e84:	6018      	str	r0, [r3, #0]
			CrankSecondTach = 23 - igncalc_ign_time_teeth(DEGREE_TEST);
			CrankSecondInterval = igncalc_ign_time_interval(DEGREE_TEST) + decoders_tooth_degree_correction();
			*/
			
		}
		CrankSignalFlag = FALSE;
   80e86:	2200      	movs	r2, #0
   80e88:	4b01      	ldr	r3, [pc, #4]	; (80e90 <decoders_crank_primary+0x13c>)
   80e8a:	701a      	strb	r2, [r3, #0]
   80e8c:	e8bd 83f8 	ldmia.w	sp!, {r3, r4, r5, r6, r7, r8, r9, pc}
   80e90:	200721e8 	.word	0x200721e8
   80e94:	200721dc 	.word	0x200721dc
   80e98:	20070a24 	.word	0x20070a24
   80e9c:	20071cd0 	.word	0x20071cd0
   80ea0:	00083918 	.word	0x00083918
   80ea4:	000824f9 	.word	0x000824f9
   80ea8:	20072135 	.word	0x20072135
   80eac:	00082499 	.word	0x00082499
   80eb0:	000824e9 	.word	0x000824e9
   80eb4:	200721ea 	.word	0x200721ea
   80eb8:	20071d29 	.word	0x20071d29
   80ebc:	20071d28 	.word	0x20071d28
   80ec0:	20071400 	.word	0x20071400
   80ec4:	20071d18 	.word	0x20071d18
   80ec8:	000816d1 	.word	0x000816d1
   80ecc:	200709c0 	.word	0x200709c0
   80ed0:	00081295 	.word	0x00081295
   80ed4:	200721f0 	.word	0x200721f0
   80ed8:	20071430 	.word	0x20071430
   80edc:	20071cc8 	.word	0x20071cc8
   80ee0:	20071898 	.word	0x20071898
   80ee4:	20071894 	.word	0x20071894
   80ee8:	200709d8 	.word	0x200709d8
   80eec:	09634260 	.word	0x09634260
   80ef0:	00081165 	.word	0x00081165
   80ef4:	200721d8 	.word	0x200721d8
   80ef8:	000811dd 	.word	0x000811dd
   80efc:	200709c8 	.word	0x200709c8
   80f00:	20071d14 	.word	0x20071d14
   80f04:	200721f4 	.word	0x200721f4

00080f08 <eeprom_init>:

 #include "eeprom.h"

 // Initialization function
 void eeprom_init(void)
 {
   80f08:	b500      	push	{lr}
   80f0a:	b085      	sub	sp, #20
	pmc_enable_periph_clk(ID_TWI1);				// Enable peripheral clock
   80f0c:	2017      	movs	r0, #23
   80f0e:	4b10      	ldr	r3, [pc, #64]	; (80f50 <eeprom_init+0x48>)
   80f10:	4798      	blx	r3
	#define TWI_DATA_PIN PIO_PB12A_TWD1			// Define TWI data pin
	#define TWI_CLOCK_PIN PIO_PB13A_TWCK1		// Define TWI clock pin
	#define TWI_PERIPHERAL PIOB					// Define TWI peripheral (either A(TWI0) or B(TWI1))
	TWI_PERIPHERAL->PIO_IDR = TWI_DATA_PIN;		// Interrupt disable register
   80f12:	4b10      	ldr	r3, [pc, #64]	; (80f54 <eeprom_init+0x4c>)
   80f14:	f44f 5180 	mov.w	r1, #4096	; 0x1000
   80f18:	6459      	str	r1, [r3, #68]	; 0x44
	TWI_PERIPHERAL->PIO_IDR = TWI_CLOCK_PIN;	
   80f1a:	f44f 5200 	mov.w	r2, #8192	; 0x2000
   80f1e:	645a      	str	r2, [r3, #68]	; 0x44
	TWI_PERIPHERAL->PIO_PDR = TWI_DATA_PIN;		// Disable input/output which enables peripheral mode
   80f20:	6059      	str	r1, [r3, #4]
	TWI_PERIPHERAL->PIO_PDR = TWI_CLOCK_PIN;
   80f22:	605a      	str	r2, [r3, #4]
	TWI_PERIPHERAL->PIO_ABSR &= ~TWI_DATA_PIN;	// Enable Peripheral A (TWI)
   80f24:	6f18      	ldr	r0, [r3, #112]	; 0x70
   80f26:	f420 5080 	bic.w	r0, r0, #4096	; 0x1000
   80f2a:	6718      	str	r0, [r3, #112]	; 0x70
	TWI_PERIPHERAL->PIO_ABSR &= ~TWI_CLOCK_PIN;
   80f2c:	6f18      	ldr	r0, [r3, #112]	; 0x70
   80f2e:	f420 5000 	bic.w	r0, r0, #8192	; 0x2000
   80f32:	6718      	str	r0, [r3, #112]	; 0x70
	TWI_PERIPHERAL->PIO_PUER = TWI_DATA_PIN;
   80f34:	6659      	str	r1, [r3, #100]	; 0x64
	TWI_PERIPHERAL->PIO_PUER = TWI_CLOCK_PIN;
   80f36:	665a      	str	r2, [r3, #100]	; 0x64
	// Initialize TWI 
	twi_options_t opt;
	opt.master_clk = sysclk_get_cpu_hz(); opt.speed = 400000; // 400KHz clock frequency
   80f38:	4b07      	ldr	r3, [pc, #28]	; (80f58 <eeprom_init+0x50>)
   80f3a:	9301      	str	r3, [sp, #4]
   80f3c:	4b07      	ldr	r3, [pc, #28]	; (80f5c <eeprom_init+0x54>)
   80f3e:	9302      	str	r3, [sp, #8]
	twi_master_init(TWI1, &opt);
   80f40:	a901      	add	r1, sp, #4
   80f42:	4807      	ldr	r0, [pc, #28]	; (80f60 <eeprom_init+0x58>)
   80f44:	4b07      	ldr	r3, [pc, #28]	; (80f64 <eeprom_init+0x5c>)
   80f46:	4798      	blx	r3
 }
   80f48:	b005      	add	sp, #20
   80f4a:	f85d fb04 	ldr.w	pc, [sp], #4
   80f4e:	bf00      	nop
   80f50:	00080705 	.word	0x00080705
   80f54:	400e1000 	.word	0x400e1000
   80f58:	0501bd00 	.word	0x0501bd00
   80f5c:	00061a80 	.word	0x00061a80
   80f60:	40090000 	.word	0x40090000
   80f64:	0008084d 	.word	0x0008084d

00080f68 <eeprom_read_byte>:

// More advanced function to read from the EEPROM
// It basicly checks for TWI comm. success and retries until it enables a Fault
uint8_t eeprom_read_byte(uint16_t address)
{
   80f68:	b5f0      	push	{r4, r5, r6, r7, lr}
   80f6a:	b083      	sub	sp, #12
   80f6c:	4607      	mov	r7, r0
	uint8_t result = 0;
   80f6e:	ad02      	add	r5, sp, #8
   80f70:	2300      	movs	r3, #0
   80f72:	f805 3d01 	strb.w	r3, [r5, #-1]!
   80f76:	240a      	movs	r4, #10
	// Try to read specific number of times otherwise FAULT
	for (uint8_t i = 0; i < TWI_NUMBER_OF_TRIES; i++)
		if (!(at24cxx_read_byte(address, &result) & AT24C_READ_FAIL))
   80f78:	4e0d      	ldr	r6, [pc, #52]	; (80fb0 <eeprom_read_byte+0x48>)
   80f7a:	4629      	mov	r1, r5
   80f7c:	4638      	mov	r0, r7
   80f7e:	47b0      	blx	r6
   80f80:	f010 0f01 	tst.w	r0, #1
   80f84:	d102      	bne.n	80f8c <eeprom_read_byte+0x24>
			return result;
   80f86:	f89d 0007 	ldrb.w	r0, [sp, #7]
   80f8a:	e00f      	b.n	80fac <eeprom_read_byte+0x44>
   80f8c:	1e63      	subs	r3, r4, #1
// It basicly checks for TWI comm. success and retries until it enables a Fault
uint8_t eeprom_read_byte(uint16_t address)
{
	uint8_t result = 0;
	// Try to read specific number of times otherwise FAULT
	for (uint8_t i = 0; i < TWI_NUMBER_OF_TRIES; i++)
   80f8e:	f013 04ff 	ands.w	r4, r3, #255	; 0xff
   80f92:	d1f2      	bne.n	80f7a <eeprom_read_byte+0x12>
		if (!(at24cxx_read_byte(address, &result) & AT24C_READ_FAIL))
			return result;

	// Let know that there is a fault on the Two wire interface
	engine_realtime.TwiFault = TRUE;
   80f94:	4d07      	ldr	r5, [pc, #28]	; (80fb4 <eeprom_read_byte+0x4c>)
   80f96:	2401      	movs	r4, #1
   80f98:	77ec      	strb	r4, [r5, #31]
	uart_print_string("TwiFault: "); uart_print_int(engine_realtime.TwiFault); uart_new_line();
   80f9a:	4807      	ldr	r0, [pc, #28]	; (80fb8 <eeprom_read_byte+0x50>)
   80f9c:	4b07      	ldr	r3, [pc, #28]	; (80fbc <eeprom_read_byte+0x54>)
   80f9e:	4798      	blx	r3
   80fa0:	7fe8      	ldrb	r0, [r5, #31]
   80fa2:	4b07      	ldr	r3, [pc, #28]	; (80fc0 <eeprom_read_byte+0x58>)
   80fa4:	4798      	blx	r3
   80fa6:	4b07      	ldr	r3, [pc, #28]	; (80fc4 <eeprom_read_byte+0x5c>)
   80fa8:	4798      	blx	r3
	return 1; // 1 is the safest number regarding IGN, VE and AFR map
   80faa:	4620      	mov	r0, r4
}
   80fac:	b003      	add	sp, #12
   80fae:	bdf0      	pop	{r4, r5, r6, r7, pc}
   80fb0:	000801f5 	.word	0x000801f5
   80fb4:	20071400 	.word	0x20071400
   80fb8:	0008391c 	.word	0x0008391c
   80fbc:	000824f9 	.word	0x000824f9
   80fc0:	00082499 	.word	0x00082499
   80fc4:	000824e9 	.word	0x000824e9

00080fc8 <cylinder_init>:
	table_init();
	cylinder_init();
}

void cylinder_init(void)
{
   80fc8:	b430      	push	{r4, r5}
   80fca:	2100      	movs	r1, #0
	for (uint8_t i = 0; i < NR_OF_CYL; i++)
	{
		cylinder[i].IgnCntTimingOn = 0;
   80fcc:	4d22      	ldr	r5, [pc, #136]	; (81058 <cylinder_init+0x90>)
   80fce:	460a      	mov	r2, r1
		cylinder[i].IgnCntTimingOff = 0;
		cylinder[i].InjCntTimingOn = 0;
		cylinder[i].InjCntTimingOff = 0;
		cylinder[i].Ign_pio = PIOC;
   80fd0:	4c22      	ldr	r4, [pc, #136]	; (8105c <cylinder_init+0x94>)

void cylinder_init(void)
{
	for (uint8_t i = 0; i < NR_OF_CYL; i++)
	{
		cylinder[i].IgnCntTimingOn = 0;
   80fd2:	0148      	lsls	r0, r1, #5
   80fd4:	182b      	adds	r3, r5, r0
   80fd6:	502a      	str	r2, [r5, r0]
		cylinder[i].IgnCntTimingOff = 0;
   80fd8:	605a      	str	r2, [r3, #4]
		cylinder[i].InjCntTimingOn = 0;
   80fda:	609a      	str	r2, [r3, #8]
		cylinder[i].InjCntTimingOff = 0;
   80fdc:	60da      	str	r2, [r3, #12]
		cylinder[i].Ign_pio = PIOC;
   80fde:	615c      	str	r4, [r3, #20]
		cylinder[i].Inj_pio = PIOC;
   80fe0:	61dc      	str	r4, [r3, #28]
   80fe2:	3101      	adds	r1, #1
	cylinder_init();
}

void cylinder_init(void)
{
	for (uint8_t i = 0; i < NR_OF_CYL; i++)
   80fe4:	2904      	cmp	r1, #4
   80fe6:	d1f4      	bne.n	80fd2 <cylinder_init+0xa>
		cylinder[i].InjCntTimingOn = 0;
		cylinder[i].InjCntTimingOff = 0;
		cylinder[i].Ign_pio = PIOC;
		cylinder[i].Inj_pio = PIOC;
	}
	cylinder[1].Inj_pio = PIOD; // Because the board developer did not thought it through :)
   80fe8:	4b1b      	ldr	r3, [pc, #108]	; (81058 <cylinder_init+0x90>)
   80fea:	4a1d      	ldr	r2, [pc, #116]	; (81060 <cylinder_init+0x98>)
   80fec:	63da      	str	r2, [r3, #60]	; 0x3c
	cylinder[0].IgnOutputPin = IGN1_OUT;
   80fee:	f44f 2200 	mov.w	r2, #524288	; 0x80000
   80ff2:	611a      	str	r2, [r3, #16]
	cylinder[1].IgnOutputPin = IGN2_OUT;
   80ff4:	f44f 0200 	mov.w	r2, #8388608	; 0x800000
   80ff8:	631a      	str	r2, [r3, #48]	; 0x30
	cylinder[2].IgnOutputPin = IGN3_OUT;
   80ffa:	f44f 3200 	mov.w	r2, #131072	; 0x20000
   80ffe:	651a      	str	r2, [r3, #80]	; 0x50
	cylinder[3].IgnOutputPin = IGN4_OUT;
   81000:	f04f 7200 	mov.w	r2, #33554432	; 0x2000000
   81004:	671a      	str	r2, [r3, #112]	; 0x70
	cylinder[4].IgnOutputPin = IGN5_OUT;
   81006:	f04f 4280 	mov.w	r2, #1073741824	; 0x40000000
   8100a:	f8c3 2090 	str.w	r2, [r3, #144]	; 0x90
	cylinder[5].IgnOutputPin = IGN6_OUT;
   8100e:	f04f 5200 	mov.w	r2, #536870912	; 0x20000000
   81012:	f8c3 20b0 	str.w	r2, [r3, #176]	; 0xb0
	cylinder[6].IgnOutputPin = IGN7_OUT;
   81016:	f04f 5280 	mov.w	r2, #268435456	; 0x10000000
   8101a:	f8c3 20d0 	str.w	r2, [r3, #208]	; 0xd0
	cylinder[7].IgnOutputPin = IGN8_OUT;
   8101e:	f04f 6200 	mov.w	r2, #134217728	; 0x8000000
   81022:	f8c3 20f0 	str.w	r2, [r3, #240]	; 0xf0
	cylinder[0].InjOutputPin = INJ1_OUT;
   81026:	2202      	movs	r2, #2
   81028:	619a      	str	r2, [r3, #24]
	cylinder[1].InjOutputPin = INJ2_OUT;
   8102a:	2201      	movs	r2, #1
   8102c:	639a      	str	r2, [r3, #56]	; 0x38
	cylinder[2].InjOutputPin = INJ3_OUT;
   8102e:	2208      	movs	r2, #8
   81030:	659a      	str	r2, [r3, #88]	; 0x58
	cylinder[3].InjOutputPin = INJ4_OUT;
   81032:	2220      	movs	r2, #32
   81034:	679a      	str	r2, [r3, #120]	; 0x78
	cylinder[4].InjOutputPin = INJ5_OUT;
   81036:	f44f 5200 	mov.w	r2, #8192	; 0x2000
   8103a:	f8c3 2098 	str.w	r2, [r3, #152]	; 0x98
	cylinder[5].InjOutputPin = INJ6_OUT;
   8103e:	2280      	movs	r2, #128	; 0x80
   81040:	f8c3 20b8 	str.w	r2, [r3, #184]	; 0xb8
	cylinder[6].InjOutputPin = INJ7_OUT;
   81044:	f44f 4200 	mov.w	r2, #32768	; 0x8000
   81048:	f8c3 20d8 	str.w	r2, [r3, #216]	; 0xd8
	cylinder[7].InjOutputPin = INJ8_OUT;
   8104c:	f44f 7200 	mov.w	r2, #512	; 0x200
   81050:	f8c3 20f8 	str.w	r2, [r3, #248]	; 0xf8
   81054:	bc30      	pop	{r4, r5}
   81056:	4770      	bx	lr
   81058:	20070e2c 	.word	0x20070e2c
   8105c:	400e1200 	.word	0x400e1200
   81060:	400e1400 	.word	0x400e1400

00081064 <global_init>:
 */ 

#include "global.h"

void global_init(void)
{
   81064:	b510      	push	{r4, lr}
	// DEBUG
	DebugCounter = 0;
   81066:	2300      	movs	r3, #0
   81068:	4a24      	ldr	r2, [pc, #144]	; (810fc <global_init+0x98>)
   8106a:	6013      	str	r3, [r2, #0]
	isDebug = 0;
   8106c:	4a24      	ldr	r2, [pc, #144]	; (81100 <global_init+0x9c>)
   8106e:	6013      	str	r3, [r2, #0]
	// TODO: Read from EEPROM

	// Frequency scalers for ADC, TODO: Finish telemetry
	GlobalTimerFreqADCScaler = 50;
   81070:	2132      	movs	r1, #50	; 0x32
   81072:	4a24      	ldr	r2, [pc, #144]	; (81104 <global_init+0xa0>)
   81074:	8011      	strh	r1, [r2, #0]
	GlobalTimerFreqUARTScaler = 1;
   81076:	2201      	movs	r2, #1
   81078:	4923      	ldr	r1, [pc, #140]	; (81108 <global_init+0xa4>)
   8107a:	800a      	strh	r2, [r1, #0]
	GlobalTimerFreqTelemetryScaler = 1;
   8107c:	4923      	ldr	r1, [pc, #140]	; (8110c <global_init+0xa8>)
   8107e:	800a      	strh	r2, [r1, #0]

	// Timer Variables
	CrankCurrCycleCounts = 0;
   81080:	4923      	ldr	r1, [pc, #140]	; (81110 <global_init+0xac>)
   81082:	600b      	str	r3, [r1, #0]
	CrankPrevCycleCounts = 0;
   81084:	4923      	ldr	r1, [pc, #140]	; (81114 <global_init+0xb0>)
   81086:	600b      	str	r3, [r1, #0]
	CamCurrCycleCounts = 0;
   81088:	4923      	ldr	r1, [pc, #140]	; (81118 <global_init+0xb4>)
   8108a:	600b      	str	r3, [r1, #0]
	CrankTimerCounts = 0;
   8108c:	4923      	ldr	r1, [pc, #140]	; (8111c <global_init+0xb8>)
   8108e:	600b      	str	r3, [r1, #0]
	CamTimerCounts = 0;
   81090:	4923      	ldr	r1, [pc, #140]	; (81120 <global_init+0xbc>)
   81092:	600b      	str	r3, [r1, #0]
	CrankTooth = 1;
   81094:	4923      	ldr	r1, [pc, #140]	; (81124 <global_init+0xc0>)
   81096:	700a      	strb	r2, [r1, #0]
	CrankSignalFlag = FALSE;
   81098:	4a23      	ldr	r2, [pc, #140]	; (81128 <global_init+0xc4>)
   8109a:	7013      	strb	r3, [r2, #0]
	CamSignalFlag = FALSE;
   8109c:	4a23      	ldr	r2, [pc, #140]	; (8112c <global_init+0xc8>)
   8109e:	7013      	strb	r3, [r2, #0]
	CrankRevCounts = 0;
   810a0:	4a23      	ldr	r2, [pc, #140]	; (81130 <global_init+0xcc>)
   810a2:	6013      	str	r3, [r2, #0]
	TachPulse = CRANK_TEETH/TACH_EVENTS; // Calculate new RPM every half of the trigger wheel 24 tooths
   810a4:	220c      	movs	r2, #12
   810a6:	4b23      	ldr	r3, [pc, #140]	; (81134 <global_init+0xd0>)
   810a8:	701a      	strb	r2, [r3, #0]

	storage_struct_read_eeprom_init(&engine_config2, sizeof(engine_config2), EEPROM_CONFIG2_INDEX);
   810aa:	f241 3288 	movw	r2, #5000	; 0x1388
   810ae:	2142      	movs	r1, #66	; 0x42
   810b0:	4821      	ldr	r0, [pc, #132]	; (81138 <global_init+0xd4>)
   810b2:	4c22      	ldr	r4, [pc, #136]	; (8113c <global_init+0xd8>)
   810b4:	47a0      	blx	r4
	storage_struct_read_eeprom_init(&engine_config4, sizeof(engine_config4), EEPROM_CONFIG4_INDEX);
   810b6:	f241 4250 	movw	r2, #5200	; 0x1450
   810ba:	2140      	movs	r1, #64	; 0x40
   810bc:	4820      	ldr	r0, [pc, #128]	; (81140 <global_init+0xdc>)
   810be:	47a0      	blx	r4
	storage_struct_read_eeprom_init(&engine_config6, sizeof(engine_config6), EEPROM_CONFIG6_INDEX);
   810c0:	f241 5218 	movw	r2, #5400	; 0x1518
   810c4:	2140      	movs	r1, #64	; 0x40
   810c6:	481f      	ldr	r0, [pc, #124]	; (81144 <global_init+0xe0>)
   810c8:	47a0      	blx	r4
	storage_struct_read_eeprom_init(&engine_config7, sizeof(engine_config7), EEPROM_CONFIG7_INDEX);
   810ca:	f44f 52af 	mov.w	r2, #5600	; 0x15e0
   810ce:	2140      	movs	r1, #64	; 0x40
   810d0:	481d      	ldr	r0, [pc, #116]	; (81148 <global_init+0xe4>)
   810d2:	47a0      	blx	r4
	storage_struct_read_eeprom_init(&engine_config8, sizeof(engine_config8), EEPROM_CONFIG8_INDEX);
   810d4:	f241 62a8 	movw	r2, #5800	; 0x16a8
   810d8:	21a0      	movs	r1, #160	; 0xa0
   810da:	481c      	ldr	r0, [pc, #112]	; (8114c <global_init+0xe8>)
   810dc:	47a0      	blx	r4
	storage_struct_read_eeprom_init(&engine_config9, sizeof(engine_config9), EEPROM_CONFIG9_INDEX);
   810de:	f241 7270 	movw	r2, #6000	; 0x1770
   810e2:	21c0      	movs	r1, #192	; 0xc0
   810e4:	481a      	ldr	r0, [pc, #104]	; (81150 <global_init+0xec>)
   810e6:	47a0      	blx	r4

	storage_init_struct_to_zero(&engine_realtime, sizeof(engine_realtime));
   810e8:	2122      	movs	r1, #34	; 0x22
   810ea:	481a      	ldr	r0, [pc, #104]	; (81154 <global_init+0xf0>)
   810ec:	4b1a      	ldr	r3, [pc, #104]	; (81158 <global_init+0xf4>)
   810ee:	4798      	blx	r3

	table_init();
   810f0:	4b1a      	ldr	r3, [pc, #104]	; (8115c <global_init+0xf8>)
   810f2:	4798      	blx	r3
	cylinder_init();
   810f4:	4b1a      	ldr	r3, [pc, #104]	; (81160 <global_init+0xfc>)
   810f6:	4798      	blx	r3
   810f8:	bd10      	pop	{r4, pc}
   810fa:	bf00      	nop
   810fc:	20070a20 	.word	0x20070a20
   81100:	20071cd0 	.word	0x20071cd0
   81104:	200718ac 	.word	0x200718ac
   81108:	20071892 	.word	0x20071892
   8110c:	20071ccc 	.word	0x20071ccc
   81110:	20070a24 	.word	0x20070a24
   81114:	200721dc 	.word	0x200721dc
   81118:	200709cc 	.word	0x200709cc
   8111c:	200709c4 	.word	0x200709c4
   81120:	20071424 	.word	0x20071424
   81124:	20072135 	.word	0x20072135
   81128:	200721e8 	.word	0x200721e8
   8112c:	20071d28 	.word	0x20071d28
   81130:	200709d8 	.word	0x200709d8
   81134:	200721ea 	.word	0x200721ea
   81138:	20070f7c 	.word	0x20070f7c
   8113c:	00081951 	.word	0x00081951
   81140:	20070fc0 	.word	0x20070fc0
   81144:	200709dc 	.word	0x200709dc
   81148:	20071cd4 	.word	0x20071cd4
   8114c:	20072138 	.word	0x20072138
   81150:	20070ebc 	.word	0x20070ebc
   81154:	20071400 	.word	0x20071400
   81158:	00081965 	.word	0x00081965
   8115c:	00081a41 	.word	0x00081a41
   81160:	00080fc9 	.word	0x00080fc9

00081164 <igncalc_ign_time_teeth>:
// Calculate the amount of teeth to skip for the next ignition event
// Returns an integer to skip
// Example: Skip 7,4 teeth ---> the function returns the integer 7
uint16_t igncalc_ign_time_teeth(uint8_t ign_degree)
{
	if (IgnATDC)
   81164:	4b1a      	ldr	r3, [pc, #104]	; (811d0 <igncalc_ign_time_teeth+0x6c>)
   81166:	781b      	ldrb	r3, [r3, #0]
   81168:	f013 0fff 	tst.w	r3, #255	; 0xff
   8116c:	d018      	beq.n	811a0 <igncalc_ign_time_teeth+0x3c>
	{
		IgnATDC = FALSE;
   8116e:	2200      	movs	r2, #0
   81170:	4b17      	ldr	r3, [pc, #92]	; (811d0 <igncalc_ign_time_teeth+0x6c>)
   81172:	701a      	strb	r2, [r3, #0]
		return	((((CRANK_DEGREE_INTERVAL + ign_degree) * 100) / CRANK_DEGREE_INTERVAL) * CRANK_TEETH)/TACH_EVENTS/100;
   81174:	30b4      	adds	r0, #180	; 0xb4
   81176:	2364      	movs	r3, #100	; 0x64
   81178:	fb03 f000 	mul.w	r0, r3, r0
   8117c:	4b15      	ldr	r3, [pc, #84]	; (811d4 <igncalc_ign_time_teeth+0x70>)
   8117e:	fb83 2300 	smull	r2, r3, r3, r0
   81182:	4403      	add	r3, r0
   81184:	17c0      	asrs	r0, r0, #31
   81186:	ebc0 13e3 	rsb	r3, r0, r3, asr #7
   8118a:	eb03 0343 	add.w	r3, r3, r3, lsl #1
   8118e:	00db      	lsls	r3, r3, #3
   81190:	4811      	ldr	r0, [pc, #68]	; (811d8 <igncalc_ign_time_teeth+0x74>)
   81192:	fb80 2003 	smull	r2, r0, r0, r3
   81196:	17db      	asrs	r3, r3, #31
   81198:	ebc3 10a0 	rsb	r0, r3, r0, asr #6
   8119c:	b280      	uxth	r0, r0
   8119e:	4770      	bx	lr
	}
	else
	{
		return	((((CRANK_DEGREE_INTERVAL - ign_degree) * 100) / CRANK_DEGREE_INTERVAL) * CRANK_TEETH)/TACH_EVENTS/100;
   811a0:	f1c0 00b4 	rsb	r0, r0, #180	; 0xb4
   811a4:	2364      	movs	r3, #100	; 0x64
   811a6:	fb03 f000 	mul.w	r0, r3, r0
   811aa:	4b0a      	ldr	r3, [pc, #40]	; (811d4 <igncalc_ign_time_teeth+0x70>)
   811ac:	fb83 2300 	smull	r2, r3, r3, r0
   811b0:	4403      	add	r3, r0
   811b2:	17c0      	asrs	r0, r0, #31
   811b4:	ebc0 13e3 	rsb	r3, r0, r3, asr #7
   811b8:	eb03 0343 	add.w	r3, r3, r3, lsl #1
   811bc:	00db      	lsls	r3, r3, #3
   811be:	4806      	ldr	r0, [pc, #24]	; (811d8 <igncalc_ign_time_teeth+0x74>)
   811c0:	fb80 2003 	smull	r2, r0, r0, r3
   811c4:	17db      	asrs	r3, r3, #31
   811c6:	ebc3 10a0 	rsb	r0, r3, r0, asr #6
   811ca:	b280      	uxth	r0, r0
	}
}
   811cc:	4770      	bx	lr
   811ce:	bf00      	nop
   811d0:	20071cb0 	.word	0x20071cb0
   811d4:	b60b60b7 	.word	0xb60b60b7
   811d8:	51eb851f 	.word	0x51eb851f

000811dc <igncalc_ign_time_interval>:

// Calculate the time between 2 teeth
// Returns the counts to interval from the current tooth
// Example: Skip 7,4 teeth ---> the function uses the decimal number 0,4 to calculate the spark event
uint32_t igncalc_ign_time_interval(uint8_t ign_degree)
{
   811dc:	b510      	push	{r4, lr}
   811de:	4604      	mov	r4, r0
	uint32_t temp1;
	if (IgnATDC)
   811e0:	4b1c      	ldr	r3, [pc, #112]	; (81254 <igncalc_ign_time_interval+0x78>)
   811e2:	781b      	ldrb	r3, [r3, #0]
   811e4:	f013 0fff 	tst.w	r3, #255	; 0xff
   811e8:	d015      	beq.n	81216 <igncalc_ign_time_interval+0x3a>
	{
		temp1 = (((CRANK_DEGREE_INTERVAL + ign_degree) * 100) / CRANK_DEGREE_INTERVAL) * (CRANK_TEETH/TACH_EVENTS) - (igncalc_ign_time_teeth(ign_degree) * 100);
   811ea:	4b1b      	ldr	r3, [pc, #108]	; (81258 <igncalc_ign_time_interval+0x7c>)
   811ec:	4798      	blx	r3
   811ee:	34b4      	adds	r4, #180	; 0xb4
   811f0:	2264      	movs	r2, #100	; 0x64
   811f2:	fb02 f204 	mul.w	r2, r2, r4
   811f6:	4b19      	ldr	r3, [pc, #100]	; (8125c <igncalc_ign_time_interval+0x80>)
   811f8:	fb83 1302 	smull	r1, r3, r3, r2
   811fc:	4413      	add	r3, r2
   811fe:	17d2      	asrs	r2, r2, #31
   81200:	ebc2 13e3 	rsb	r3, r2, r3, asr #7
   81204:	eb03 0343 	add.w	r3, r3, r3, lsl #1
   81208:	f06f 0263 	mvn.w	r2, #99	; 0x63
   8120c:	fb02 f000 	mul.w	r0, r2, r0
   81210:	eb00 0383 	add.w	r3, r0, r3, lsl #2
   81214:	e015      	b.n	81242 <igncalc_ign_time_interval+0x66>
	}
	else
	{
		temp1 = (((CRANK_DEGREE_INTERVAL - ign_degree) * 100) / CRANK_DEGREE_INTERVAL) * (CRANK_TEETH/TACH_EVENTS) - (igncalc_ign_time_teeth(ign_degree) * 100);
   81216:	4b10      	ldr	r3, [pc, #64]	; (81258 <igncalc_ign_time_interval+0x7c>)
   81218:	4798      	blx	r3
   8121a:	f1c4 04b4 	rsb	r4, r4, #180	; 0xb4
   8121e:	2364      	movs	r3, #100	; 0x64
   81220:	fb03 f304 	mul.w	r3, r3, r4
   81224:	4a0d      	ldr	r2, [pc, #52]	; (8125c <igncalc_ign_time_interval+0x80>)
   81226:	fb82 1203 	smull	r1, r2, r2, r3
   8122a:	441a      	add	r2, r3
   8122c:	17db      	asrs	r3, r3, #31
   8122e:	ebc3 13e2 	rsb	r3, r3, r2, asr #7
   81232:	eb03 0343 	add.w	r3, r3, r3, lsl #1
   81236:	f06f 0263 	mvn.w	r2, #99	; 0x63
   8123a:	fb02 f000 	mul.w	r0, r2, r0
   8123e:	eb00 0383 	add.w	r3, r0, r3, lsl #2
	}
	return (temp1 * CrankPrevCycleCounts)/100;
   81242:	4a07      	ldr	r2, [pc, #28]	; (81260 <igncalc_ign_time_interval+0x84>)
   81244:	6812      	ldr	r2, [r2, #0]
   81246:	fb02 f303 	mul.w	r3, r2, r3
   8124a:	4806      	ldr	r0, [pc, #24]	; (81264 <igncalc_ign_time_interval+0x88>)
   8124c:	fba0 3003 	umull	r3, r0, r0, r3
	//uart_transfer('b'); uart_print_int(temp1); uart_new_line();
	//uart_transfer('c'); uart_print_int(temp2); uart_new_line();
	//uart_transfer('d'); uart_print_int(CrankPrevCycleCounts); uart_new_line();
}
   81250:	0940      	lsrs	r0, r0, #5
   81252:	bd10      	pop	{r4, pc}
   81254:	20071cb0 	.word	0x20071cb0
   81258:	00081165 	.word	0x00081165
   8125c:	b60b60b7 	.word	0xb60b60b7
   81260:	200721dc 	.word	0x200721dc
   81264:	51eb851f 	.word	0x51eb851f

00081268 <igncalc_dwell_correction>:


// Correction for dwell in regards to battery voltage
// Returns the dwell correction in percentage (%) 0 - 255% depending on the parameters set in TunerStudio
uint8_t igncalc_dwell_correction(void)
{
   81268:	b510      	push	{r4, lr}
   8126a:	b082      	sub	sp, #8
	uint8_t voltage = engine_realtime.BattVolt;
   8126c:	4b05      	ldr	r3, [pc, #20]	; (81284 <igncalc_dwell_correction+0x1c>)
   8126e:	7a5a      	ldrb	r2, [r3, #9]
	uint32_t totalDwell = math_interpolation_vector(&engine_config6.BattRefVoltBins, &engine_config4.DwellCorrectionValues, voltage, 1, sizeof(engine_config4.DwellCorrectionValues));
   81270:	2306      	movs	r3, #6
   81272:	9300      	str	r3, [sp, #0]
   81274:	2301      	movs	r3, #1
   81276:	4904      	ldr	r1, [pc, #16]	; (81288 <igncalc_dwell_correction+0x20>)
   81278:	4804      	ldr	r0, [pc, #16]	; (8128c <igncalc_dwell_correction+0x24>)
   8127a:	4c05      	ldr	r4, [pc, #20]	; (81290 <igncalc_dwell_correction+0x28>)
   8127c:	47a0      	blx	r4
	return totalDwell;
}
   8127e:	b2c0      	uxtb	r0, r0
   81280:	b002      	add	sp, #8
   81282:	bd10      	pop	{r4, pc}
   81284:	20071400 	.word	0x20071400
   81288:	20070fe0 	.word	0x20070fe0
   8128c:	200709eb 	.word	0x200709eb
   81290:	000817ad 	.word	0x000817ad

00081294 <igncalc_dwell_degree>:


// Calculate how much dwell is needed
// Returns dwell in counts
uint32_t igncalc_dwell_degree(void)
{
   81294:	b508      	push	{r3, lr}
	// TODO: if cranking then use engine_config4.DwellTimeCranking
	uint8_t correction = igncalc_dwell_correction();
   81296:	4b1a      	ldr	r3, [pc, #104]	; (81300 <igncalc_dwell_degree+0x6c>)
   81298:	4798      	blx	r3
	uint16_t totalDwellms = (engine_config4.DwellTimeRunning * correction)/100;
   8129a:	4a1a      	ldr	r2, [pc, #104]	; (81304 <igncalc_dwell_degree+0x70>)
   8129c:	7b93      	ldrb	r3, [r2, #14]
   8129e:	fb03 f000 	mul.w	r0, r3, r0
   812a2:	4b19      	ldr	r3, [pc, #100]	; (81308 <igncalc_dwell_degree+0x74>)
   812a4:	fb83 1300 	smull	r1, r3, r3, r0
   812a8:	17c0      	asrs	r0, r0, #31
   812aa:	ebc0 1363 	rsb	r3, r0, r3, asr #5
   812ae:	b29b      	uxth	r3, r3

	if (totalDwellms > (engine_config4.DwellLimit * 10) && engine_config4.DwellLimitEnable)
   812b0:	7fd2      	ldrb	r2, [r2, #31]
   812b2:	eb02 0282 	add.w	r2, r2, r2, lsl #2
   812b6:	ebb3 0f42 	cmp.w	r3, r2, lsl #1
   812ba:	dd09      	ble.n	812d0 <igncalc_dwell_degree+0x3c>
   812bc:	4a11      	ldr	r2, [pc, #68]	; (81304 <igncalc_dwell_degree+0x70>)
   812be:	7b12      	ldrb	r2, [r2, #12]
   812c0:	f012 0f02 	tst.w	r2, #2
   812c4:	d004      	beq.n	812d0 <igncalc_dwell_degree+0x3c>
	{
		totalDwellms = engine_config4.DwellLimit * 10;
   812c6:	4b0f      	ldr	r3, [pc, #60]	; (81304 <igncalc_dwell_degree+0x70>)
   812c8:	7fdb      	ldrb	r3, [r3, #31]
   812ca:	eb03 0383 	add.w	r3, r3, r3, lsl #2
   812ce:	005b      	lsls	r3, r3, #1
	}
	engine_realtime.Dwell = totalDwellms;
   812d0:	b2d9      	uxtb	r1, r3
   812d2:	4a0e      	ldr	r2, [pc, #56]	; (8130c <igncalc_dwell_degree+0x78>)
   812d4:	70d1      	strb	r1, [r2, #3]
	uint32_t temp2 = ((GLOBAL_TIMER_FREQ/1000)*(totalDwellms))/10;
	
	return temp2/(CrankRevCounts/360);
   812d6:	4a0e      	ldr	r2, [pc, #56]	; (81310 <igncalc_dwell_degree+0x7c>)
   812d8:	6812      	ldr	r2, [r2, #0]
   812da:	f640 2041 	movw	r0, #2625	; 0xa41
   812de:	fb00 f303 	mul.w	r3, r0, r3
   812e2:	480c      	ldr	r0, [pc, #48]	; (81314 <igncalc_dwell_degree+0x80>)
   812e4:	fb80 1003 	smull	r1, r0, r0, r3
   812e8:	17db      	asrs	r3, r3, #31
   812ea:	ebc3 03a0 	rsb	r3, r3, r0, asr #2
   812ee:	08d0      	lsrs	r0, r2, #3
   812f0:	4a09      	ldr	r2, [pc, #36]	; (81318 <igncalc_dwell_degree+0x84>)
   812f2:	fba2 2000 	umull	r2, r0, r2, r0
   812f6:	0880      	lsrs	r0, r0, #2
}
   812f8:	fbb3 f0f0 	udiv	r0, r3, r0
   812fc:	bd08      	pop	{r3, pc}
   812fe:	bf00      	nop
   81300:	00081269 	.word	0x00081269
   81304:	20070fc0 	.word	0x20070fc0
   81308:	51eb851f 	.word	0x51eb851f
   8130c:	20071400 	.word	0x20071400
   81310:	200709d8 	.word	0x200709d8
   81314:	66666667 	.word	0x66666667
   81318:	16c16c17 	.word	0x16c16c17

0008131c <interrupts_enable_interrupt_vector>:

#include "interrupts.h"

/* Initialize nested vector interrupts */
void interrupts_enable_interrupt_vector(uint32_t IRQN, uint32_t Priority)
{
   8131c:	b410      	push	{r4}
	NVIC_DisableIRQ(IRQN);
   8131e:	b242      	sxtb	r2, r0

    \param [in]      IRQn  External interrupt number. Value cannot be negative.
 */
__STATIC_INLINE void NVIC_DisableIRQ(IRQn_Type IRQn)
{
  NVIC->ICER[((uint32_t)(IRQn) >> 5)] = (1 << ((uint32_t)(IRQn) & 0x1F)); /* disable interrupt */
   81320:	b2c0      	uxtb	r0, r0
   81322:	f000 041f 	and.w	r4, r0, #31
   81326:	2301      	movs	r3, #1
   81328:	fa03 f404 	lsl.w	r4, r3, r4
   8132c:	0953      	lsrs	r3, r2, #5
   8132e:	009b      	lsls	r3, r3, #2
   81330:	f103 4360 	add.w	r3, r3, #3758096384	; 0xe0000000
   81334:	f503 4361 	add.w	r3, r3, #57600	; 0xe100
   81338:	f8c3 4080 	str.w	r4, [r3, #128]	; 0x80

    \param [in]      IRQn  External interrupt number. Value cannot be negative.
 */
__STATIC_INLINE void NVIC_ClearPendingIRQ(IRQn_Type IRQn)
{
  NVIC->ICPR[((uint32_t)(IRQn) >> 5)] = (1 << ((uint32_t)(IRQn) & 0x1F)); /* Clear pending interrupt */
   8133c:	f8c3 4180 	str.w	r4, [r3, #384]	; 0x180
    \param [in]      IRQn  Interrupt number.
    \param [in]  priority  Priority to set.
 */
__STATIC_INLINE void NVIC_SetPriority(IRQn_Type IRQn, uint32_t priority)
{
  if(IRQn < 0) {
   81340:	2a00      	cmp	r2, #0
   81342:	da06      	bge.n	81352 <interrupts_enable_interrupt_vector+0x36>
    SCB->SHP[((uint32_t)(IRQn) & 0xF)-4] = ((priority << (8 - __NVIC_PRIO_BITS)) & 0xff); } /* set Priority for Cortex-M  System Interrupts */
   81344:	f000 000f 	and.w	r0, r0, #15
   81348:	0109      	lsls	r1, r1, #4
   8134a:	b2c9      	uxtb	r1, r1
   8134c:	4a06      	ldr	r2, [pc, #24]	; (81368 <interrupts_enable_interrupt_vector+0x4c>)
   8134e:	5411      	strb	r1, [r2, r0]
   81350:	e007      	b.n	81362 <interrupts_enable_interrupt_vector+0x46>
  else {
    NVIC->IP[(uint32_t)(IRQn)] = ((priority << (8 - __NVIC_PRIO_BITS)) & 0xff);    }        /* set Priority for device specific Interrupts  */
   81352:	0109      	lsls	r1, r1, #4
   81354:	b2c9      	uxtb	r1, r1
   81356:	f102 4260 	add.w	r2, r2, #3758096384	; 0xe0000000
   8135a:	f502 4261 	add.w	r2, r2, #57600	; 0xe100
   8135e:	f882 1300 	strb.w	r1, [r2, #768]	; 0x300

    \param [in]      IRQn  External interrupt number. Value cannot be negative.
 */
__STATIC_INLINE void NVIC_EnableIRQ(IRQn_Type IRQn)
{
  NVIC->ISER[((uint32_t)(IRQn) >> 5)] = (1 << ((uint32_t)(IRQn) & 0x1F)); /* enable interrupt */
   81362:	601c      	str	r4, [r3, #0]
	NVIC_ClearPendingIRQ(IRQN);
	NVIC_SetPriority(IRQN, Priority); 
	NVIC_EnableIRQ(IRQN);
}
   81364:	bc10      	pop	{r4}
   81366:	4770      	bx	lr
   81368:	e000ed14 	.word	0xe000ed14

0008136c <interrupts_enable_pio>:


void interrupts_enable_pio(uint32_t PeripheralID, uint32_t Pin, uint32_t Priority, uint8_t Mode)
{
   8136c:	b570      	push	{r4, r5, r6, lr}
	// Check if the programmer is legit
	if (PeripheralID < ID_PIOA || PeripheralID > ID_PIOD)	// PIOD is the last register in SAM3x8e
   8136e:	f1a0 040b 	sub.w	r4, r0, #11
   81372:	2c03      	cmp	r4, #3
   81374:	d82a      	bhi.n	813cc <interrupts_enable_pio+0x60>
		return;
	
	// Enable interrupt registers 
	PMC->PMC_PCER0	=	(1 << PeripheralID);				// Enable the peripheral clock for port A
   81376:	2401      	movs	r4, #1
   81378:	4084      	lsls	r4, r0
   8137a:	4d15      	ldr	r5, [pc, #84]	; (813d0 <interrupts_enable_pio+0x64>)
   8137c:	612c      	str	r4, [r5, #16]
	
	// Choose the correct peripheral controller
	Pio *CurrentPio;
	switch (PeripheralID)
   8137e:	f1a0 040b 	sub.w	r4, r0, #11
   81382:	2c03      	cmp	r4, #3
   81384:	d80a      	bhi.n	8139c <interrupts_enable_pio+0x30>
   81386:	e8df f004 	tbb	[pc, r4]
   8138a:	0402      	.short	0x0402
   8138c:	0806      	.short	0x0806
	{
		case ID_PIOA:
			CurrentPio = PIOA;
   8138e:	4e11      	ldr	r6, [pc, #68]	; (813d4 <interrupts_enable_pio+0x68>)
   81390:	e004      	b.n	8139c <interrupts_enable_pio+0x30>
			break;
		case ID_PIOB:
			CurrentPio = PIOB;
   81392:	4e11      	ldr	r6, [pc, #68]	; (813d8 <interrupts_enable_pio+0x6c>)
			break;
   81394:	e002      	b.n	8139c <interrupts_enable_pio+0x30>
		case ID_PIOC:
			CurrentPio = PIOC;
   81396:	4e11      	ldr	r6, [pc, #68]	; (813dc <interrupts_enable_pio+0x70>)
			break;
   81398:	e000      	b.n	8139c <interrupts_enable_pio+0x30>
		case ID_PIOD:
			CurrentPio = PIOD;
   8139a:	4e11      	ldr	r6, [pc, #68]	; (813e0 <interrupts_enable_pio+0x74>)
   8139c:	461d      	mov	r5, r3
   8139e:	460c      	mov	r4, r1
			break;
		default: // SHOULD NEVER HAPPEN, because of if function above
			break;
	}
	CurrentPio->PIO_IER	=	Pin;										// Enable the interrupt register on the configured pin
   813a0:	6431      	str	r1, [r6, #64]	; 0x40
	interrupts_enable_interrupt_vector(PeripheralID, Priority);		// Enable nested interrupt vector and set priority for the configured controller
   813a2:	4611      	mov	r1, r2
   813a4:	4b0f      	ldr	r3, [pc, #60]	; (813e4 <interrupts_enable_pio+0x78>)
   813a6:	4798      	blx	r3
	
	// Select the interrupt mode, if the programmer is stupid the default mode will be pin change
	switch (Mode)
   813a8:	2d01      	cmp	r5, #1
   813aa:	d002      	beq.n	813b2 <interrupts_enable_pio+0x46>
   813ac:	2d02      	cmp	r5, #2
   813ae:	d007      	beq.n	813c0 <interrupts_enable_pio+0x54>
   813b0:	bd70      	pop	{r4, r5, r6, pc}
	{
		case INTERRUPT_PIN_CHANGE_MODE:
			break; // No need to configure anything else, just for show
		case INTERRUPT_RISING_EDGE_MODE:
			CurrentPio->PIO_AIMER		=	Pin;				// Enable additional interrupt modes
   813b2:	f8c6 40b0 	str.w	r4, [r6, #176]	; 0xb0
			CurrentPio->PIO_ESR			=	Pin;				// Select edge detection
   813b6:	f8c6 40c0 	str.w	r4, [r6, #192]	; 0xc0
			CurrentPio->PIO_REHLSR		=	Pin;				// Select rising edge detection
   813ba:	f8c6 40d4 	str.w	r4, [r6, #212]	; 0xd4
			break;
   813be:	bd70      	pop	{r4, r5, r6, pc}
		case INTERRUPT_FALLING_EDGE_MODE:
			CurrentPio->PIO_AIMER		=	Pin;				// Enable additional interrupt modes
   813c0:	f8c6 40b0 	str.w	r4, [r6, #176]	; 0xb0
			CurrentPio->PIO_ESR			=	Pin;				// Select edge detection
   813c4:	f8c6 40c0 	str.w	r4, [r6, #192]	; 0xc0
			CurrentPio->PIO_FELLSR		=	Pin;				// Select falling edge detection
   813c8:	f8c6 40d0 	str.w	r4, [r6, #208]	; 0xd0
   813cc:	bd70      	pop	{r4, r5, r6, pc}
   813ce:	bf00      	nop
   813d0:	400e0600 	.word	0x400e0600
   813d4:	400e0e00 	.word	0x400e0e00
   813d8:	400e1000 	.word	0x400e1000
   813dc:	400e1200 	.word	0x400e1200
   813e0:	400e1400 	.word	0x400e1400
   813e4:	0008131d 	.word	0x0008131d

000813e8 <PIOA_Handler>:
}


// Interrupt handler for the crankshaft and camshaft signal
void PIOA_Handler(void)
{
   813e8:	b430      	push	{r4, r5}
	uint32_t TimerCounterValue	=		TC2->TC_CHANNEL[2].TC_CV;
   813ea:	4b4f      	ldr	r3, [pc, #316]	; (81528 <PIOA_Handler+0x140>)
   813ec:	f8d3 3090 	ldr.w	r3, [r3, #144]	; 0x90
	uint32_t status_register	=		PIOA->PIO_ISR;
   813f0:	4a4e      	ldr	r2, [pc, #312]	; (8152c <PIOA_Handler+0x144>)
   813f2:	6cd2      	ldr	r2, [r2, #76]	; 0x4c
	
	// Check if the interrupt source is from the camshaft sensor
	if (status_register & CAM_SIGNAL)
   813f4:	f412 4100 	ands.w	r1, r2, #32768	; 0x8000
   813f8:	d008      	beq.n	8140c <PIOA_Handler+0x24>
	{
		CamCurrCycleCounts		=		TimerCounterValue - CamTimerCounts;
   813fa:	4c4d      	ldr	r4, [pc, #308]	; (81530 <PIOA_Handler+0x148>)
   813fc:	6820      	ldr	r0, [r4, #0]
   813fe:	1a18      	subs	r0, r3, r0
   81400:	4d4c      	ldr	r5, [pc, #304]	; (81534 <PIOA_Handler+0x14c>)
   81402:	6028      	str	r0, [r5, #0]
		CamTimerCounts			=		TimerCounterValue;
   81404:	6023      	str	r3, [r4, #0]
		CamSignalFlag			=		TRUE;
   81406:	2401      	movs	r4, #1
   81408:	484b      	ldr	r0, [pc, #300]	; (81538 <PIOA_Handler+0x150>)
   8140a:	7004      	strb	r4, [r0, #0]
	}
	
	// Check if the interrupt source is from the crankshaft sensor
	if (status_register & CRANK_SIGNAL)
   8140c:	f012 0f80 	tst.w	r2, #128	; 0x80
   81410:	d07d      	beq.n	8150e <PIOA_Handler+0x126>
	{
		CrankPrevCycleCounts	=		CrankCurrCycleCounts;
   81412:	4a4a      	ldr	r2, [pc, #296]	; (8153c <PIOA_Handler+0x154>)
   81414:	6814      	ldr	r4, [r2, #0]
   81416:	484a      	ldr	r0, [pc, #296]	; (81540 <PIOA_Handler+0x158>)
   81418:	6004      	str	r4, [r0, #0]
		CrankCurrCycleCounts	=		TimerCounterValue - CrankTimerCounts;
   8141a:	4c4a      	ldr	r4, [pc, #296]	; (81544 <PIOA_Handler+0x15c>)
   8141c:	6820      	ldr	r0, [r4, #0]
   8141e:	1a18      	subs	r0, r3, r0
   81420:	6010      	str	r0, [r2, #0]
		CrankTimerCounts		=		TimerCounterValue;
   81422:	6023      	str	r3, [r4, #0]
		CrankRevCounts			+=		CrankCurrCycleCounts;
   81424:	6814      	ldr	r4, [r2, #0]
   81426:	4848      	ldr	r0, [pc, #288]	; (81548 <PIOA_Handler+0x160>)
   81428:	6802      	ldr	r2, [r0, #0]
   8142a:	4422      	add	r2, r4
   8142c:	6002      	str	r2, [r0, #0]
		CrankTooth++;
   8142e:	4847      	ldr	r0, [pc, #284]	; (8154c <PIOA_Handler+0x164>)
   81430:	7802      	ldrb	r2, [r0, #0]
   81432:	3201      	adds	r2, #1
   81434:	b2d2      	uxtb	r2, r2
   81436:	7002      	strb	r2, [r0, #0]
		CrankSecondTooth++;
   81438:	4c45      	ldr	r4, [pc, #276]	; (81550 <PIOA_Handler+0x168>)
   8143a:	7822      	ldrb	r2, [r4, #0]
   8143c:	3201      	adds	r2, #1
   8143e:	b2d2      	uxtb	r2, r2
   81440:	7022      	strb	r2, [r4, #0]
		CrankSignalFlag			=		TRUE;
   81442:	2401      	movs	r4, #1
   81444:	4a43      	ldr	r2, [pc, #268]	; (81554 <PIOA_Handler+0x16c>)
   81446:	7014      	strb	r4, [r2, #0]
		
		
		
		
		if (CrankTooth == DwellFirstTach)
   81448:	7802      	ldrb	r2, [r0, #0]
   8144a:	4843      	ldr	r0, [pc, #268]	; (81558 <PIOA_Handler+0x170>)
   8144c:	7800      	ldrb	r0, [r0, #0]
   8144e:	b2d2      	uxtb	r2, r2
   81450:	4282      	cmp	r2, r0
   81452:	d10f      	bne.n	81474 <PIOA_Handler+0x8c>
		{
			DwellSecondFlag = TRUE;
   81454:	4620      	mov	r0, r4
   81456:	4a41      	ldr	r2, [pc, #260]	; (8155c <PIOA_Handler+0x174>)
   81458:	7014      	strb	r4, [r2, #0]
			if (!CamSignalFlag)
   8145a:	4a37      	ldr	r2, [pc, #220]	; (81538 <PIOA_Handler+0x150>)
   8145c:	7812      	ldrb	r2, [r2, #0]
   8145e:	f012 0fff 	tst.w	r2, #255	; 0xff
			{
				TC0->TC_CHANNEL[0].TC_RA	=	TC0->TC_CHANNEL[0].TC_CV + DwellFirstInterval;
   81462:	bf0c      	ite	eq
   81464:	483e      	ldreq	r0, [pc, #248]	; (81560 <PIOA_Handler+0x178>)
			}
			else
			{
				TC1->TC_CHANNEL[0].TC_RA	=	TC1->TC_CHANNEL[0].TC_CV + DwellFirstInterval;
   81466:	483f      	ldrne	r0, [pc, #252]	; (81564 <PIOA_Handler+0x17c>)
   81468:	6904      	ldr	r4, [r0, #16]
   8146a:	4a3f      	ldr	r2, [pc, #252]	; (81568 <PIOA_Handler+0x180>)
   8146c:	6812      	ldr	r2, [r2, #0]
   8146e:	4422      	add	r2, r4
   81470:	6142      	str	r2, [r0, #20]
   81472:	e01d      	b.n	814b0 <PIOA_Handler+0xc8>
			}
		}
		else if (CrankTooth == DwellSecondTach)
   81474:	4a35      	ldr	r2, [pc, #212]	; (8154c <PIOA_Handler+0x164>)
   81476:	7812      	ldrb	r2, [r2, #0]
   81478:	483c      	ldr	r0, [pc, #240]	; (8156c <PIOA_Handler+0x184>)
   8147a:	7800      	ldrb	r0, [r0, #0]
   8147c:	b2d2      	uxtb	r2, r2
   8147e:	4282      	cmp	r2, r0
   81480:	d116      	bne.n	814b0 <PIOA_Handler+0xc8>
		{
			DwellFirstFlag = TRUE;
   81482:	2001      	movs	r0, #1
   81484:	4a3a      	ldr	r2, [pc, #232]	; (81570 <PIOA_Handler+0x188>)
   81486:	7010      	strb	r0, [r2, #0]
			
			if (!CamSignalFlag)
   81488:	4a2b      	ldr	r2, [pc, #172]	; (81538 <PIOA_Handler+0x150>)
   8148a:	7812      	ldrb	r2, [r2, #0]
   8148c:	f012 0fff 	tst.w	r2, #255	; 0xff
   81490:	d106      	bne.n	814a0 <PIOA_Handler+0xb8>
			{
				TC0->TC_CHANNEL[1].TC_RA	=	TC0->TC_CHANNEL[1].TC_CV + DwellSecondInterval;
   81492:	4833      	ldr	r0, [pc, #204]	; (81560 <PIOA_Handler+0x178>)
   81494:	6d04      	ldr	r4, [r0, #80]	; 0x50
   81496:	4a37      	ldr	r2, [pc, #220]	; (81574 <PIOA_Handler+0x18c>)
   81498:	6812      	ldr	r2, [r2, #0]
   8149a:	4422      	add	r2, r4
   8149c:	6542      	str	r2, [r0, #84]	; 0x54
   8149e:	e007      	b.n	814b0 <PIOA_Handler+0xc8>
			}
			else
			{
				TC0->TC_CHANNEL[2].TC_RA	=	TC0->TC_CHANNEL[2].TC_CV + DwellSecondInterval;
   814a0:	482f      	ldr	r0, [pc, #188]	; (81560 <PIOA_Handler+0x178>)
   814a2:	f8d0 4090 	ldr.w	r4, [r0, #144]	; 0x90
   814a6:	4a33      	ldr	r2, [pc, #204]	; (81574 <PIOA_Handler+0x18c>)
   814a8:	6812      	ldr	r2, [r2, #0]
   814aa:	4422      	add	r2, r4
   814ac:	f8c0 2094 	str.w	r2, [r0, #148]	; 0x94
			}			
		}
		
		
		if (CrankTooth == CrankFirstTach)
   814b0:	4a26      	ldr	r2, [pc, #152]	; (8154c <PIOA_Handler+0x164>)
   814b2:	7812      	ldrb	r2, [r2, #0]
   814b4:	4830      	ldr	r0, [pc, #192]	; (81578 <PIOA_Handler+0x190>)
   814b6:	7800      	ldrb	r0, [r0, #0]
   814b8:	b2d2      	uxtb	r2, r2
   814ba:	4282      	cmp	r2, r0
   814bc:	d10c      	bne.n	814d8 <PIOA_Handler+0xf0>
		{
			if (!CamSignalFlag)
   814be:	4a1e      	ldr	r2, [pc, #120]	; (81538 <PIOA_Handler+0x150>)
   814c0:	7812      	ldrb	r2, [r2, #0]
   814c2:	f012 0fff 	tst.w	r2, #255	; 0xff
			{
				
				TC0->TC_CHANNEL[0].TC_RA	=	TC0->TC_CHANNEL[0].TC_CV + CrankFirstInterval;
   814c6:	bf0c      	ite	eq
   814c8:	4825      	ldreq	r0, [pc, #148]	; (81560 <PIOA_Handler+0x178>)
			}
			else
			{
				TC1->TC_CHANNEL[0].TC_RA	=	TC1->TC_CHANNEL[0].TC_CV + CrankFirstInterval;
   814ca:	4826      	ldrne	r0, [pc, #152]	; (81564 <PIOA_Handler+0x17c>)
   814cc:	6904      	ldr	r4, [r0, #16]
   814ce:	4a2b      	ldr	r2, [pc, #172]	; (8157c <PIOA_Handler+0x194>)
   814d0:	6812      	ldr	r2, [r2, #0]
   814d2:	4422      	add	r2, r4
   814d4:	6142      	str	r2, [r0, #20]
   814d6:	e01a      	b.n	8150e <PIOA_Handler+0x126>
			}
		}
		else if (CrankTooth == CrankSecondTach)
   814d8:	4a1c      	ldr	r2, [pc, #112]	; (8154c <PIOA_Handler+0x164>)
   814da:	7812      	ldrb	r2, [r2, #0]
   814dc:	4828      	ldr	r0, [pc, #160]	; (81580 <PIOA_Handler+0x198>)
   814de:	7800      	ldrb	r0, [r0, #0]
   814e0:	b2d2      	uxtb	r2, r2
   814e2:	4282      	cmp	r2, r0
   814e4:	d113      	bne.n	8150e <PIOA_Handler+0x126>
		{
			if (!CamSignalFlag)
   814e6:	4a14      	ldr	r2, [pc, #80]	; (81538 <PIOA_Handler+0x150>)
   814e8:	7812      	ldrb	r2, [r2, #0]
   814ea:	f012 0fff 	tst.w	r2, #255	; 0xff
   814ee:	d106      	bne.n	814fe <PIOA_Handler+0x116>
			{
				TC0->TC_CHANNEL[1].TC_RA	=	TC0->TC_CHANNEL[1].TC_CV + CrankSecondInterval;
   814f0:	481b      	ldr	r0, [pc, #108]	; (81560 <PIOA_Handler+0x178>)
   814f2:	6d04      	ldr	r4, [r0, #80]	; 0x50
   814f4:	4a23      	ldr	r2, [pc, #140]	; (81584 <PIOA_Handler+0x19c>)
   814f6:	6812      	ldr	r2, [r2, #0]
   814f8:	4422      	add	r2, r4
   814fa:	6542      	str	r2, [r0, #84]	; 0x54
   814fc:	e007      	b.n	8150e <PIOA_Handler+0x126>
			}
			else
			{
				TC0->TC_CHANNEL[2].TC_RA	=	TC0->TC_CHANNEL[2].TC_CV + CrankSecondInterval;
   814fe:	4818      	ldr	r0, [pc, #96]	; (81560 <PIOA_Handler+0x178>)
   81500:	f8d0 4090 	ldr.w	r4, [r0, #144]	; 0x90
   81504:	4a1f      	ldr	r2, [pc, #124]	; (81584 <PIOA_Handler+0x19c>)
   81506:	6812      	ldr	r2, [r2, #0]
   81508:	4422      	add	r2, r4
   8150a:	f8c0 2094 	str.w	r2, [r0, #148]	; 0x94
	}
	
	
	
	// Check if the interrupt source is from the camshaft sensor
	if (status_register & CAM_SIGNAL)
   8150e:	b141      	cbz	r1, 81522 <PIOA_Handler+0x13a>
	{
		CamCurrCycleCounts		=		TimerCounterValue - CamTimerCounts;
   81510:	4907      	ldr	r1, [pc, #28]	; (81530 <PIOA_Handler+0x148>)
   81512:	680a      	ldr	r2, [r1, #0]
   81514:	1a9a      	subs	r2, r3, r2
   81516:	4807      	ldr	r0, [pc, #28]	; (81534 <PIOA_Handler+0x14c>)
   81518:	6002      	str	r2, [r0, #0]
		CamTimerCounts			=		TimerCounterValue;
   8151a:	600b      	str	r3, [r1, #0]
		CamSignalFlag			=		TRUE;
   8151c:	2201      	movs	r2, #1
   8151e:	4b06      	ldr	r3, [pc, #24]	; (81538 <PIOA_Handler+0x150>)
   81520:	701a      	strb	r2, [r3, #0]
	}
}
   81522:	bc30      	pop	{r4, r5}
   81524:	4770      	bx	lr
   81526:	bf00      	nop
   81528:	40088000 	.word	0x40088000
   8152c:	400e0e00 	.word	0x400e0e00
   81530:	20071424 	.word	0x20071424
   81534:	200709cc 	.word	0x200709cc
   81538:	20071d28 	.word	0x20071d28
   8153c:	20070a24 	.word	0x20070a24
   81540:	200721dc 	.word	0x200721dc
   81544:	200709c4 	.word	0x200709c4
   81548:	200709d8 	.word	0x200709d8
   8154c:	20072135 	.word	0x20072135
   81550:	20071d29 	.word	0x20071d29
   81554:	200721e8 	.word	0x200721e8
   81558:	200721d8 	.word	0x200721d8
   8155c:	20070a29 	.word	0x20070a29
   81560:	40080000 	.word	0x40080000
   81564:	40084000 	.word	0x40084000
   81568:	200709c8 	.word	0x200709c8
   8156c:	20071430 	.word	0x20071430
   81570:	20072134 	.word	0x20072134
   81574:	20071cc8 	.word	0x20071cc8
   81578:	20071d14 	.word	0x20071d14
   8157c:	200721f4 	.word	0x200721f4
   81580:	20071898 	.word	0x20071898
   81584:	20071894 	.word	0x20071894

00081588 <math_map_adc>:

#include "math.h"

uint32_t math_map_adc(uint16_t min, uint16_t max, uint16_t value)
{
	return ((value * max) >> ADC_RESOLUTION) + min;
   81588:	fb01 f202 	mul.w	r2, r1, r2
}
   8158c:	eb00 20a2 	add.w	r0, r0, r2, asr #10
   81590:	4770      	bx	lr
   81592:	bf00      	nop

00081594 <math_map>:
uint32_t math_map(uint16_t min, uint16_t max, int16_t value, uint16_t div)
{
	if (value < 0)
   81594:	2a00      	cmp	r2, #0
		return 0;
	return ((value * max) / div) + min;
   81596:	bfa3      	ittte	ge
   81598:	4351      	mulge	r1, r2
   8159a:	fb91 f3f3 	sdivge	r3, r1, r3
   8159e:	18c0      	addge	r0, r0, r3
	return ((value * max) >> ADC_RESOLUTION) + min;
}
uint32_t math_map(uint16_t min, uint16_t max, int16_t value, uint16_t div)
{
	if (value < 0)
		return 0;
   815a0:	2000      	movlt	r0, #0
	return ((value * max) / div) + min;
}
   815a2:	4770      	bx	lr

000815a4 <math_find_median>:

// ATTENTION this will not work if the vector is not 16 bit, not sure how to make it global size since it is a pointer
uint16_t math_find_median(uint16_t * Vector, uint16_t VectorLength)
{
   815a4:	b5f8      	push	{r3, r4, r5, r6, r7, lr}
   815a6:	af00      	add	r7, sp, #0
   815a8:	4605      	mov	r5, r0
   815aa:	4608      	mov	r0, r1
	uint16_t TempVector[VectorLength];
   815ac:	004b      	lsls	r3, r1, #1
   815ae:	3308      	adds	r3, #8
   815b0:	f023 0307 	bic.w	r3, r3, #7
   815b4:	ebad 0d03 	sub.w	sp, sp, r3
   815b8:	466c      	mov	r4, sp
	// Copy vector so we won't change him (copy constructor)
	for (uint16_t i = 0; i < VectorLength; i++)
   815ba:	2900      	cmp	r1, #0
   815bc:	d03b      	beq.n	81636 <math_find_median+0x92>
   815be:	1eab      	subs	r3, r5, #2
   815c0:	f1ad 0202 	sub.w	r2, sp, #2
   815c4:	3901      	subs	r1, #1
   815c6:	b289      	uxth	r1, r1
   815c8:	eb05 0541 	add.w	r5, r5, r1, lsl #1
	{
		TempVector[i] = Vector[i];
   815cc:	f833 1f02 	ldrh.w	r1, [r3, #2]!
   815d0:	f822 1f02 	strh.w	r1, [r2, #2]!
// ATTENTION this will not work if the vector is not 16 bit, not sure how to make it global size since it is a pointer
uint16_t math_find_median(uint16_t * Vector, uint16_t VectorLength)
{
	uint16_t TempVector[VectorLength];
	// Copy vector so we won't change him (copy constructor)
	for (uint16_t i = 0; i < VectorLength; i++)
   815d4:	42ab      	cmp	r3, r5
   815d6:	d1f9      	bne.n	815cc <math_find_median+0x28>
	{
		TempVector[i] = Vector[i];
		//uart_print_string("her "); uart_print_int(Vector[i]); uart_new_line();
	}
	// Insertion sort
	for (uint16_t i = 1; i < VectorLength; i++)
   815d8:	2801      	cmp	r0, #1
   815da:	d81a      	bhi.n	81612 <math_find_median+0x6e>
   815dc:	e02b      	b.n	81636 <math_find_median+0x92>
	{
		uint16_t j = i;
		while (j > 0 && TempVector[j] < TempVector[j-1])
		{
			uint16_t temp = TempVector[j];
			TempVector[j] = TempVector[j-1];
   815de:	f824 201e 	strh.w	r2, [r4, lr, lsl #1]
			TempVector[j-1] = temp;
   815e2:	f824 5016 	strh.w	r5, [r4, r6, lsl #1]
			j--;
   815e6:	3b01      	subs	r3, #1
   815e8:	b29b      	uxth	r3, r3
	}
	// Insertion sort
	for (uint16_t i = 1; i < VectorLength; i++)
	{
		uint16_t j = i;
		while (j > 0 && TempVector[j] < TempVector[j-1])
   815ea:	b14b      	cbz	r3, 81600 <math_find_median+0x5c>
   815ec:	469e      	mov	lr, r3
   815ee:	eb04 0243 	add.w	r2, r4, r3, lsl #1
   815f2:	f834 5013 	ldrh.w	r5, [r4, r3, lsl #1]
   815f6:	1e5e      	subs	r6, r3, #1
   815f8:	f832 2c02 	ldrh.w	r2, [r2, #-2]
   815fc:	4295      	cmp	r5, r2
   815fe:	d3ee      	bcc.n	815de <math_find_median+0x3a>
	{
		TempVector[i] = Vector[i];
		//uart_print_string("her "); uart_print_int(Vector[i]); uart_new_line();
	}
	// Insertion sort
	for (uint16_t i = 1; i < VectorLength; i++)
   81600:	4584      	cmp	ip, r0
   81602:	d218      	bcs.n	81636 <math_find_median+0x92>
   81604:	3101      	adds	r1, #1
   81606:	f10c 0c01 	add.w	ip, ip, #1
   8160a:	fa1f fc8c 	uxth.w	ip, ip
   8160e:	b289      	uxth	r1, r1
   81610:	e002      	b.n	81618 <math_find_median+0x74>
   81612:	f04f 0c02 	mov.w	ip, #2
   81616:	2101      	movs	r1, #1
	{
		uint16_t j = i;
		while (j > 0 && TempVector[j] < TempVector[j-1])
   81618:	2900      	cmp	r1, #0
   8161a:	d0f3      	beq.n	81604 <math_find_median+0x60>
   8161c:	468e      	mov	lr, r1
   8161e:	eb04 0341 	add.w	r3, r4, r1, lsl #1
   81622:	f834 5011 	ldrh.w	r5, [r4, r1, lsl #1]
   81626:	1e4e      	subs	r6, r1, #1
   81628:	f833 2c02 	ldrh.w	r2, [r3, #-2]
   8162c:	4295      	cmp	r5, r2
   8162e:	bf38      	it	cc
   81630:	460b      	movcc	r3, r1
   81632:	d3d4      	bcc.n	815de <math_find_median+0x3a>
   81634:	e7e4      	b.n	81600 <math_find_median+0x5c>
			TempVector[j-1] = temp;
			j--;
		}
	}
	// Return median
	return TempVector[(uint16_t)((VectorLength * 1.0 + 0.5) / 2.0)];
   81636:	4b08      	ldr	r3, [pc, #32]	; (81658 <math_find_median+0xb4>)
   81638:	4798      	blx	r3
   8163a:	2200      	movs	r2, #0
   8163c:	4b07      	ldr	r3, [pc, #28]	; (8165c <math_find_median+0xb8>)
   8163e:	4d08      	ldr	r5, [pc, #32]	; (81660 <math_find_median+0xbc>)
   81640:	47a8      	blx	r5
   81642:	2200      	movs	r2, #0
   81644:	4b05      	ldr	r3, [pc, #20]	; (8165c <math_find_median+0xb8>)
   81646:	4d07      	ldr	r5, [pc, #28]	; (81664 <math_find_median+0xc0>)
   81648:	47a8      	blx	r5
   8164a:	4b07      	ldr	r3, [pc, #28]	; (81668 <math_find_median+0xc4>)
   8164c:	4798      	blx	r3
   8164e:	b280      	uxth	r0, r0
}
   81650:	f834 0010 	ldrh.w	r0, [r4, r0, lsl #1]
   81654:	46bd      	mov	sp, r7
   81656:	bdf8      	pop	{r3, r4, r5, r6, r7, pc}
   81658:	00082aad 	.word	0x00082aad
   8165c:	3fe00000 	.word	0x3fe00000
   81660:	00082815 	.word	0x00082815
   81664:	00082b79 	.word	0x00082b79
   81668:	00082f9d 	.word	0x00082f9d

0008166c <math_find_interpolation_index>:
	uint16_t calc2 = (uint32_t)Calculate[IndexHigh] * (Weight);
	return (calc1 + calc2) / 100;
}

void math_find_interpolation_index(uint8_t * Vector, uint16_t Value, uint8_t * Low, uint8_t * High, uint16_t Scaler, uint8_t Len)
{
   8166c:	b5f0      	push	{r4, r5, r6, r7, lr}
   8166e:	f8bd e014 	ldrh.w	lr, [sp, #20]
   81672:	f89d 7018 	ldrb.w	r7, [sp, #24]
	for (uint8_t Index = 0; Index < Len; Index++)
   81676:	b1c7      	cbz	r7, 816aa <math_find_interpolation_index+0x3e>
   81678:	3801      	subs	r0, #1
   8167a:	2500      	movs	r5, #0
   8167c:	b2ee      	uxtb	r6, r5
	{	
// 		if (DebugCounter>= 100)
// 		{
// 			uart_print_string("Vec "); uart_print_int(Vector[Index]); uart_new_line();
// 		}
		uint16_t Temp = Vector[Index] * Scaler;
   8167e:	f810 4f01 	ldrb.w	r4, [r0, #1]!
   81682:	fb04 f40e 	mul.w	r4, r4, lr
   81686:	b2a4      	uxth	r4, r4
		
		if (Value > Temp) {
   81688:	428c      	cmp	r4, r1
   8168a:	d201      	bcs.n	81690 <math_find_interpolation_index+0x24>
			*Low = Index;
   8168c:	7016      	strb	r6, [r2, #0]
   8168e:	e008      	b.n	816a2 <math_find_interpolation_index+0x36>
		} 
		else if (Value < Temp) {
   81690:	428c      	cmp	r4, r1
   81692:	d901      	bls.n	81698 <math_find_interpolation_index+0x2c>
			*High = Index;
   81694:	701e      	strb	r6, [r3, #0]
			break;
   81696:	bdf0      	pop	{r4, r5, r6, r7, pc}
		} 
		else if (Value == Temp) {
   81698:	428c      	cmp	r4, r1
   8169a:	d102      	bne.n	816a2 <math_find_interpolation_index+0x36>
			*Low = Index;
   8169c:	7016      	strb	r6, [r2, #0]
			*High = Index;
   8169e:	701e      	strb	r6, [r3, #0]
			break;
   816a0:	bdf0      	pop	{r4, r5, r6, r7, pc}
   816a2:	3501      	adds	r5, #1
	return (calc1 + calc2) / 100;
}

void math_find_interpolation_index(uint8_t * Vector, uint16_t Value, uint8_t * Low, uint8_t * High, uint16_t Scaler, uint8_t Len)
{
	for (uint8_t Index = 0; Index < Len; Index++)
   816a4:	b2ec      	uxtb	r4, r5
   816a6:	42a7      	cmp	r7, r4
   816a8:	d8e8      	bhi.n	8167c <math_find_interpolation_index+0x10>
   816aa:	bdf0      	pop	{r4, r5, r6, r7, pc}

000816ac <math_interpolation>:


// Calculate the weight of the value compared to indexes x1 and x2
uint8_t math_interpolation(uint16_t value, uint16_t x1, uint16_t x2)
{
	if (value <= x1) // below or equal to lower bound
   816ac:	4288      	cmp	r0, r1
   816ae:	d90a      	bls.n	816c6 <math_interpolation+0x1a>
		return 0;

	if (value >= x2) // above or equal to upper bounds
   816b0:	4290      	cmp	r0, r2
   816b2:	d20a      	bcs.n	816ca <math_interpolation+0x1e>
		return 100;

	return ((uint32_t)(value - x1) * 100)/((x2 - x1));
   816b4:	1a40      	subs	r0, r0, r1
   816b6:	2364      	movs	r3, #100	; 0x64
   816b8:	fb03 f000 	mul.w	r0, r3, r0
   816bc:	1a51      	subs	r1, r2, r1
   816be:	fbb0 f0f1 	udiv	r0, r0, r1
   816c2:	b2c0      	uxtb	r0, r0
   816c4:	4770      	bx	lr

// Calculate the weight of the value compared to indexes x1 and x2
uint8_t math_interpolation(uint16_t value, uint16_t x1, uint16_t x2)
{
	if (value <= x1) // below or equal to lower bound
		return 0;
   816c6:	2000      	movs	r0, #0
   816c8:	4770      	bx	lr

	if (value >= x2) // above or equal to upper bounds
		return 100;
   816ca:	2064      	movs	r0, #100	; 0x64

	return ((uint32_t)(value - x1) * 100)/((x2 - x1));
}
   816cc:	4770      	bx	lr
   816ce:	bf00      	nop

000816d0 <math_interpolation_array>:
	// Return median
	return TempVector[(uint16_t)((VectorLength * 1.0 + 0.5) / 2.0)];
}

uint16_t math_interpolation_array(uint16_t Rpm, uint16_t Map, struct Table3D *Current)
{
   816d0:	e92d 4ff0 	stmdb	sp!, {r4, r5, r6, r7, r8, r9, sl, fp, lr}
   816d4:	b085      	sub	sp, #20
   816d6:	4680      	mov	r8, r0
   816d8:	468b      	mov	fp, r1
   816da:	4614      	mov	r4, r2
	uint8_t RpmIndexLow = 0, MapIndexLow = 0;
   816dc:	2300      	movs	r3, #0
   816de:	f88d 300f 	strb.w	r3, [sp, #15]
   816e2:	f88d 300e 	strb.w	r3, [sp, #14]
	uint8_t RpmIndexHigh = THREE_D_TABLE_SIZE - 1, MapIndexHigh = THREE_D_TABLE_SIZE - 1;
   816e6:	230f      	movs	r3, #15
   816e8:	f88d 300d 	strb.w	r3, [sp, #13]
   816ec:	f88d 300c 	strb.w	r3, [sp, #12]
	// Find where the engine is positioned in the 3D tables
	
	math_find_interpolation_index(Current->Xbin, Rpm, &RpmIndexLow, &RpmIndexHigh, RPM_SCALER, THREE_D_TABLE_SIZE);
   816f0:	2610      	movs	r6, #16
   816f2:	9601      	str	r6, [sp, #4]
   816f4:	2364      	movs	r3, #100	; 0x64
   816f6:	9300      	str	r3, [sp, #0]
   816f8:	f10d 030d 	add.w	r3, sp, #13
   816fc:	f10d 020f 	add.w	r2, sp, #15
   81700:	4601      	mov	r1, r0
   81702:	6860      	ldr	r0, [r4, #4]
   81704:	4d26      	ldr	r5, [pc, #152]	; (817a0 <math_interpolation_array+0xd0>)
   81706:	47a8      	blx	r5
	math_find_interpolation_index(Current->Ybin, Map, &MapIndexLow, &MapIndexHigh, 1, THREE_D_TABLE_SIZE);
   81708:	9601      	str	r6, [sp, #4]
   8170a:	2301      	movs	r3, #1
   8170c:	9300      	str	r3, [sp, #0]
   8170e:	ab03      	add	r3, sp, #12
   81710:	f10d 020e 	add.w	r2, sp, #14
   81714:	4659      	mov	r1, fp
   81716:	68a0      	ldr	r0, [r4, #8]
   81718:	47a8      	blx	r5

	// Use the indexes to calculate a interpolated value
	// Weighted average is first used
	uint8_t RpmWeight = math_interpolation(Rpm, Current->Xbin[RpmIndexLow] * RPM_SCALER, Current->Xbin[RpmIndexHigh] * RPM_SCALER);
   8171a:	6863      	ldr	r3, [r4, #4]
   8171c:	f89d 600f 	ldrb.w	r6, [sp, #15]
   81720:	f89d 500d 	ldrb.w	r5, [sp, #13]
   81724:	5d5a      	ldrb	r2, [r3, r5]
   81726:	eb02 0282 	add.w	r2, r2, r2, lsl #2
   8172a:	eb02 0282 	add.w	r2, r2, r2, lsl #2
   8172e:	0092      	lsls	r2, r2, #2
   81730:	b292      	uxth	r2, r2
   81732:	5d99      	ldrb	r1, [r3, r6]
   81734:	eb01 0181 	add.w	r1, r1, r1, lsl #2
   81738:	eb01 0181 	add.w	r1, r1, r1, lsl #2
   8173c:	0089      	lsls	r1, r1, #2
   8173e:	b289      	uxth	r1, r1
   81740:	4640      	mov	r0, r8
   81742:	4f18      	ldr	r7, [pc, #96]	; (817a4 <math_interpolation_array+0xd4>)
   81744:	47b8      	blx	r7
   81746:	4680      	mov	r8, r0
// 		uart_print_string("Weight "); uart_print_int(RpmWeight); uart_new_line();
// 		DebugCounter = 0;
// 	}
// 	DebugCounter = DebugCounter + 1;
	
	uint8_t MapWeight = math_interpolation(Map, Current->Ybin[MapIndexLow], Current->Ybin[MapIndexHigh]);
   81748:	68a3      	ldr	r3, [r4, #8]
   8174a:	f89d a00e 	ldrb.w	sl, [sp, #14]
   8174e:	f89d 900c 	ldrb.w	r9, [sp, #12]
   81752:	f813 2009 	ldrb.w	r2, [r3, r9]
   81756:	f813 100a 	ldrb.w	r1, [r3, sl]
   8175a:	4658      	mov	r0, fp
   8175c:	47b8      	blx	r7
	MAP	
	x	calc3	calc4
	x	calc1	calc2
	RPM	x		x                                                           */
	/************************************************************************/
	uint32_t calc1 = (uint32_t)Current->Table[MapIndexLow][RpmIndexLow] * (100 - MapWeight) * (100 - RpmWeight);
   8175e:	6822      	ldr	r2, [r4, #0]
   81760:	f852 302a 	ldr.w	r3, [r2, sl, lsl #2]
   81764:	f1c8 0164 	rsb	r1, r8, #100	; 0x64
	uint32_t calc2 = (uint32_t)Current->Table[MapIndexLow][RpmIndexHigh] * (100 - MapWeight) * (RpmWeight);
	uint32_t calc3 = (uint32_t)Current->Table[MapIndexHigh][RpmIndexLow] * (MapWeight) * (100 - RpmWeight);
   81768:	f852 4029 	ldr.w	r4, [r2, r9, lsl #2]
	uint32_t calc4 = (uint32_t)Current->Table[MapIndexHigh][RpmIndexHigh] * (MapWeight) * (RpmWeight);
	return (calc1 + calc2 + calc3 + calc4) / 10000;
   8176c:	5d9a      	ldrb	r2, [r3, r6]
   8176e:	5d5b      	ldrb	r3, [r3, r5]
   81770:	fb08 f303 	mul.w	r3, r8, r3
   81774:	fb01 3302 	mla	r3, r1, r2, r3
   81778:	f1c0 0764 	rsb	r7, r0, #100	; 0x64
   8177c:	5da2      	ldrb	r2, [r4, r6]
   8177e:	5d64      	ldrb	r4, [r4, r5]
   81780:	fb08 f804 	mul.w	r8, r8, r4
   81784:	fb01 8802 	mla	r8, r1, r2, r8
   81788:	fb00 f008 	mul.w	r0, r0, r8
   8178c:	fb07 0003 	mla	r0, r7, r3, r0
   81790:	4b05      	ldr	r3, [pc, #20]	; (817a8 <math_interpolation_array+0xd8>)
   81792:	fba3 3000 	umull	r3, r0, r3, r0
}
   81796:	f3c0 304f 	ubfx	r0, r0, #13, #16
   8179a:	b005      	add	sp, #20
   8179c:	e8bd 8ff0 	ldmia.w	sp!, {r4, r5, r6, r7, r8, r9, sl, fp, pc}
   817a0:	0008166d 	.word	0x0008166d
   817a4:	000816ad 	.word	0x000816ad
   817a8:	d1b71759 	.word	0xd1b71759

000817ac <math_interpolation_vector>:

uint16_t math_interpolation_vector(uint8_t *LookUp, uint8_t *Calculate, uint16_t Value, uint16_t Scaler, uint8_t Len)
{
   817ac:	e92d 43f0 	stmdb	sp!, {r4, r5, r6, r7, r8, r9, lr}
   817b0:	b085      	sub	sp, #20
   817b2:	4681      	mov	r9, r0
   817b4:	460d      	mov	r5, r1
   817b6:	4617      	mov	r7, r2
   817b8:	4698      	mov	r8, r3
   817ba:	f89d 2030 	ldrb.w	r2, [sp, #48]	; 0x30
	uint8_t IndexLow = 0;
   817be:	2300      	movs	r3, #0
   817c0:	f88d 300f 	strb.w	r3, [sp, #15]
	uint8_t IndexHigh = Len - 1;
   817c4:	1e51      	subs	r1, r2, #1
   817c6:	ab04      	add	r3, sp, #16
   817c8:	f803 1d02 	strb.w	r1, [r3, #-2]!
	math_find_interpolation_index(LookUp, Value, &IndexLow, &IndexHigh, Scaler, Len);
   817cc:	9201      	str	r2, [sp, #4]
   817ce:	f8cd 8000 	str.w	r8, [sp]
   817d2:	f10d 020f 	add.w	r2, sp, #15
   817d6:	4639      	mov	r1, r7
   817d8:	4c13      	ldr	r4, [pc, #76]	; (81828 <math_interpolation_vector+0x7c>)
   817da:	47a0      	blx	r4
	uint8_t Weight = math_interpolation(Value, LookUp[IndexLow] * Scaler, LookUp[IndexHigh] * Scaler);
   817dc:	f89d 600f 	ldrb.w	r6, [sp, #15]
   817e0:	f89d 400e 	ldrb.w	r4, [sp, #14]
   817e4:	f819 2004 	ldrb.w	r2, [r9, r4]
   817e8:	fb02 f208 	mul.w	r2, r2, r8
   817ec:	f819 1006 	ldrb.w	r1, [r9, r6]
   817f0:	fb01 f108 	mul.w	r1, r1, r8
   817f4:	b292      	uxth	r2, r2
   817f6:	b289      	uxth	r1, r1
   817f8:	4638      	mov	r0, r7
   817fa:	4b0c      	ldr	r3, [pc, #48]	; (8182c <math_interpolation_vector+0x80>)
   817fc:	4798      	blx	r3
	uint16_t calc1 = (uint32_t)Calculate[IndexLow] * (100 - Weight);
	uint16_t calc2 = (uint32_t)Calculate[IndexHigh] * (Weight);
	return (calc1 + calc2) / 100;
   817fe:	5daa      	ldrb	r2, [r5, r6]
   81800:	f1c0 0364 	rsb	r3, r0, #100	; 0x64
   81804:	fb02 f303 	mul.w	r3, r2, r3
   81808:	b29b      	uxth	r3, r3
   8180a:	5d2a      	ldrb	r2, [r5, r4]
   8180c:	fb02 f000 	mul.w	r0, r2, r0
   81810:	b280      	uxth	r0, r0
   81812:	4403      	add	r3, r0
   81814:	4806      	ldr	r0, [pc, #24]	; (81830 <math_interpolation_vector+0x84>)
   81816:	fb80 2003 	smull	r2, r0, r0, r3
   8181a:	17db      	asrs	r3, r3, #31
   8181c:	ebc3 1060 	rsb	r0, r3, r0, asr #5
}
   81820:	b280      	uxth	r0, r0
   81822:	b005      	add	sp, #20
   81824:	e8bd 83f0 	ldmia.w	sp!, {r4, r5, r6, r7, r8, r9, pc}
   81828:	0008166d 	.word	0x0008166d
   8182c:	000816ad 	.word	0x000816ad
   81830:	51eb851f 	.word	0x51eb851f

00081834 <sensors_init>:
 */ 

 #include "sensors.h"

void sensors_init(void)
{
   81834:	e92d 41f0 	stmdb	sp!, {r4, r5, r6, r7, r8, lr}
   81838:	2400      	movs	r4, #0
	// Initialize sensor look up vector/table
	for (uint16_t i = 0; i < LUT_SIZE; i++)
	{
		CltAdc_LUT[i]		= eeprom_read_byte(EEPROM_CLT_ADC_INDEX + i);
   8183a:	4e0e      	ldr	r6, [pc, #56]	; (81874 <sensors_init+0x40>)
   8183c:	f8df 8040 	ldr.w	r8, [pc, #64]	; 81880 <sensors_init+0x4c>
		IatAdc_LUT[i]		= eeprom_read_byte(EEPROM_IAT_ADC_INDEX + i);
   81840:	4f0d      	ldr	r7, [pc, #52]	; (81878 <sensors_init+0x44>)
   81842:	b2a5      	uxth	r5, r4
void sensors_init(void)
{
	// Initialize sensor look up vector/table
	for (uint16_t i = 0; i < LUT_SIZE; i++)
	{
		CltAdc_LUT[i]		= eeprom_read_byte(EEPROM_CLT_ADC_INDEX + i);
   81844:	f505 7058 	add.w	r0, r5, #864	; 0x360
   81848:	b280      	uxth	r0, r0
   8184a:	47b0      	blx	r6
   8184c:	f808 0004 	strb.w	r0, [r8, r4]
		IatAdc_LUT[i]		= eeprom_read_byte(EEPROM_IAT_ADC_INDEX + i);
   81850:	f505 60ec 	add.w	r0, r5, #1888	; 0x760
   81854:	b280      	uxth	r0, r0
   81856:	47b0      	blx	r6
   81858:	5538      	strb	r0, [r7, r4]
		AfrAdc_LUT[i]		= eeprom_read_byte(EEPROM_AFR_ADC_INDEX + i);
   8185a:	f505 6036 	add.w	r0, r5, #2912	; 0xb60
   8185e:	b280      	uxth	r0, r0
   81860:	47b0      	blx	r6
   81862:	4b06      	ldr	r3, [pc, #24]	; (8187c <sensors_init+0x48>)
   81864:	5518      	strb	r0, [r3, r4]
   81866:	3401      	adds	r4, #1
 #include "sensors.h"

void sensors_init(void)
{
	// Initialize sensor look up vector/table
	for (uint16_t i = 0; i < LUT_SIZE; i++)
   81868:	f5b4 6f80 	cmp.w	r4, #1024	; 0x400
   8186c:	d1e9      	bne.n	81842 <sensors_init+0xe>
	{
		CltAdc_LUT[i]		= eeprom_read_byte(EEPROM_CLT_ADC_INDEX + i);
		IatAdc_LUT[i]		= eeprom_read_byte(EEPROM_IAT_ADC_INDEX + i);
		AfrAdc_LUT[i]		= eeprom_read_byte(EEPROM_AFR_ADC_INDEX + i);
	}
}
   8186e:	e8bd 81f0 	ldmia.w	sp!, {r4, r5, r6, r7, r8, pc}
   81872:	bf00      	nop
   81874:	00080f69 	.word	0x00080f69
   81878:	200718b0 	.word	0x200718b0
   8187c:	20071d34 	.word	0x20071d34
   81880:	20071434 	.word	0x20071434

00081884 <sensors_read_adc>:

void sensors_read_adc(void)
{
   81884:	e92d 43f8 	stmdb	sp!, {r3, r4, r5, r6, r7, r8, r9, lr}
	// TODO: TURN GLOBAL INTERRUPTS OFF
	engine_realtime.Clt = CltAdc_LUT[math_find_median(AdcData[ADC_CLT_CH], ADC_MEDIAN_FILTER_LENGTH)];
   81888:	4d28      	ldr	r5, [pc, #160]	; (8192c <sensors_read_adc+0xa8>)
   8188a:	2103      	movs	r1, #3
   8188c:	4628      	mov	r0, r5
   8188e:	4e28      	ldr	r6, [pc, #160]	; (81930 <sensors_read_adc+0xac>)
   81890:	47b0      	blx	r6
   81892:	4b28      	ldr	r3, [pc, #160]	; (81934 <sensors_read_adc+0xb0>)
   81894:	5c1b      	ldrb	r3, [r3, r0]
   81896:	b2db      	uxtb	r3, r3
   81898:	4c27      	ldr	r4, [pc, #156]	; (81938 <sensors_read_adc+0xb4>)
   8189a:	71e3      	strb	r3, [r4, #7]
	engine_realtime.Iat = IatAdc_LUT[math_find_median(AdcData[ADC_IAT_CH], ADC_MEDIAN_FILTER_LENGTH)];
   8189c:	2103      	movs	r1, #3
   8189e:	f105 000c 	add.w	r0, r5, #12
   818a2:	47b0      	blx	r6
   818a4:	4b25      	ldr	r3, [pc, #148]	; (8193c <sensors_read_adc+0xb8>)
   818a6:	5c1b      	ldrb	r3, [r3, r0]
   818a8:	b2db      	uxtb	r3, r3
   818aa:	71a3      	strb	r3, [r4, #6]
	engine_realtime.Afr = AfrAdc_LUT[math_find_median(AdcData[ADC_AFR_CH], ADC_MEDIAN_FILTER_LENGTH)];
   818ac:	2103      	movs	r1, #3
   818ae:	1da8      	adds	r0, r5, #6
   818b0:	47b0      	blx	r6
   818b2:	4b23      	ldr	r3, [pc, #140]	; (81940 <sensors_read_adc+0xbc>)
   818b4:	5c1b      	ldrb	r3, [r3, r0]
   818b6:	b2db      	uxtb	r3, r3
   818b8:	72a3      	strb	r3, [r4, #10]
	engine_realtime.Map = math_map_adc(engine_config2.MapMin, engine_config2.MapMax, math_find_median(AdcData[ADC_MAP_CH], ADC_MEDIAN_FILTER_LENGTH));
   818ba:	4f22      	ldr	r7, [pc, #136]	; (81944 <sensors_read_adc+0xc0>)
   818bc:	f897 803d 	ldrb.w	r8, [r7, #61]	; 0x3d
   818c0:	fa5f f888 	uxtb.w	r8, r8
   818c4:	f8b7 903e 	ldrh.w	r9, [r7, #62]	; 0x3e
   818c8:	fa1f f989 	uxth.w	r9, r9
   818cc:	2103      	movs	r1, #3
   818ce:	f105 0012 	add.w	r0, r5, #18
   818d2:	47b0      	blx	r6
   818d4:	4602      	mov	r2, r0
   818d6:	4649      	mov	r1, r9
   818d8:	4640      	mov	r0, r8
   818da:	f8df 8070 	ldr.w	r8, [pc, #112]	; 8194c <sensors_read_adc+0xc8>
   818de:	47c0      	blx	r8
   818e0:	b280      	uxth	r0, r0
   818e2:	80a0      	strh	r0, [r4, #4]
	engine_realtime.TpsAdc = math_find_median(AdcData[ADC_TPS_CH], ADC_MEDIAN_FILTER_LENGTH) >> 2; // Change to 8 bit 
   818e4:	3d18      	subs	r5, #24
   818e6:	2103      	movs	r1, #3
   818e8:	4628      	mov	r0, r5
   818ea:	47b0      	blx	r6
   818ec:	f3c0 0087 	ubfx	r0, r0, #2, #8
   818f0:	7220      	strb	r0, [r4, #8]
	engine_realtime.Tps = math_map(0, 100, engine_realtime.TpsAdc - engine_config2.TpsMin, engine_config2.TpsMax - engine_config2.TpsMin);
   818f2:	7a21      	ldrb	r1, [r4, #8]
   818f4:	f897 203b 	ldrb.w	r2, [r7, #59]	; 0x3b
   818f8:	f897 303c 	ldrb.w	r3, [r7, #60]	; 0x3c
   818fc:	f897 003b 	ldrb.w	r0, [r7, #59]	; 0x3b
   81900:	1a1b      	subs	r3, r3, r0
   81902:	b29b      	uxth	r3, r3
   81904:	1a8a      	subs	r2, r1, r2
   81906:	2164      	movs	r1, #100	; 0x64
   81908:	2000      	movs	r0, #0
   8190a:	4f0f      	ldr	r7, [pc, #60]	; (81948 <sensors_read_adc+0xc4>)
   8190c:	47b8      	blx	r7
   8190e:	b2c0      	uxtb	r0, r0
   81910:	7620      	strb	r0, [r4, #24]
	engine_realtime.BattVolt = math_map_adc(0, 160, math_find_median(AdcData[ADC_BATT_CH], ADC_MEDIAN_FILTER_LENGTH));
   81912:	2103      	movs	r1, #3
   81914:	f105 0048 	add.w	r0, r5, #72	; 0x48
   81918:	47b0      	blx	r6
   8191a:	4602      	mov	r2, r0
   8191c:	21a0      	movs	r1, #160	; 0xa0
   8191e:	2000      	movs	r0, #0
   81920:	47c0      	blx	r8
   81922:	b2c0      	uxtb	r0, r0
   81924:	7260      	strb	r0, [r4, #9]
   81926:	e8bd 83f8 	ldmia.w	sp!, {r3, r4, r5, r6, r7, r8, r9, pc}
   8192a:	bf00      	nop
   8192c:	20071850 	.word	0x20071850
   81930:	000815a5 	.word	0x000815a5
   81934:	20071434 	.word	0x20071434
   81938:	20071400 	.word	0x20071400
   8193c:	200718b0 	.word	0x200718b0
   81940:	20071d34 	.word	0x20071d34
   81944:	20070f7c 	.word	0x20070f7c
   81948:	00081595 	.word	0x00081595
   8194c:	00081589 	.word	0x00081589

00081950 <storage_struct_read_eeprom_init>:
 #include "storage.h"


 // Read the EEPROM and store the according byte in ascending order
 void storage_struct_read_eeprom_init(uint8_t *ConfigStructPointer, uint16_t ConfigLen, uint16_t EepromIndex)
 {
   81950:	b508      	push	{r3, lr}
   81952:	4613      	mov	r3, r2
	at24cxx_read_continuous(EepromIndex, ConfigLen, ConfigStructPointer);
   81954:	4602      	mov	r2, r0
   81956:	4618      	mov	r0, r3
   81958:	4b01      	ldr	r3, [pc, #4]	; (81960 <storage_struct_read_eeprom_init+0x10>)
   8195a:	4798      	blx	r3
   8195c:	bd08      	pop	{r3, pc}
   8195e:	bf00      	nop
   81960:	00080231 	.word	0x00080231

00081964 <storage_init_struct_to_zero>:
 }

 void storage_init_struct_to_zero(uint8_t *ConfigStructPointer, uint16_t ConfigLen)
 {
	 for (uint16_t i = 0; i < ConfigLen; i++)
   81964:	b141      	cbz	r1, 81978 <storage_init_struct_to_zero+0x14>
   81966:	1e43      	subs	r3, r0, #1
   81968:	1e4a      	subs	r2, r1, #1
   8196a:	b292      	uxth	r2, r2
   8196c:	4410      	add	r0, r2
		 *(ConfigStructPointer + i) = 0;
   8196e:	2200      	movs	r2, #0
   81970:	f803 2f01 	strb.w	r2, [r3, #1]!
	at24cxx_read_continuous(EepromIndex, ConfigLen, ConfigStructPointer);
 }

 void storage_init_struct_to_zero(uint8_t *ConfigStructPointer, uint16_t ConfigLen)
 {
	 for (uint16_t i = 0; i < ConfigLen; i++)
   81974:	4283      	cmp	r3, r0
   81976:	d1fb      	bne.n	81970 <storage_init_struct_to_zero+0xc>
   81978:	4770      	bx	lr
   8197a:	bf00      	nop

0008197c <tables_Table3D_alloc_mem>:
 */ 

#include "tables.h"

void tables_Table3D_alloc_mem(struct Table3D *Current, uint8_t Xsize, uint8_t Ysize)
{
   8197c:	e92d 47f0 	stmdb	sp!, {r4, r5, r6, r7, r8, r9, sl, lr}
   81980:	4606      	mov	r6, r0
   81982:	460f      	mov	r7, r1
   81984:	4691      	mov	r9, r2
// LSD, lna svo dlkur (line then column)
	Current->Table = (uint8_t **)malloc(Ysize * sizeof(uint8_t*));
   81986:	0090      	lsls	r0, r2, #2
   81988:	4b13      	ldr	r3, [pc, #76]	; (819d8 <tables_Table3D_alloc_mem+0x5c>)
   8198a:	4798      	blx	r3
   8198c:	6030      	str	r0, [r6, #0]
	for (uint8_t i = 0; i < Ysize; i++)
   8198e:	f1b9 0f00 	cmp.w	r9, #0
   81992:	d011      	beq.n	819b8 <tables_Table3D_alloc_mem+0x3c>
   81994:	f109 38ff 	add.w	r8, r9, #4294967295
   81998:	fa5f f888 	uxtb.w	r8, r8
   8199c:	f108 0801 	add.w	r8, r8, #1
   819a0:	ea4f 0888 	mov.w	r8, r8, lsl #2
   819a4:	2400      	movs	r4, #0
		Current->Table[i] = (uint8_t *)malloc(Xsize * sizeof(uint8_t));
   819a6:	f8df a030 	ldr.w	sl, [pc, #48]	; 819d8 <tables_Table3D_alloc_mem+0x5c>
   819aa:	6835      	ldr	r5, [r6, #0]
   819ac:	4638      	mov	r0, r7
   819ae:	47d0      	blx	sl
   819b0:	5128      	str	r0, [r5, r4]
   819b2:	3404      	adds	r4, #4

void tables_Table3D_alloc_mem(struct Table3D *Current, uint8_t Xsize, uint8_t Ysize)
{
// LSD, lna svo dlkur (line then column)
	Current->Table = (uint8_t **)malloc(Ysize * sizeof(uint8_t*));
	for (uint8_t i = 0; i < Ysize; i++)
   819b4:	4544      	cmp	r4, r8
   819b6:	d1f8      	bne.n	819aa <tables_Table3D_alloc_mem+0x2e>
		Current->Table[i] = (uint8_t *)malloc(Xsize * sizeof(uint8_t));
	Current->Xbin = (uint8_t *)malloc(Xsize * sizeof(uint8_t));
   819b8:	4638      	mov	r0, r7
   819ba:	4c07      	ldr	r4, [pc, #28]	; (819d8 <tables_Table3D_alloc_mem+0x5c>)
   819bc:	47a0      	blx	r4
   819be:	6070      	str	r0, [r6, #4]
	Current->Ybin = (uint8_t *)malloc(Ysize * sizeof(uint8_t));
   819c0:	4648      	mov	r0, r9
   819c2:	47a0      	blx	r4
   819c4:	60b0      	str	r0, [r6, #8]
	Current->Xsize = Xsize;
   819c6:	7337      	strb	r7, [r6, #12]
	Current->Ysize = Ysize;
   819c8:	f886 900d 	strb.w	r9, [r6, #13]
	Current->Bytes = (uint16_t) Xsize * Ysize + Xsize + Ysize;
   819cc:	fb09 7707 	mla	r7, r9, r7, r7
   819d0:	444f      	add	r7, r9
   819d2:	81f7      	strh	r7, [r6, #14]
   819d4:	e8bd 87f0 	ldmia.w	sp!, {r4, r5, r6, r7, r8, r9, sl, pc}
   819d8:	0008302d 	.word	0x0008302d

000819dc <tables_Table3D_read_eeprom>:
}

void tables_Table3D_read_eeprom(struct Table3D *Current, uint16_t EepromIndex)
{
   819dc:	b5f8      	push	{r3, r4, r5, r6, r7, lr}
   819de:	4605      	mov	r5, r0
   819e0:	460e      	mov	r6, r1
	for (uint8_t i = 0; i < Current->Ysize; i++)
   819e2:	7b43      	ldrb	r3, [r0, #13]
   819e4:	b17b      	cbz	r3, 81a06 <tables_Table3D_read_eeprom+0x2a>
   819e6:	2400      	movs	r4, #0
	{
		storage_struct_read_eeprom_init(Current->Table[i], Current->Xsize, EepromIndex);
   819e8:	4f0d      	ldr	r7, [pc, #52]	; (81a20 <tables_Table3D_read_eeprom+0x44>)
   819ea:	682b      	ldr	r3, [r5, #0]
   819ec:	4632      	mov	r2, r6
   819ee:	7b29      	ldrb	r1, [r5, #12]
   819f0:	f853 0024 	ldr.w	r0, [r3, r4, lsl #2]
   819f4:	47b8      	blx	r7
		EepromIndex += Current->Xsize;
   819f6:	7b2a      	ldrb	r2, [r5, #12]
   819f8:	4432      	add	r2, r6
   819fa:	b296      	uxth	r6, r2
	Current->Bytes = (uint16_t) Xsize * Ysize + Xsize + Ysize;
}

void tables_Table3D_read_eeprom(struct Table3D *Current, uint16_t EepromIndex)
{
	for (uint8_t i = 0; i < Current->Ysize; i++)
   819fc:	3401      	adds	r4, #1
   819fe:	b2e4      	uxtb	r4, r4
   81a00:	7b6b      	ldrb	r3, [r5, #13]
   81a02:	42a3      	cmp	r3, r4
   81a04:	d8f1      	bhi.n	819ea <tables_Table3D_read_eeprom+0xe>
	{
		storage_struct_read_eeprom_init(Current->Table[i], Current->Xsize, EepromIndex);
		EepromIndex += Current->Xsize;
	} 
	storage_struct_read_eeprom_init(Current->Xbin, Current->Xsize, EepromIndex);
   81a06:	4632      	mov	r2, r6
   81a08:	7b29      	ldrb	r1, [r5, #12]
   81a0a:	6868      	ldr	r0, [r5, #4]
   81a0c:	4c04      	ldr	r4, [pc, #16]	; (81a20 <tables_Table3D_read_eeprom+0x44>)
   81a0e:	47a0      	blx	r4
	EepromIndex += Current->Xsize;
	storage_struct_read_eeprom_init(Current->Ybin, Current->Ysize, EepromIndex);
   81a10:	7b2a      	ldrb	r2, [r5, #12]
   81a12:	4432      	add	r2, r6
   81a14:	b292      	uxth	r2, r2
   81a16:	7b69      	ldrb	r1, [r5, #13]
   81a18:	68a8      	ldr	r0, [r5, #8]
   81a1a:	47a0      	blx	r4
   81a1c:	bdf8      	pop	{r3, r4, r5, r6, r7, pc}
   81a1e:	bf00      	nop
   81a20:	00081951 	.word	0x00081951

00081a24 <tables_Table3D_init>:
}

void tables_Table3D_init(struct Table3D *Current, uint8_t Xsize, uint8_t Ysize, uint16_t EepromIndex)
{
   81a24:	b538      	push	{r3, r4, r5, lr}
   81a26:	4604      	mov	r4, r0
   81a28:	461d      	mov	r5, r3
	tables_Table3D_alloc_mem(Current, Xsize, Ysize);
   81a2a:	4b03      	ldr	r3, [pc, #12]	; (81a38 <tables_Table3D_init+0x14>)
   81a2c:	4798      	blx	r3
	tables_Table3D_read_eeprom(Current, EepromIndex);
   81a2e:	4629      	mov	r1, r5
   81a30:	4620      	mov	r0, r4
   81a32:	4b02      	ldr	r3, [pc, #8]	; (81a3c <tables_Table3D_init+0x18>)
   81a34:	4798      	blx	r3
   81a36:	bd38      	pop	{r3, r4, r5, pc}
   81a38:	0008197d 	.word	0x0008197d
   81a3c:	000819dd 	.word	0x000819dd

00081a40 <table_init>:
}

// Initialization function for arrays
void table_init(void)
{
   81a40:	b510      	push	{r4, lr}
	tables_Table3D_init(&VE, THREE_D_TABLE_SIZE, THREE_D_TABLE_SIZE, EEPROM_VE_INDEX);
   81a42:	2300      	movs	r3, #0
   81a44:	2210      	movs	r2, #16
   81a46:	4611      	mov	r1, r2
   81a48:	4807      	ldr	r0, [pc, #28]	; (81a68 <table_init+0x28>)
   81a4a:	4c08      	ldr	r4, [pc, #32]	; (81a6c <table_init+0x2c>)
   81a4c:	47a0      	blx	r4
	tables_Table3D_init(&AFR, THREE_D_TABLE_SIZE, THREE_D_TABLE_SIZE, EEPROM_AFR_INDEX);
   81a4e:	f44f 7390 	mov.w	r3, #288	; 0x120
   81a52:	2210      	movs	r2, #16
   81a54:	4611      	mov	r1, r2
   81a56:	4806      	ldr	r0, [pc, #24]	; (81a70 <table_init+0x30>)
   81a58:	47a0      	blx	r4
	tables_Table3D_init(&IGN, THREE_D_TABLE_SIZE, THREE_D_TABLE_SIZE, EEPROM_IGN_INDEX);
   81a5a:	f44f 7310 	mov.w	r3, #576	; 0x240
   81a5e:	2210      	movs	r2, #16
   81a60:	4611      	mov	r1, r2
   81a62:	4804      	ldr	r0, [pc, #16]	; (81a74 <table_init+0x34>)
   81a64:	47a0      	blx	r4
   81a66:	bd10      	pop	{r4, pc}
   81a68:	20070eac 	.word	0x20070eac
   81a6c:	00081a25 	.word	0x00081a25
   81a70:	20071cb4 	.word	0x20071cb4
   81a74:	20071d18 	.word	0x20071d18

00081a78 <timer_init>:

/* TimerChannel is 0-8 and priority is nested vector interrupt priority */
void timer_init(uint32_t TimerChannel, uint32_t TimerMode, uint32_t InterruptMode, uint8_t TimerInterruptPriority)
{
	// Check if the programmer is screwed
	if (TimerChannel > 8)
   81a78:	2808      	cmp	r0, #8
   81a7a:	d839      	bhi.n	81af0 <timer_init+0x78>
	TC0->TC_CHANNEL[0].TC_CCR = TC_CCR_CLKEN | TC_CCR_SWTRG;
}

/* TimerChannel is 0-8 and priority is nested vector interrupt priority */
void timer_init(uint32_t TimerChannel, uint32_t TimerMode, uint32_t InterruptMode, uint8_t TimerInterruptPriority)
{
   81a7c:	e92d 47f0 	stmdb	sp!, {r4, r5, r6, r7, r8, r9, sl, lr}
   81a80:	461f      	mov	r7, r3
   81a82:	4616      	mov	r6, r2
   81a84:	4688      	mov	r8, r1
   81a86:	4605      	mov	r5, r0
	// Check if the programmer is screwed
	if (TimerChannel > 8)
		return;
		
	// Enable peripheral clock
	pmc_enable_periph_clk(ID_TC0 + TimerChannel);
   81a88:	f100 0a1b 	add.w	sl, r0, #27
   81a8c:	4650      	mov	r0, sl
   81a8e:	4b19      	ldr	r3, [pc, #100]	; (81af4 <timer_init+0x7c>)
   81a90:	4798      	blx	r3
	
	Tc *Timer;
	// Initialize timer
	if (TimerChannel < 3) // TC0
   81a92:	2d02      	cmp	r5, #2
   81a94:	d906      	bls.n	81aa4 <timer_init+0x2c>
		Timer = TC0; 
	else if (TimerChannel < 6) // TC1
		Timer = TC1;
	else // TC2
		Timer = TC2;
   81a96:	4b18      	ldr	r3, [pc, #96]	; (81af8 <timer_init+0x80>)
   81a98:	4a18      	ldr	r2, [pc, #96]	; (81afc <timer_init+0x84>)
   81a9a:	2d05      	cmp	r5, #5
   81a9c:	bf94      	ite	ls
   81a9e:	4691      	movls	r9, r2
   81aa0:	4699      	movhi	r9, r3
   81aa2:	e001      	b.n	81aa8 <timer_init+0x30>
	pmc_enable_periph_clk(ID_TC0 + TimerChannel);
	
	Tc *Timer;
	// Initialize timer
	if (TimerChannel < 3) // TC0
		Timer = TC0; 
   81aa4:	f8df 9074 	ldr.w	r9, [pc, #116]	; 81b1c <timer_init+0xa4>
	else if (TimerChannel < 6) // TC1
		Timer = TC1;
	else // TC2
		Timer = TC2;
		
	tc_init(Timer, (TimerChannel%3), TimerMode);
   81aa8:	4c15      	ldr	r4, [pc, #84]	; (81b00 <timer_init+0x88>)
   81aaa:	fba4 3405 	umull	r3, r4, r4, r5
   81aae:	0864      	lsrs	r4, r4, #1
   81ab0:	eb04 0444 	add.w	r4, r4, r4, lsl #1
   81ab4:	1b2c      	subs	r4, r5, r4
   81ab6:	4642      	mov	r2, r8
   81ab8:	4621      	mov	r1, r4
   81aba:	4648      	mov	r0, r9
   81abc:	4b11      	ldr	r3, [pc, #68]	; (81b04 <timer_init+0x8c>)
   81abe:	4798      	blx	r3
	
	interrupts_enable_interrupt_vector(TC0_IRQn + TimerChannel, TimerInterruptPriority);
   81ac0:	4639      	mov	r1, r7
   81ac2:	4650      	mov	r0, sl
   81ac4:	4b10      	ldr	r3, [pc, #64]	; (81b08 <timer_init+0x90>)
   81ac6:	4798      	blx	r3
	
	tc_enable_interrupt(Timer, (TimerChannel%3), InterruptMode);
   81ac8:	4632      	mov	r2, r6
   81aca:	4621      	mov	r1, r4
   81acc:	4648      	mov	r0, r9
   81ace:	4b0f      	ldr	r3, [pc, #60]	; (81b0c <timer_init+0x94>)
   81ad0:	4798      	blx	r3
	TC2->TC_CHANNEL[2].TC_IER = TC_IER_CPBS;
   81ad2:	2208      	movs	r2, #8
   81ad4:	4b08      	ldr	r3, [pc, #32]	; (81af8 <timer_init+0x80>)
   81ad6:	f8c3 20a4 	str.w	r2, [r3, #164]	; 0xa4
	
	tc_start(Timer, (TimerChannel%3));
   81ada:	4621      	mov	r1, r4
   81adc:	4648      	mov	r0, r9
   81ade:	4b0c      	ldr	r3, [pc, #48]	; (81b10 <timer_init+0x98>)
   81ae0:	4798      	blx	r3
	
	// TODO !!!!!!!!!!!!!
	TC8_Overflow = FALSE;
   81ae2:	2300      	movs	r3, #0
   81ae4:	4a0b      	ldr	r2, [pc, #44]	; (81b14 <timer_init+0x9c>)
   81ae6:	7013      	strb	r3, [r2, #0]
	millis = 0;
   81ae8:	4a0b      	ldr	r2, [pc, #44]	; (81b18 <timer_init+0xa0>)
   81aea:	6013      	str	r3, [r2, #0]
   81aec:	e8bd 87f0 	ldmia.w	sp!, {r4, r5, r6, r7, r8, r9, sl, pc}
   81af0:	4770      	bx	lr
   81af2:	bf00      	nop
   81af4:	00080705 	.word	0x00080705
   81af8:	40088000 	.word	0x40088000
   81afc:	40084000 	.word	0x40084000
   81b00:	aaaaaaab 	.word	0xaaaaaaab
   81b04:	00080759 	.word	0x00080759
   81b08:	0008131d 	.word	0x0008131d
   81b0c:	00080789 	.word	0x00080789
   81b10:	00080771 	.word	0x00080771
   81b14:	20070a28 	.word	0x20070a28
   81b18:	200721ec 	.word	0x200721ec
   81b1c:	40080000 	.word	0x40080000

00081b20 <timer_do_cylinder>:
}

uint32_t timer_read_status(Tc *p_tc, uint32_t ul_channel, uint32_t *CounterValue)
{
	// Read the current Counter Value
	*CounterValue = p_tc->TC_CHANNEL[ul_channel].TC_CV;
   81b20:	eb00 1181 	add.w	r1, r0, r1, lsl #6
   81b24:	690b      	ldr	r3, [r1, #16]
	// Read the current Status, Compare or overflow
	return p_tc->TC_CHANNEL[ul_channel].TC_SR;
   81b26:	6a0b      	ldr	r3, [r1, #32]
void timer_do_cylinder(Tc *p_tc, uint32_t ul_channel, uint8_t CylinderNr)
{
	//uart_transfer('a'); uart_print_int(CylinderNr); uart_new_line();
	uint32_t CounterValue;
	uint32_t TimerStatus = timer_read_status(p_tc, ul_channel, &CounterValue);
	if (TimerStatus & TC_SR_CPAS) // Compare register A
   81b28:	f013 0f04 	tst.w	r3, #4
   81b2c:	d023      	beq.n	81b76 <timer_do_cylinder+0x56>
	{
		if (DwellFirstFlag)
   81b2e:	4b12      	ldr	r3, [pc, #72]	; (81b78 <timer_do_cylinder+0x58>)
   81b30:	781b      	ldrb	r3, [r3, #0]
   81b32:	f013 0fff 	tst.w	r3, #255	; 0xff
   81b36:	d009      	beq.n	81b4c <timer_do_cylinder+0x2c>
		{
			cylinder[CylinderNr].Ign_pio->PIO_SODR	=	cylinder[CylinderNr].IgnOutputPin;			// Sets pin to high
   81b38:	4b10      	ldr	r3, [pc, #64]	; (81b7c <timer_do_cylinder+0x5c>)
   81b3a:	eb03 1242 	add.w	r2, r3, r2, lsl #5
   81b3e:	6953      	ldr	r3, [r2, #20]
   81b40:	6912      	ldr	r2, [r2, #16]
   81b42:	631a      	str	r2, [r3, #48]	; 0x30
			DwellFirstFlag = FALSE;
   81b44:	2200      	movs	r2, #0
   81b46:	4b0c      	ldr	r3, [pc, #48]	; (81b78 <timer_do_cylinder+0x58>)
   81b48:	701a      	strb	r2, [r3, #0]
   81b4a:	4770      	bx	lr
		}
		else if (DwellSecondFlag)
   81b4c:	4b0c      	ldr	r3, [pc, #48]	; (81b80 <timer_do_cylinder+0x60>)
   81b4e:	781b      	ldrb	r3, [r3, #0]
   81b50:	f013 0fff 	tst.w	r3, #255	; 0xff
   81b54:	d009      	beq.n	81b6a <timer_do_cylinder+0x4a>
		{
			cylinder[CylinderNr].Ign_pio->PIO_SODR	=	cylinder[CylinderNr].IgnOutputPin;			// Sets pin to high
   81b56:	4b09      	ldr	r3, [pc, #36]	; (81b7c <timer_do_cylinder+0x5c>)
   81b58:	eb03 1242 	add.w	r2, r3, r2, lsl #5
   81b5c:	6953      	ldr	r3, [r2, #20]
   81b5e:	6912      	ldr	r2, [r2, #16]
   81b60:	631a      	str	r2, [r3, #48]	; 0x30
			DwellSecondFlag = FALSE;
   81b62:	2200      	movs	r2, #0
   81b64:	4b06      	ldr	r3, [pc, #24]	; (81b80 <timer_do_cylinder+0x60>)
   81b66:	701a      	strb	r2, [r3, #0]
   81b68:	4770      	bx	lr
		}
		else
		{
			cylinder[CylinderNr].Ign_pio->PIO_CODR	=	cylinder[CylinderNr].IgnOutputPin;			// Sets pin PC19 to low
   81b6a:	4b04      	ldr	r3, [pc, #16]	; (81b7c <timer_do_cylinder+0x5c>)
   81b6c:	eb03 1242 	add.w	r2, r3, r2, lsl #5
   81b70:	6953      	ldr	r3, [r2, #20]
   81b72:	6912      	ldr	r2, [r2, #16]
   81b74:	635a      	str	r2, [r3, #52]	; 0x34
   81b76:	4770      	bx	lr
   81b78:	20072134 	.word	0x20072134
   81b7c:	20070e2c 	.word	0x20070e2c
   81b80:	20070a29 	.word	0x20070a29

00081b84 <TC0_Handler>:
	CPCS: RC Compare Status                                             */
/************************************************************************/

// CYLINDER_1_TIMER
void TC0_Handler(void)
{
   81b84:	b508      	push	{r3, lr}
	timer_do_cylinder(TC0, 0, 0);
   81b86:	2200      	movs	r2, #0
   81b88:	4611      	mov	r1, r2
   81b8a:	4802      	ldr	r0, [pc, #8]	; (81b94 <TC0_Handler+0x10>)
   81b8c:	4b02      	ldr	r3, [pc, #8]	; (81b98 <TC0_Handler+0x14>)
   81b8e:	4798      	blx	r3
   81b90:	bd08      	pop	{r3, pc}
   81b92:	bf00      	nop
   81b94:	40080000 	.word	0x40080000
   81b98:	00081b21 	.word	0x00081b21

00081b9c <TC1_Handler>:
// 	}
}

// CYLINDER_2_TIMER
void TC1_Handler(void)
{
   81b9c:	b508      	push	{r3, lr}
	timer_do_cylinder(TC0, 1, 1);
   81b9e:	2201      	movs	r2, #1
   81ba0:	4611      	mov	r1, r2
   81ba2:	4802      	ldr	r0, [pc, #8]	; (81bac <TC1_Handler+0x10>)
   81ba4:	4b02      	ldr	r3, [pc, #8]	; (81bb0 <TC1_Handler+0x14>)
   81ba6:	4798      	blx	r3
   81ba8:	bd08      	pop	{r3, pc}
   81baa:	bf00      	nop
   81bac:	40080000 	.word	0x40080000
   81bb0:	00081b21 	.word	0x00081b21

00081bb4 <TC2_Handler>:
// 	TC0->TC_CHANNEL[1].TC_CCR	=	TC_CCR_CLKDIS;
}

// CYLINDER_3_TIMER
void TC2_Handler(void)
{
   81bb4:	b508      	push	{r3, lr}
	timer_do_cylinder(TC0, 2, 2);
   81bb6:	2202      	movs	r2, #2
   81bb8:	4611      	mov	r1, r2
   81bba:	4802      	ldr	r0, [pc, #8]	; (81bc4 <TC2_Handler+0x10>)
   81bbc:	4b02      	ldr	r3, [pc, #8]	; (81bc8 <TC2_Handler+0x14>)
   81bbe:	4798      	blx	r3
   81bc0:	bd08      	pop	{r3, pc}
   81bc2:	bf00      	nop
   81bc4:	40080000 	.word	0x40080000
   81bc8:	00081b21 	.word	0x00081b21

00081bcc <TC3_Handler>:
// 	TC0->TC_CHANNEL[2].TC_CCR	=	TC_CCR_CLKDIS;
}

// CYLINDER_4_TIMER
void TC3_Handler(void)
{
   81bcc:	b508      	push	{r3, lr}
	timer_do_cylinder(TC1, 0, 3);
   81bce:	2203      	movs	r2, #3
   81bd0:	2100      	movs	r1, #0
   81bd2:	4802      	ldr	r0, [pc, #8]	; (81bdc <TC3_Handler+0x10>)
   81bd4:	4b02      	ldr	r3, [pc, #8]	; (81be0 <TC3_Handler+0x14>)
   81bd6:	4798      	blx	r3
   81bd8:	bd08      	pop	{r3, pc}
   81bda:	bf00      	nop
   81bdc:	40084000 	.word	0x40084000
   81be0:	00081b21 	.word	0x00081b21

00081be4 <TC4_Handler>:
// 	uint32_t readtc	=	TC1->TC_CHANNEL[0].TC_SR;
// 	TC1->TC_CHANNEL[0].TC_CCR	=	TC_CCR_CLKDIS;
}
// CYLINDER_5_TIMER
void TC4_Handler(void)
{
   81be4:	b508      	push	{r3, lr}
	timer_do_cylinder(TC1, 1, 4);
   81be6:	2204      	movs	r2, #4
   81be8:	2101      	movs	r1, #1
   81bea:	4802      	ldr	r0, [pc, #8]	; (81bf4 <TC4_Handler+0x10>)
   81bec:	4b02      	ldr	r3, [pc, #8]	; (81bf8 <TC4_Handler+0x14>)
   81bee:	4798      	blx	r3
   81bf0:	bd08      	pop	{r3, pc}
   81bf2:	bf00      	nop
   81bf4:	40084000 	.word	0x40084000
   81bf8:	00081b21 	.word	0x00081b21

00081bfc <TC5_Handler>:
}
// CYLINDER_6_TIMER
void TC5_Handler(void)
{
   81bfc:	b508      	push	{r3, lr}
	timer_do_cylinder(TC1, 2, 5);
   81bfe:	2205      	movs	r2, #5
   81c00:	2102      	movs	r1, #2
   81c02:	4802      	ldr	r0, [pc, #8]	; (81c0c <TC5_Handler+0x10>)
   81c04:	4b02      	ldr	r3, [pc, #8]	; (81c10 <TC5_Handler+0x14>)
   81c06:	4798      	blx	r3
   81c08:	bd08      	pop	{r3, pc}
   81c0a:	bf00      	nop
   81c0c:	40084000 	.word	0x40084000
   81c10:	00081b21 	.word	0x00081b21

00081c14 <TC6_Handler>:
}
// CYLINDER_7_TIMER
void TC6_Handler(void)
{
   81c14:	b508      	push	{r3, lr}
	timer_do_cylinder(TC2, 0, 6);
   81c16:	2206      	movs	r2, #6
   81c18:	2100      	movs	r1, #0
   81c1a:	4802      	ldr	r0, [pc, #8]	; (81c24 <TC6_Handler+0x10>)
   81c1c:	4b02      	ldr	r3, [pc, #8]	; (81c28 <TC6_Handler+0x14>)
   81c1e:	4798      	blx	r3
   81c20:	bd08      	pop	{r3, pc}
   81c22:	bf00      	nop
   81c24:	40088000 	.word	0x40088000
   81c28:	00081b21 	.word	0x00081b21

00081c2c <TC7_Handler>:
}
// CYLINDER_8_TIMER
void TC7_Handler(void)
{
   81c2c:	b508      	push	{r3, lr}
	timer_do_cylinder(TC2, 1, 7);
   81c2e:	2207      	movs	r2, #7
   81c30:	2101      	movs	r1, #1
   81c32:	4802      	ldr	r0, [pc, #8]	; (81c3c <TC7_Handler+0x10>)
   81c34:	4b02      	ldr	r3, [pc, #8]	; (81c40 <TC7_Handler+0x14>)
   81c36:	4798      	blx	r3
   81c38:	bd08      	pop	{r3, pc}
   81c3a:	bf00      	nop
   81c3c:	40088000 	.word	0x40088000
   81c40:	00081b21 	.word	0x00081b21

00081c44 <TC8_Handler>:
}
// GLOBAL_TIMER
void TC8_Handler(void)
{
   81c44:	b538      	push	{r3, r4, r5, lr}
}

uint32_t timer_read_status(Tc *p_tc, uint32_t ul_channel, uint32_t *CounterValue)
{
	// Read the current Counter Value
	*CounterValue = p_tc->TC_CHANNEL[ul_channel].TC_CV;
   81c46:	4b20      	ldr	r3, [pc, #128]	; (81cc8 <TC8_Handler+0x84>)
   81c48:	f8d3 5090 	ldr.w	r5, [r3, #144]	; 0x90
	// Read the current Status, Compare or overflow
	return p_tc->TC_CHANNEL[ul_channel].TC_SR;
   81c4c:	f8d3 40a0 	ldr.w	r4, [r3, #160]	; 0xa0
	uint32_t TimerStatus = timer_read_status(TC2, 2, &CounterValue);
	// Read the current TC8 Counter Value
	//uint32_t CounterValue = tc_read_cv(TC2, 2);
	// Read the current TC8 Status, Compare or overflow
	//uint32_t tc_status = TC2->TC_CHANNEL[2].TC_SR;
	if (TimerStatus & TC_SR_CPAS)
   81c50:	f014 0f04 	tst.w	r4, #4
   81c54:	d00c      	beq.n	81c70 <TC8_Handler+0x2c>
	{
		tc_write_ra(TC2, 2, CounterValue + GLOBAL_TIMER_FREQ/GlobalTimerFreqADCScaler);
   81c56:	4b1d      	ldr	r3, [pc, #116]	; (81ccc <TC8_Handler+0x88>)
   81c58:	881a      	ldrh	r2, [r3, #0]
   81c5a:	4b1d      	ldr	r3, [pc, #116]	; (81cd0 <TC8_Handler+0x8c>)
   81c5c:	fb93 f2f2 	sdiv	r2, r3, r2
   81c60:	442a      	add	r2, r5
   81c62:	2102      	movs	r1, #2
   81c64:	4818      	ldr	r0, [pc, #96]	; (81cc8 <TC8_Handler+0x84>)
   81c66:	4b1b      	ldr	r3, [pc, #108]	; (81cd4 <TC8_Handler+0x90>)
   81c68:	4798      	blx	r3
		adc_start(ADC);
   81c6a:	481b      	ldr	r0, [pc, #108]	; (81cd8 <TC8_Handler+0x94>)
   81c6c:	4b1b      	ldr	r3, [pc, #108]	; (81cdc <TC8_Handler+0x98>)
   81c6e:	4798      	blx	r3
		//uart_transfer('a');
	}
	if (TimerStatus & TC_SR_CPBS) // Compare register B is not working ?? 25.2.17
   81c70:	f014 0f08 	tst.w	r4, #8
   81c74:	d004      	beq.n	81c80 <TC8_Handler+0x3c>
	{
		TC2->TC_CHANNEL[2].TC_RB = CounterValue + GLOBAL_TIMER_FREQ/MILLI_SEC;
   81c76:	f605 2341 	addw	r3, r5, #2625	; 0xa41
   81c7a:	4a13      	ldr	r2, [pc, #76]	; (81cc8 <TC8_Handler+0x84>)
   81c7c:	f8c2 3098 	str.w	r3, [r2, #152]	; 0x98
		//tc_write_rb(TC2, 2, CounterValue + GLOBAL_TIMER_FREQ/MILLI_SEC);
		//tc_write_rb(TC2, 2, CounterValue + GLOBAL_TIMER_FREQ/GlobalTimerFreqUARTScaler);
		// TODO: START UART
		//uart_transfer('b');
	}
	if (TimerStatus & TC_SR_CPCS)
   81c80:	f014 0f10 	tst.w	r4, #16
   81c84:	d009      	beq.n	81c9a <TC8_Handler+0x56>
	{
		tc_write_rc(TC2, 2, CounterValue + GLOBAL_TIMER_FREQ/MILLI_SEC);
   81c86:	f605 2241 	addw	r2, r5, #2625	; 0xa41
   81c8a:	2102      	movs	r1, #2
   81c8c:	480e      	ldr	r0, [pc, #56]	; (81cc8 <TC8_Handler+0x84>)
   81c8e:	4b14      	ldr	r3, [pc, #80]	; (81ce0 <TC8_Handler+0x9c>)
   81c90:	4798      	blx	r3
		millis++;
   81c92:	4a14      	ldr	r2, [pc, #80]	; (81ce4 <TC8_Handler+0xa0>)
   81c94:	6813      	ldr	r3, [r2, #0]
   81c96:	3301      	adds	r3, #1
   81c98:	6013      	str	r3, [r2, #0]
		//tc_write_rc(TC2, 2, CounterValue + GLOBAL_TIMER_FREQ/GlobalTimerFreqTelemetryScaler);
	}
	if (TimerStatus & TC_SR_COVFS)
   81c9a:	f014 0f01 	tst.w	r4, #1
   81c9e:	d012      	beq.n	81cc6 <TC8_Handler+0x82>
	{
		TC8_Overflow = TRUE;
   81ca0:	2201      	movs	r2, #1
   81ca2:	4b11      	ldr	r3, [pc, #68]	; (81ce8 <TC8_Handler+0xa4>)
   81ca4:	701a      	strb	r2, [r3, #0]
		tc_write_ra(TC2, 2, GLOBAL_TIMER_FREQ/GlobalTimerFreqADCScaler);
   81ca6:	4b09      	ldr	r3, [pc, #36]	; (81ccc <TC8_Handler+0x88>)
   81ca8:	881b      	ldrh	r3, [r3, #0]
   81caa:	4c07      	ldr	r4, [pc, #28]	; (81cc8 <TC8_Handler+0x84>)
   81cac:	4a08      	ldr	r2, [pc, #32]	; (81cd0 <TC8_Handler+0x8c>)
   81cae:	fb92 f2f3 	sdiv	r2, r2, r3
   81cb2:	2102      	movs	r1, #2
   81cb4:	4620      	mov	r0, r4
   81cb6:	4b07      	ldr	r3, [pc, #28]	; (81cd4 <TC8_Handler+0x90>)
   81cb8:	4798      	blx	r3
		//tc_write_rb(TC2, 2, GLOBAL_TIMER_FREQ/GlobalTimerFreqUARTScaler);
		tc_write_rc(TC2, 2, GLOBAL_TIMER_FREQ/MILLI_SEC);
   81cba:	f640 2241 	movw	r2, #2625	; 0xa41
   81cbe:	2102      	movs	r1, #2
   81cc0:	4620      	mov	r0, r4
   81cc2:	4b07      	ldr	r3, [pc, #28]	; (81ce0 <TC8_Handler+0x9c>)
   81cc4:	4798      	blx	r3
   81cc6:	bd38      	pop	{r3, r4, r5, pc}
   81cc8:	40088000 	.word	0x40088000
   81ccc:	200718ac 	.word	0x200718ac
   81cd0:	00280de8 	.word	0x00280de8
   81cd4:	00080779 	.word	0x00080779
   81cd8:	400c0000 	.word	0x400c0000
   81cdc:	000802d9 	.word	0x000802d9
   81ce0:	00080781 	.word	0x00080781
   81ce4:	200721ec 	.word	0x200721ec
   81ce8:	20070a28 	.word	0x20070a28

00081cec <tunerstudio_init>:
#include "tunerstudiocomm.h"

// Initialization function
void tunerstudio_init(void)
{
	CurrPage = 255;
   81cec:	22ff      	movs	r2, #255	; 0xff
   81cee:	4b07      	ldr	r3, [pc, #28]	; (81d0c <tunerstudio_init+0x20>)
   81cf0:	701a      	strb	r2, [r3, #0]
	NewPageFlag = FALSE;
   81cf2:	2300      	movs	r3, #0
   81cf4:	4a06      	ldr	r2, [pc, #24]	; (81d10 <tunerstudio_init+0x24>)
   81cf6:	7013      	strb	r3, [r2, #0]
	WriteFlag = FALSE;
   81cf8:	4a06      	ldr	r2, [pc, #24]	; (81d14 <tunerstudio_init+0x28>)
   81cfa:	7013      	strb	r3, [r2, #0]
	Offset1 = 0;
   81cfc:	4a06      	ldr	r2, [pc, #24]	; (81d18 <tunerstudio_init+0x2c>)
   81cfe:	7013      	strb	r3, [r2, #0]
	Offset2 = 0;
   81d00:	4a06      	ldr	r2, [pc, #24]	; (81d1c <tunerstudio_init+0x30>)
   81d02:	7013      	strb	r3, [r2, #0]
	OffsetFlag = FALSE;
   81d04:	4a06      	ldr	r2, [pc, #24]	; (81d20 <tunerstudio_init+0x34>)
   81d06:	7013      	strb	r3, [r2, #0]
   81d08:	4770      	bx	lr
   81d0a:	bf00      	nop
   81d0c:	20070a1c 	.word	0x20070a1c
   81d10:	200721e9 	.word	0x200721e9
   81d14:	200709d2 	.word	0x200709d2
   81d18:	20071cb2 	.word	0x20071cb2
   81d1c:	20071cc4 	.word	0x20071cc4
   81d20:	20071cb1 	.word	0x20071cb1

00081d24 <tunerstudio_send_struct>:
	tunerstudio_send_struct(Current->Ybin, Current->Ysize);
}
 

void tunerstudio_send_struct(uint8_t *ConfigStructPointer, uint16_t ConfigLen)
{
   81d24:	b570      	push	{r4, r5, r6, lr}
	for (uint16_t i = 0; i < ConfigLen; i++)
   81d26:	b149      	cbz	r1, 81d3c <tunerstudio_send_struct+0x18>
   81d28:	1e44      	subs	r4, r0, #1
   81d2a:	1e4b      	subs	r3, r1, #1
   81d2c:	b29b      	uxth	r3, r3
   81d2e:	18c5      	adds	r5, r0, r3
		uart_load_tx_buffer(*((uint8_t *)ConfigStructPointer + i));
   81d30:	4e04      	ldr	r6, [pc, #16]	; (81d44 <tunerstudio_send_struct+0x20>)
   81d32:	f814 0f01 	ldrb.w	r0, [r4, #1]!
   81d36:	47b0      	blx	r6
}
 

void tunerstudio_send_struct(uint8_t *ConfigStructPointer, uint16_t ConfigLen)
{
	for (uint16_t i = 0; i < ConfigLen; i++)
   81d38:	42ac      	cmp	r4, r5
   81d3a:	d1fa      	bne.n	81d32 <tunerstudio_send_struct+0xe>
		uart_load_tx_buffer(*((uint8_t *)ConfigStructPointer + i));
	uart_enable_tx_interrupt();
   81d3c:	4b02      	ldr	r3, [pc, #8]	; (81d48 <tunerstudio_send_struct+0x24>)
   81d3e:	4798      	blx	r3
   81d40:	bd70      	pop	{r4, r5, r6, pc}
   81d42:	bf00      	nop
   81d44:	000823e1 	.word	0x000823e1
   81d48:	000823fd 	.word	0x000823fd

00081d4c <tunerstudio_send_Table3D>:
		default: break;
	}
}

void tunerstudio_send_Table3D(struct Table3D *Current)
{
   81d4c:	b570      	push	{r4, r5, r6, lr}
   81d4e:	4605      	mov	r5, r0
	for (uint8_t i = 0; i < Current->Ysize; i++)
   81d50:	7b43      	ldrb	r3, [r0, #13]
   81d52:	b15b      	cbz	r3, 81d6c <tunerstudio_send_Table3D+0x20>
   81d54:	2400      	movs	r4, #0
		tunerstudio_send_struct(Current->Table[i], Current->Xsize);
   81d56:	4e09      	ldr	r6, [pc, #36]	; (81d7c <tunerstudio_send_Table3D+0x30>)
   81d58:	682b      	ldr	r3, [r5, #0]
   81d5a:	7b29      	ldrb	r1, [r5, #12]
   81d5c:	f853 0024 	ldr.w	r0, [r3, r4, lsl #2]
   81d60:	47b0      	blx	r6
	}
}

void tunerstudio_send_Table3D(struct Table3D *Current)
{
	for (uint8_t i = 0; i < Current->Ysize; i++)
   81d62:	3401      	adds	r4, #1
   81d64:	b2e4      	uxtb	r4, r4
   81d66:	7b6b      	ldrb	r3, [r5, #13]
   81d68:	42a3      	cmp	r3, r4
   81d6a:	d8f5      	bhi.n	81d58 <tunerstudio_send_Table3D+0xc>
		tunerstudio_send_struct(Current->Table[i], Current->Xsize);
	tunerstudio_send_struct(Current->Xbin, Current->Xsize);
   81d6c:	7b29      	ldrb	r1, [r5, #12]
   81d6e:	6868      	ldr	r0, [r5, #4]
   81d70:	4c02      	ldr	r4, [pc, #8]	; (81d7c <tunerstudio_send_Table3D+0x30>)
   81d72:	47a0      	blx	r4
	tunerstudio_send_struct(Current->Ybin, Current->Ysize);
   81d74:	7b69      	ldrb	r1, [r5, #13]
   81d76:	68a8      	ldr	r0, [r5, #8]
   81d78:	47a0      	blx	r4
   81d7a:	bd70      	pop	{r4, r5, r6, pc}
   81d7c:	00081d25 	.word	0x00081d25

00081d80 <tunerstudio_send_page>:
	
}

// Function to send page according to the .ini file (CurrPage is used)
void tunerstudio_send_page(void)
{
   81d80:	b508      	push	{r3, lr}
	switch(CurrPage)
   81d82:	4b1b      	ldr	r3, [pc, #108]	; (81df0 <tunerstudio_send_page+0x70>)
   81d84:	781b      	ldrb	r3, [r3, #0]
   81d86:	3b01      	subs	r3, #1
   81d88:	2b08      	cmp	r3, #8
   81d8a:	d82f      	bhi.n	81dec <tunerstudio_send_page+0x6c>
   81d8c:	e8df f003 	tbb	[pc, r3]
   81d90:	120e0905 	.word	0x120e0905
   81d94:	25201b17 	.word	0x25201b17
   81d98:	2a          	.byte	0x2a
   81d99:	00          	.byte	0x00
	{
		case PAGE_VE:		tunerstudio_send_Table3D(&VE);										break;
   81d9a:	4816      	ldr	r0, [pc, #88]	; (81df4 <tunerstudio_send_page+0x74>)
   81d9c:	4b16      	ldr	r3, [pc, #88]	; (81df8 <tunerstudio_send_page+0x78>)
   81d9e:	4798      	blx	r3
   81da0:	bd08      	pop	{r3, pc}
		case PAGE_CONFIG2:	tunerstudio_send_struct(&engine_config2, sizeof(engine_config2));	break;
   81da2:	2142      	movs	r1, #66	; 0x42
   81da4:	4815      	ldr	r0, [pc, #84]	; (81dfc <tunerstudio_send_page+0x7c>)
   81da6:	4b16      	ldr	r3, [pc, #88]	; (81e00 <tunerstudio_send_page+0x80>)
   81da8:	4798      	blx	r3
   81daa:	bd08      	pop	{r3, pc}
		case PAGE_IGN:		tunerstudio_send_Table3D(&IGN);										break;
   81dac:	4815      	ldr	r0, [pc, #84]	; (81e04 <tunerstudio_send_page+0x84>)
   81dae:	4b12      	ldr	r3, [pc, #72]	; (81df8 <tunerstudio_send_page+0x78>)
   81db0:	4798      	blx	r3
   81db2:	bd08      	pop	{r3, pc}
		case PAGE_CONFIG4:	tunerstudio_send_struct(&engine_config4, sizeof(engine_config4));	break;
   81db4:	2140      	movs	r1, #64	; 0x40
   81db6:	4814      	ldr	r0, [pc, #80]	; (81e08 <tunerstudio_send_page+0x88>)
   81db8:	4b11      	ldr	r3, [pc, #68]	; (81e00 <tunerstudio_send_page+0x80>)
   81dba:	4798      	blx	r3
   81dbc:	bd08      	pop	{r3, pc}
		case PAGE_AFR:		tunerstudio_send_Table3D(&AFR);										break;
   81dbe:	4813      	ldr	r0, [pc, #76]	; (81e0c <tunerstudio_send_page+0x8c>)
   81dc0:	4b0d      	ldr	r3, [pc, #52]	; (81df8 <tunerstudio_send_page+0x78>)
   81dc2:	4798      	blx	r3
   81dc4:	bd08      	pop	{r3, pc}
		case PAGE_CONFIG6:	tunerstudio_send_struct(&engine_config6, sizeof(engine_config6));	break;
   81dc6:	2140      	movs	r1, #64	; 0x40
   81dc8:	4811      	ldr	r0, [pc, #68]	; (81e10 <tunerstudio_send_page+0x90>)
   81dca:	4b0d      	ldr	r3, [pc, #52]	; (81e00 <tunerstudio_send_page+0x80>)
   81dcc:	4798      	blx	r3
   81dce:	bd08      	pop	{r3, pc}
		case PAGE_CONFIG7:	tunerstudio_send_struct(&engine_config7, sizeof(engine_config7));	break;
   81dd0:	2140      	movs	r1, #64	; 0x40
   81dd2:	4810      	ldr	r0, [pc, #64]	; (81e14 <tunerstudio_send_page+0x94>)
   81dd4:	4b0a      	ldr	r3, [pc, #40]	; (81e00 <tunerstudio_send_page+0x80>)
   81dd6:	4798      	blx	r3
   81dd8:	bd08      	pop	{r3, pc}
		case PAGE_CONFIG8:	tunerstudio_send_struct(&engine_config8, sizeof(engine_config8));	break;
   81dda:	21a0      	movs	r1, #160	; 0xa0
   81ddc:	480e      	ldr	r0, [pc, #56]	; (81e18 <tunerstudio_send_page+0x98>)
   81dde:	4b08      	ldr	r3, [pc, #32]	; (81e00 <tunerstudio_send_page+0x80>)
   81de0:	4798      	blx	r3
   81de2:	bd08      	pop	{r3, pc}
		case PAGE_CONFIG9:	tunerstudio_send_struct(&engine_config9, sizeof(engine_config9));	break;
   81de4:	21c0      	movs	r1, #192	; 0xc0
   81de6:	480d      	ldr	r0, [pc, #52]	; (81e1c <tunerstudio_send_page+0x9c>)
   81de8:	4b05      	ldr	r3, [pc, #20]	; (81e00 <tunerstudio_send_page+0x80>)
   81dea:	4798      	blx	r3
   81dec:	bd08      	pop	{r3, pc}
   81dee:	bf00      	nop
   81df0:	20070a1c 	.word	0x20070a1c
   81df4:	20070eac 	.word	0x20070eac
   81df8:	00081d4d 	.word	0x00081d4d
   81dfc:	20070f7c 	.word	0x20070f7c
   81e00:	00081d25 	.word	0x00081d25
   81e04:	20071d18 	.word	0x20071d18
   81e08:	20070fc0 	.word	0x20070fc0
   81e0c:	20071cb4 	.word	0x20071cb4
   81e10:	200709dc 	.word	0x200709dc
   81e14:	20071cd4 	.word	0x20071cd4
   81e18:	20072138 	.word	0x20072138
   81e1c:	20070ebc 	.word	0x20070ebc

00081e20 <tunerstudio_write_Table3D>:
}

void tunerstudio_write_Table3D(struct Table3D *Current, uint8_t data)
{
	// table[line][column]
	if (!Offset2){ // Write data to table
   81e20:	4b0d      	ldr	r3, [pc, #52]	; (81e58 <tunerstudio_write_Table3D+0x38>)
   81e22:	781b      	ldrb	r3, [r3, #0]
   81e24:	b953      	cbnz	r3, 81e3c <tunerstudio_write_Table3D+0x1c>
		}
	}
}

void tunerstudio_write_Table3D(struct Table3D *Current, uint8_t data)
{
   81e26:	b410      	push	{r4}
	// table[line][column]
	if (!Offset2){ // Write data to table
		Current->Table[Offset1 >> 4][Offset1 & 0x0f] = data;
   81e28:	4b0c      	ldr	r3, [pc, #48]	; (81e5c <tunerstudio_write_Table3D+0x3c>)
   81e2a:	781b      	ldrb	r3, [r3, #0]
   81e2c:	091c      	lsrs	r4, r3, #4
   81e2e:	6802      	ldr	r2, [r0, #0]
   81e30:	f003 030f 	and.w	r3, r3, #15
   81e34:	f852 2024 	ldr.w	r2, [r2, r4, lsl #2]
   81e38:	54d1      	strb	r1, [r2, r3]
   81e3a:	e00b      	b.n	81e54 <tunerstudio_write_Table3D+0x34>
	}
	else 
	{
		if (Offset1 < THREE_D_TABLE_SIZE)
   81e3c:	4b07      	ldr	r3, [pc, #28]	; (81e5c <tunerstudio_write_Table3D+0x3c>)
   81e3e:	781b      	ldrb	r3, [r3, #0]
   81e40:	2b0f      	cmp	r3, #15
   81e42:	d802      	bhi.n	81e4a <tunerstudio_write_Table3D+0x2a>
		{
			Current->Xbin[Offset1] = data;
   81e44:	6842      	ldr	r2, [r0, #4]
   81e46:	54d1      	strb	r1, [r2, r3]
   81e48:	4770      	bx	lr
		}
		else
		{
			Current->Ybin[Offset1 - THREE_D_TABLE_SIZE] = data;
   81e4a:	6882      	ldr	r2, [r0, #8]
   81e4c:	4413      	add	r3, r2
   81e4e:	f803 1c10 	strb.w	r1, [r3, #-16]
		}
	}
}
   81e52:	4770      	bx	lr
   81e54:	bc10      	pop	{r4}
   81e56:	4770      	bx	lr
   81e58:	20071cc4 	.word	0x20071cc4
   81e5c:	20071cb2 	.word	0x20071cb2

00081e60 <tunerstudio_write_data>:
{
	uart_load_pdc_tx_buffer(ConfigStructPointer, ConfigLen);
}

void tunerstudio_write_data(uint16_t data)
{
   81e60:	b508      	push	{r3, lr}
	switch(CurrPage)
   81e62:	4b1c      	ldr	r3, [pc, #112]	; (81ed4 <tunerstudio_write_data+0x74>)
   81e64:	781b      	ldrb	r3, [r3, #0]
   81e66:	3b01      	subs	r3, #1
   81e68:	2b08      	cmp	r3, #8
   81e6a:	d832      	bhi.n	81ed2 <tunerstudio_write_data+0x72>
   81e6c:	e8df f003 	tbb	[pc, r3]
   81e70:	140f0a05 	.word	0x140f0a05
   81e74:	28231e19 	.word	0x28231e19
   81e78:	2d          	.byte	0x2d
   81e79:	00          	.byte	0x00
	{
		case PAGE_VE:		tunerstudio_write_Table3D(&VE, data);				break;
   81e7a:	b2c1      	uxtb	r1, r0
   81e7c:	4816      	ldr	r0, [pc, #88]	; (81ed8 <tunerstudio_write_data+0x78>)
   81e7e:	4b17      	ldr	r3, [pc, #92]	; (81edc <tunerstudio_write_data+0x7c>)
   81e80:	4798      	blx	r3
   81e82:	bd08      	pop	{r3, pc}
	}
}

void tunerstudio_write_struct(uint8_t *ConfigStructPointer, uint8_t data)
{
	*(ConfigStructPointer + Offset1) = data;
   81e84:	4b16      	ldr	r3, [pc, #88]	; (81ee0 <tunerstudio_write_data+0x80>)
   81e86:	781a      	ldrb	r2, [r3, #0]
   81e88:	4b16      	ldr	r3, [pc, #88]	; (81ee4 <tunerstudio_write_data+0x84>)
   81e8a:	54d0      	strb	r0, [r2, r3]
   81e8c:	bd08      	pop	{r3, pc}
{
	switch(CurrPage)
	{
		case PAGE_VE:		tunerstudio_write_Table3D(&VE, data);				break;
		case PAGE_CONFIG2:	tunerstudio_write_struct(&engine_config2, data);	break;
		case PAGE_IGN:		tunerstudio_write_Table3D(&IGN, data);				break;
   81e8e:	b2c1      	uxtb	r1, r0
   81e90:	4815      	ldr	r0, [pc, #84]	; (81ee8 <tunerstudio_write_data+0x88>)
   81e92:	4b12      	ldr	r3, [pc, #72]	; (81edc <tunerstudio_write_data+0x7c>)
   81e94:	4798      	blx	r3
   81e96:	bd08      	pop	{r3, pc}
	}
}

void tunerstudio_write_struct(uint8_t *ConfigStructPointer, uint8_t data)
{
	*(ConfigStructPointer + Offset1) = data;
   81e98:	4b11      	ldr	r3, [pc, #68]	; (81ee0 <tunerstudio_write_data+0x80>)
   81e9a:	781a      	ldrb	r2, [r3, #0]
   81e9c:	4b13      	ldr	r3, [pc, #76]	; (81eec <tunerstudio_write_data+0x8c>)
   81e9e:	54d0      	strb	r0, [r2, r3]
   81ea0:	bd08      	pop	{r3, pc}
	{
		case PAGE_VE:		tunerstudio_write_Table3D(&VE, data);				break;
		case PAGE_CONFIG2:	tunerstudio_write_struct(&engine_config2, data);	break;
		case PAGE_IGN:		tunerstudio_write_Table3D(&IGN, data);				break;
		case PAGE_CONFIG4:	tunerstudio_write_struct(&engine_config4, data);	break;
		case PAGE_AFR:		tunerstudio_write_Table3D(&AFR, data);				break;
   81ea2:	b2c1      	uxtb	r1, r0
   81ea4:	4812      	ldr	r0, [pc, #72]	; (81ef0 <tunerstudio_write_data+0x90>)
   81ea6:	4b0d      	ldr	r3, [pc, #52]	; (81edc <tunerstudio_write_data+0x7c>)
   81ea8:	4798      	blx	r3
   81eaa:	bd08      	pop	{r3, pc}
	}
}

void tunerstudio_write_struct(uint8_t *ConfigStructPointer, uint8_t data)
{
	*(ConfigStructPointer + Offset1) = data;
   81eac:	4b0c      	ldr	r3, [pc, #48]	; (81ee0 <tunerstudio_write_data+0x80>)
   81eae:	781a      	ldrb	r2, [r3, #0]
   81eb0:	4b10      	ldr	r3, [pc, #64]	; (81ef4 <tunerstudio_write_data+0x94>)
   81eb2:	54d0      	strb	r0, [r2, r3]
   81eb4:	bd08      	pop	{r3, pc}
   81eb6:	4b0a      	ldr	r3, [pc, #40]	; (81ee0 <tunerstudio_write_data+0x80>)
   81eb8:	781a      	ldrb	r2, [r3, #0]
   81eba:	4b0f      	ldr	r3, [pc, #60]	; (81ef8 <tunerstudio_write_data+0x98>)
   81ebc:	54d0      	strb	r0, [r2, r3]
   81ebe:	bd08      	pop	{r3, pc}
   81ec0:	4b07      	ldr	r3, [pc, #28]	; (81ee0 <tunerstudio_write_data+0x80>)
   81ec2:	781a      	ldrb	r2, [r3, #0]
   81ec4:	4b0d      	ldr	r3, [pc, #52]	; (81efc <tunerstudio_write_data+0x9c>)
   81ec6:	54d0      	strb	r0, [r2, r3]
   81ec8:	bd08      	pop	{r3, pc}
   81eca:	4b05      	ldr	r3, [pc, #20]	; (81ee0 <tunerstudio_write_data+0x80>)
   81ecc:	781a      	ldrb	r2, [r3, #0]
   81ece:	4b0c      	ldr	r3, [pc, #48]	; (81f00 <tunerstudio_write_data+0xa0>)
   81ed0:	54d0      	strb	r0, [r2, r3]
   81ed2:	bd08      	pop	{r3, pc}
   81ed4:	20070a1c 	.word	0x20070a1c
   81ed8:	20070eac 	.word	0x20070eac
   81edc:	00081e21 	.word	0x00081e21
   81ee0:	20071cb2 	.word	0x20071cb2
   81ee4:	20070f7c 	.word	0x20070f7c
   81ee8:	20071d18 	.word	0x20071d18
   81eec:	20070fc0 	.word	0x20070fc0
   81ef0:	20071cb4 	.word	0x20071cb4
   81ef4:	200709dc 	.word	0x200709dc
   81ef8:	20071cd4 	.word	0x20071cd4
   81efc:	20072138 	.word	0x20072138
   81f00:	20070ebc 	.word	0x20070ebc

00081f04 <tunerstudio_burn_value_if_changed>:
	EepromIndex += Current->Xsize;
	tunerstudio_burn_struct(Current->Ybin, Current->Ysize, EepromIndex);
}

void tunerstudio_burn_value_if_changed(uint32_t TempValue, uint16_t EepromIndex)
{
   81f04:	b538      	push	{r3, r4, r5, lr}
   81f06:	4605      	mov	r5, r0
   81f08:	460c      	mov	r4, r1
	if (eeprom_read_byte(EepromIndex) != TempValue){ // Compare current value with EEPROM value, update EEPROM if it is not the same
   81f0a:	4608      	mov	r0, r1
   81f0c:	4b04      	ldr	r3, [pc, #16]	; (81f20 <tunerstudio_burn_value_if_changed+0x1c>)
   81f0e:	4798      	blx	r3
   81f10:	42a8      	cmp	r0, r5
   81f12:	d003      	beq.n	81f1c <tunerstudio_burn_value_if_changed+0x18>
		at24cxx_write_byte(EepromIndex, TempValue);
   81f14:	b2e9      	uxtb	r1, r5
   81f16:	4620      	mov	r0, r4
   81f18:	4b02      	ldr	r3, [pc, #8]	; (81f24 <tunerstudio_burn_value_if_changed+0x20>)
   81f1a:	4798      	blx	r3
   81f1c:	bd38      	pop	{r3, r4, r5, pc}
   81f1e:	bf00      	nop
   81f20:	00080f69 	.word	0x00080f69
   81f24:	000801a5 	.word	0x000801a5

00081f28 <tunerstudio_burn_struct>:
	}
}

void tunerstudio_burn_struct(uint8_t *ConfigStructPointer, uint16_t ConfigLen, uint16_t EepromIndex)
{
   81f28:	b5f8      	push	{r3, r4, r5, r6, r7, lr}
	if (engine_realtime.TwiFault == TRUE) // check if communication with EEPROM is okay
   81f2a:	4b0c      	ldr	r3, [pc, #48]	; (81f5c <tunerstudio_burn_struct+0x34>)
   81f2c:	7fdb      	ldrb	r3, [r3, #31]
   81f2e:	b2db      	uxtb	r3, r3
   81f30:	2b01      	cmp	r3, #1
   81f32:	d001      	beq.n	81f38 <tunerstudio_burn_struct+0x10>
	{	
		uart_print_string("EEPROM Fault");
		return;
	}
	for (uint16_t i = 0; i < ConfigLen; i++)
   81f34:	b921      	cbnz	r1, 81f40 <tunerstudio_burn_struct+0x18>
   81f36:	bdf8      	pop	{r3, r4, r5, r6, r7, pc}

void tunerstudio_burn_struct(uint8_t *ConfigStructPointer, uint16_t ConfigLen, uint16_t EepromIndex)
{
	if (engine_realtime.TwiFault == TRUE) // check if communication with EEPROM is okay
	{	
		uart_print_string("EEPROM Fault");
   81f38:	4809      	ldr	r0, [pc, #36]	; (81f60 <tunerstudio_burn_struct+0x38>)
   81f3a:	4b0a      	ldr	r3, [pc, #40]	; (81f64 <tunerstudio_burn_struct+0x3c>)
   81f3c:	4798      	blx	r3
		return;
   81f3e:	bdf8      	pop	{r3, r4, r5, r6, r7, pc}
   81f40:	1e45      	subs	r5, r0, #1
   81f42:	4411      	add	r1, r2
   81f44:	b28e      	uxth	r6, r1
	}
	for (uint16_t i = 0; i < ConfigLen; i++)
   81f46:	4614      	mov	r4, r2
		tunerstudio_burn_value_if_changed(*((uint8_t *)ConfigStructPointer + i), EepromIndex + i);
   81f48:	4f07      	ldr	r7, [pc, #28]	; (81f68 <tunerstudio_burn_struct+0x40>)
   81f4a:	4621      	mov	r1, r4
   81f4c:	f815 0f01 	ldrb.w	r0, [r5, #1]!
   81f50:	47b8      	blx	r7
   81f52:	3401      	adds	r4, #1
   81f54:	b2a4      	uxth	r4, r4
	if (engine_realtime.TwiFault == TRUE) // check if communication with EEPROM is okay
	{	
		uart_print_string("EEPROM Fault");
		return;
	}
	for (uint16_t i = 0; i < ConfigLen; i++)
   81f56:	42b4      	cmp	r4, r6
   81f58:	d1f7      	bne.n	81f4a <tunerstudio_burn_struct+0x22>
   81f5a:	bdf8      	pop	{r3, r4, r5, r6, r7, pc}
   81f5c:	20071400 	.word	0x20071400
   81f60:	00083928 	.word	0x00083928
   81f64:	000824f9 	.word	0x000824f9
   81f68:	00081f05 	.word	0x00081f05

00081f6c <tunerstudio_burn_Table3D>:
		default: break;
	}
}

void tunerstudio_burn_Table3D(struct Table3D *Current, uint16_t EepromIndex)
{
   81f6c:	b5f8      	push	{r3, r4, r5, r6, r7, lr}
	if (engine_realtime.TwiFault == TRUE) // check if communication with EEPROM is okay
   81f6e:	4b15      	ldr	r3, [pc, #84]	; (81fc4 <tunerstudio_burn_Table3D+0x58>)
   81f70:	7fdb      	ldrb	r3, [r3, #31]
   81f72:	b2db      	uxtb	r3, r3
   81f74:	2b01      	cmp	r3, #1
   81f76:	d004      	beq.n	81f82 <tunerstudio_burn_Table3D+0x16>
   81f78:	4605      	mov	r5, r0
   81f7a:	460e      	mov	r6, r1
	{
		uart_print_string("EEPROM Fault");
		return;
	}
	for (uint8_t i = 0; i < Current->Ysize; i++)
   81f7c:	7b43      	ldrb	r3, [r0, #13]
   81f7e:	b923      	cbnz	r3, 81f8a <tunerstudio_burn_Table3D+0x1e>
   81f80:	e013      	b.n	81faa <tunerstudio_burn_Table3D+0x3e>

void tunerstudio_burn_Table3D(struct Table3D *Current, uint16_t EepromIndex)
{
	if (engine_realtime.TwiFault == TRUE) // check if communication with EEPROM is okay
	{
		uart_print_string("EEPROM Fault");
   81f82:	4811      	ldr	r0, [pc, #68]	; (81fc8 <tunerstudio_burn_Table3D+0x5c>)
   81f84:	4b11      	ldr	r3, [pc, #68]	; (81fcc <tunerstudio_burn_Table3D+0x60>)
   81f86:	4798      	blx	r3
		return;
   81f88:	bdf8      	pop	{r3, r4, r5, r6, r7, pc}
	}
	for (uint8_t i = 0; i < Current->Ysize; i++)
   81f8a:	2400      	movs	r4, #0
	{
		tunerstudio_burn_struct(Current->Table[i], Current->Xsize, EepromIndex);
   81f8c:	4f10      	ldr	r7, [pc, #64]	; (81fd0 <tunerstudio_burn_Table3D+0x64>)
   81f8e:	682b      	ldr	r3, [r5, #0]
   81f90:	4632      	mov	r2, r6
   81f92:	7b29      	ldrb	r1, [r5, #12]
   81f94:	f853 0024 	ldr.w	r0, [r3, r4, lsl #2]
   81f98:	47b8      	blx	r7
		EepromIndex += Current->Xsize;
   81f9a:	7b2a      	ldrb	r2, [r5, #12]
   81f9c:	4432      	add	r2, r6
   81f9e:	b296      	uxth	r6, r2
	if (engine_realtime.TwiFault == TRUE) // check if communication with EEPROM is okay
	{
		uart_print_string("EEPROM Fault");
		return;
	}
	for (uint8_t i = 0; i < Current->Ysize; i++)
   81fa0:	3401      	adds	r4, #1
   81fa2:	b2e4      	uxtb	r4, r4
   81fa4:	7b6b      	ldrb	r3, [r5, #13]
   81fa6:	42a3      	cmp	r3, r4
   81fa8:	d8f1      	bhi.n	81f8e <tunerstudio_burn_Table3D+0x22>
	{
		tunerstudio_burn_struct(Current->Table[i], Current->Xsize, EepromIndex);
		EepromIndex += Current->Xsize;
	}
	tunerstudio_burn_struct(Current->Xbin, Current->Xsize, EepromIndex);
   81faa:	4632      	mov	r2, r6
   81fac:	7b29      	ldrb	r1, [r5, #12]
   81fae:	6868      	ldr	r0, [r5, #4]
   81fb0:	4c07      	ldr	r4, [pc, #28]	; (81fd0 <tunerstudio_burn_Table3D+0x64>)
   81fb2:	47a0      	blx	r4
	EepromIndex += Current->Xsize;
	tunerstudio_burn_struct(Current->Ybin, Current->Ysize, EepromIndex);
   81fb4:	7b2a      	ldrb	r2, [r5, #12]
   81fb6:	4432      	add	r2, r6
   81fb8:	b292      	uxth	r2, r2
   81fba:	7b69      	ldrb	r1, [r5, #13]
   81fbc:	68a8      	ldr	r0, [r5, #8]
   81fbe:	47a0      	blx	r4
   81fc0:	bdf8      	pop	{r3, r4, r5, r6, r7, pc}
   81fc2:	bf00      	nop
   81fc4:	20071400 	.word	0x20071400
   81fc8:	00083928 	.word	0x00083928
   81fcc:	000824f9 	.word	0x000824f9
   81fd0:	00081f29 	.word	0x00081f29

00081fd4 <tunerstudio_burn_page_eeprom>:
{
	*(ConfigStructPointer + Offset1) = data;
}

void tunerstudio_burn_page_eeprom(void)
{
   81fd4:	b508      	push	{r3, lr}
	switch(CurrPage)
   81fd6:	4b23      	ldr	r3, [pc, #140]	; (82064 <tunerstudio_burn_page_eeprom+0x90>)
   81fd8:	781b      	ldrb	r3, [r3, #0]
   81fda:	3b01      	subs	r3, #1
   81fdc:	2b08      	cmp	r3, #8
   81fde:	d840      	bhi.n	82062 <tunerstudio_burn_page_eeprom+0x8e>
   81fe0:	e8df f003 	tbb	[pc, r3]
   81fe4:	17110a05 	.word	0x17110a05
   81fe8:	322b241e 	.word	0x322b241e
   81fec:	39          	.byte	0x39
   81fed:	00          	.byte	0x00
	{
		case 1: tunerstudio_burn_Table3D(&VE, EEPROM_VE_INDEX);											break;
   81fee:	2100      	movs	r1, #0
   81ff0:	481d      	ldr	r0, [pc, #116]	; (82068 <tunerstudio_burn_page_eeprom+0x94>)
   81ff2:	4b1e      	ldr	r3, [pc, #120]	; (8206c <tunerstudio_burn_page_eeprom+0x98>)
   81ff4:	4798      	blx	r3
   81ff6:	bd08      	pop	{r3, pc}
		case 2: tunerstudio_burn_struct(&engine_config2, sizeof(engine_config2), EEPROM_CONFIG2_INDEX);	break;
   81ff8:	f241 3288 	movw	r2, #5000	; 0x1388
   81ffc:	2142      	movs	r1, #66	; 0x42
   81ffe:	481c      	ldr	r0, [pc, #112]	; (82070 <tunerstudio_burn_page_eeprom+0x9c>)
   82000:	4b1c      	ldr	r3, [pc, #112]	; (82074 <tunerstudio_burn_page_eeprom+0xa0>)
   82002:	4798      	blx	r3
   82004:	bd08      	pop	{r3, pc}
		case 3: tunerstudio_burn_Table3D(&IGN, EEPROM_IGN_INDEX);										break;
   82006:	f44f 7110 	mov.w	r1, #576	; 0x240
   8200a:	481b      	ldr	r0, [pc, #108]	; (82078 <tunerstudio_burn_page_eeprom+0xa4>)
   8200c:	4b17      	ldr	r3, [pc, #92]	; (8206c <tunerstudio_burn_page_eeprom+0x98>)
   8200e:	4798      	blx	r3
   82010:	bd08      	pop	{r3, pc}
		case 4: tunerstudio_burn_struct(&engine_config4, sizeof(engine_config4), EEPROM_CONFIG4_INDEX);	break;
   82012:	f241 4250 	movw	r2, #5200	; 0x1450
   82016:	2140      	movs	r1, #64	; 0x40
   82018:	4818      	ldr	r0, [pc, #96]	; (8207c <tunerstudio_burn_page_eeprom+0xa8>)
   8201a:	4b16      	ldr	r3, [pc, #88]	; (82074 <tunerstudio_burn_page_eeprom+0xa0>)
   8201c:	4798      	blx	r3
   8201e:	bd08      	pop	{r3, pc}
		case 5: tunerstudio_burn_Table3D(&AFR, EEPROM_AFR_INDEX);										break;
   82020:	f44f 7190 	mov.w	r1, #288	; 0x120
   82024:	4816      	ldr	r0, [pc, #88]	; (82080 <tunerstudio_burn_page_eeprom+0xac>)
   82026:	4b11      	ldr	r3, [pc, #68]	; (8206c <tunerstudio_burn_page_eeprom+0x98>)
   82028:	4798      	blx	r3
   8202a:	bd08      	pop	{r3, pc}
		case 6: tunerstudio_burn_struct(&engine_config6, sizeof(engine_config6), EEPROM_CONFIG6_INDEX);	break;
   8202c:	f241 5218 	movw	r2, #5400	; 0x1518
   82030:	2140      	movs	r1, #64	; 0x40
   82032:	4814      	ldr	r0, [pc, #80]	; (82084 <tunerstudio_burn_page_eeprom+0xb0>)
   82034:	4b0f      	ldr	r3, [pc, #60]	; (82074 <tunerstudio_burn_page_eeprom+0xa0>)
   82036:	4798      	blx	r3
   82038:	bd08      	pop	{r3, pc}
		case 7: tunerstudio_burn_struct(&engine_config7, sizeof(engine_config7), EEPROM_CONFIG7_INDEX);	break;
   8203a:	f44f 52af 	mov.w	r2, #5600	; 0x15e0
   8203e:	2140      	movs	r1, #64	; 0x40
   82040:	4811      	ldr	r0, [pc, #68]	; (82088 <tunerstudio_burn_page_eeprom+0xb4>)
   82042:	4b0c      	ldr	r3, [pc, #48]	; (82074 <tunerstudio_burn_page_eeprom+0xa0>)
   82044:	4798      	blx	r3
   82046:	bd08      	pop	{r3, pc}
		case 8: tunerstudio_burn_struct(&engine_config8, sizeof(engine_config8), EEPROM_CONFIG8_INDEX);	break;
   82048:	f241 62a8 	movw	r2, #5800	; 0x16a8
   8204c:	21a0      	movs	r1, #160	; 0xa0
   8204e:	480f      	ldr	r0, [pc, #60]	; (8208c <tunerstudio_burn_page_eeprom+0xb8>)
   82050:	4b08      	ldr	r3, [pc, #32]	; (82074 <tunerstudio_burn_page_eeprom+0xa0>)
   82052:	4798      	blx	r3
   82054:	bd08      	pop	{r3, pc}
		case 9: tunerstudio_burn_struct(&engine_config9, sizeof(engine_config9), EEPROM_CONFIG9_INDEX);	break;
   82056:	f241 7270 	movw	r2, #6000	; 0x1770
   8205a:	21c0      	movs	r1, #192	; 0xc0
   8205c:	480c      	ldr	r0, [pc, #48]	; (82090 <tunerstudio_burn_page_eeprom+0xbc>)
   8205e:	4b05      	ldr	r3, [pc, #20]	; (82074 <tunerstudio_burn_page_eeprom+0xa0>)
   82060:	4798      	blx	r3
   82062:	bd08      	pop	{r3, pc}
   82064:	20070a1c 	.word	0x20070a1c
   82068:	20070eac 	.word	0x20070eac
   8206c:	00081f6d 	.word	0x00081f6d
   82070:	20070f7c 	.word	0x20070f7c
   82074:	00081f29 	.word	0x00081f29
   82078:	20071d18 	.word	0x20071d18
   8207c:	20070fc0 	.word	0x20070fc0
   82080:	20071cb4 	.word	0x20071cb4
   82084:	200709dc 	.word	0x200709dc
   82088:	20071cd4 	.word	0x20071cd4
   8208c:	20072138 	.word	0x20072138
   82090:	20070ebc 	.word	0x20070ebc

00082094 <tunerstudio_update_calib_vect_helper>:
			default: break;
		}
	}
}
void tunerstudio_update_calib_vect_helper(uint8_t NrOfBytes, uint16_t EepromIndex)
{
   82094:	e92d 4ff8 	stmdb	sp!, {r3, r4, r5, r6, r7, r8, r9, sl, fp, lr}
   82098:	4680      	mov	r8, r0
   8209a:	460d      	mov	r5, r1
   8209c:	f501 6780 	add.w	r7, r1, #1024	; 0x400
   820a0:	b2bf      	uxth	r7, r7
	uint8_t receive[2];			// Receiving buffer
	receive[0] = receive[1] = 0;
	int16_t TempValue = 0;		// Integer, the value can be negative
	for (uint16_t i = 0; i < LUT_SIZE; i++)
	{
		receive[0] = uart_receive();
   820a2:	4e18      	ldr	r6, [pc, #96]	; (82104 <tunerstudio_update_calib_vect_helper+0x70>)
			TempValue = receive[0];		// AFR
		}
		else {
			receive[1] = uart_receive();
			TempValue = (int)((receive[1] << 8) | (receive[0]));// Put together the temperature value
			TempValue = ((TempValue - 320)  * 5) / 9;			// Change to celsius from fahrenheit
   820a4:	f8df a064 	ldr.w	sl, [pc, #100]	; 8210c <tunerstudio_update_calib_vect_helper+0x78>
			TempValue /= 10;									// Tunerstudio sends the value scaled up by 10
			TempValue += TEMPERATURE_OFFSET;					// Offset to discard the need of negative integer
   820a8:	f8df 9064 	ldr.w	r9, [pc, #100]	; 82110 <tunerstudio_update_calib_vect_helper+0x7c>
   820ac:	e000      	b.n	820b0 <tunerstudio_update_calib_vect_helper+0x1c>
			TempValue = 255;
		} 
		else if (TempValue < 0){ // For safety
			TempValue = 0;
		}
		at24cxx_write_byte(EepromIndex++, TempValue);
   820ae:	465d      	mov	r5, fp
	uint8_t receive[2];			// Receiving buffer
	receive[0] = receive[1] = 0;
	int16_t TempValue = 0;		// Integer, the value can be negative
	for (uint16_t i = 0; i < LUT_SIZE; i++)
	{
		receive[0] = uart_receive();
   820b0:	47b0      	blx	r6
   820b2:	4604      	mov	r4, r0
		if (NrOfBytes == 1) {		
   820b4:	f1b8 0f01 	cmp.w	r8, #1
   820b8:	d101      	bne.n	820be <tunerstudio_update_calib_vect_helper+0x2a>
			TempValue = receive[0];		// AFR
   820ba:	b201      	sxth	r1, r0
   820bc:	e014      	b.n	820e8 <tunerstudio_update_calib_vect_helper+0x54>
		}
		else {
			receive[1] = uart_receive();
   820be:	47b0      	blx	r6
			TempValue = (int)((receive[1] << 8) | (receive[0]));// Put together the temperature value
			TempValue = ((TempValue - 320)  * 5) / 9;			// Change to celsius from fahrenheit
   820c0:	ea44 2000 	orr.w	r0, r4, r0, lsl #8
   820c4:	b200      	sxth	r0, r0
   820c6:	f5a0 70a0 	sub.w	r0, r0, #320	; 0x140
   820ca:	eb00 0080 	add.w	r0, r0, r0, lsl #2
   820ce:	fb8a 2300 	smull	r2, r3, sl, r0
   820d2:	17c0      	asrs	r0, r0, #31
   820d4:	ebc0 0363 	rsb	r3, r0, r3, asr #1
   820d8:	b21b      	sxth	r3, r3
			TempValue /= 10;									// Tunerstudio sends the value scaled up by 10
			TempValue += TEMPERATURE_OFFSET;					// Offset to discard the need of negative integer
   820da:	fb89 2103 	smull	r2, r1, r9, r3
   820de:	17db      	asrs	r3, r3, #31
   820e0:	ebc3 01a1 	rsb	r1, r3, r1, asr #2
   820e4:	3128      	adds	r1, #40	; 0x28
   820e6:	b209      	sxth	r1, r1
			TempValue = 255;
		} 
		else if (TempValue < 0){ // For safety
			TempValue = 0;
		}
		at24cxx_write_byte(EepromIndex++, TempValue);
   820e8:	f105 0b01 	add.w	fp, r5, #1
   820ec:	fa1f fb8b 	uxth.w	fp, fp
   820f0:	f381 0108 	usat	r1, #8, r1
   820f4:	b2c9      	uxtb	r1, r1
   820f6:	4628      	mov	r0, r5
   820f8:	4b03      	ldr	r3, [pc, #12]	; (82108 <tunerstudio_update_calib_vect_helper+0x74>)
   820fa:	4798      	blx	r3
void tunerstudio_update_calib_vect_helper(uint8_t NrOfBytes, uint16_t EepromIndex)
{
	uint8_t receive[2];			// Receiving buffer
	receive[0] = receive[1] = 0;
	int16_t TempValue = 0;		// Integer, the value can be negative
	for (uint16_t i = 0; i < LUT_SIZE; i++)
   820fc:	455f      	cmp	r7, fp
   820fe:	d1d6      	bne.n	820ae <tunerstudio_update_calib_vect_helper+0x1a>
		else if (TempValue < 0){ // For safety
			TempValue = 0;
		}
		at24cxx_write_byte(EepromIndex++, TempValue);
	}
}
   82100:	e8bd 8ff8 	ldmia.w	sp!, {r3, r4, r5, r6, r7, r8, r9, sl, fp, pc}
   82104:	000825c5 	.word	0x000825c5
   82108:	000801a5 	.word	0x000801a5
   8210c:	38e38e39 	.word	0x38e38e39
   82110:	66666667 	.word	0x66666667

00082114 <tunerstudio_update_calib_vect>:
	for (uint16_t i = 0; i < ConfigLen; i++)
		tunerstudio_burn_value_if_changed(*((uint8_t *)ConfigStructPointer + i), EepromIndex + i);
}

void tunerstudio_update_calib_vect(void)
{
   82114:	b508      	push	{r3, lr}
	// Check if the interrupt buffer consists of data
	if (RxStringTail != RxStringHead)
   82116:	4b15      	ldr	r3, [pc, #84]	; (8216c <tunerstudio_update_calib_vect+0x58>)
   82118:	881a      	ldrh	r2, [r3, #0]
   8211a:	b292      	uxth	r2, r2
   8211c:	4b14      	ldr	r3, [pc, #80]	; (82170 <tunerstudio_update_calib_vect+0x5c>)
   8211e:	881b      	ldrh	r3, [r3, #0]
   82120:	b29b      	uxth	r3, r3
   82122:	429a      	cmp	r2, r3
   82124:	d008      	beq.n	82138 <tunerstudio_update_calib_vect+0x24>
	{
		// TODO: Read the buffer and then continue, possibly not necessary
		uart_print_string("ERROR calibration vector");
   82126:	4813      	ldr	r0, [pc, #76]	; (82174 <tunerstudio_update_calib_vect+0x60>)
   82128:	4b13      	ldr	r3, [pc, #76]	; (82178 <tunerstudio_update_calib_vect+0x64>)
   8212a:	4798      	blx	r3
		RxStringTail = RxStringHead = 0;
   8212c:	2300      	movs	r3, #0
   8212e:	4a10      	ldr	r2, [pc, #64]	; (82170 <tunerstudio_update_calib_vect+0x5c>)
   82130:	8013      	strh	r3, [r2, #0]
   82132:	4a0e      	ldr	r2, [pc, #56]	; (8216c <tunerstudio_update_calib_vect+0x58>)
   82134:	8013      	strh	r3, [r2, #0]
   82136:	bd08      	pop	{r3, pc}
	}
	else
	{
		uint8_t receive = uart_receive();
   82138:	4b10      	ldr	r3, [pc, #64]	; (8217c <tunerstudio_update_calib_vect+0x68>)
   8213a:	4798      	blx	r3
		switch (receive)
   8213c:	2801      	cmp	r0, #1
   8213e:	d009      	beq.n	82154 <tunerstudio_update_calib_vect+0x40>
   82140:	b110      	cbz	r0, 82148 <tunerstudio_update_calib_vect+0x34>
   82142:	2802      	cmp	r0, #2
   82144:	d00c      	beq.n	82160 <tunerstudio_update_calib_vect+0x4c>
   82146:	bd08      	pop	{r3, pc}
		{
			case CONFIG_CLT: tunerstudio_update_calib_vect_helper(2, EEPROM_CLT_ADC_INDEX); break;
   82148:	f44f 7158 	mov.w	r1, #864	; 0x360
   8214c:	2002      	movs	r0, #2
   8214e:	4b0c      	ldr	r3, [pc, #48]	; (82180 <tunerstudio_update_calib_vect+0x6c>)
   82150:	4798      	blx	r3
   82152:	bd08      	pop	{r3, pc}
			case CONFIG_IAT: tunerstudio_update_calib_vect_helper(2, EEPROM_IAT_ADC_INDEX); break;
   82154:	f44f 61ec 	mov.w	r1, #1888	; 0x760
   82158:	2002      	movs	r0, #2
   8215a:	4b09      	ldr	r3, [pc, #36]	; (82180 <tunerstudio_update_calib_vect+0x6c>)
   8215c:	4798      	blx	r3
   8215e:	bd08      	pop	{r3, pc}
			case CONFIG_AFR: tunerstudio_update_calib_vect_helper(1, EEPROM_AFR_ADC_INDEX); break;
   82160:	f44f 6136 	mov.w	r1, #2912	; 0xb60
   82164:	2001      	movs	r0, #1
   82166:	4b06      	ldr	r3, [pc, #24]	; (82180 <tunerstudio_update_calib_vect+0x6c>)
   82168:	4798      	blx	r3
   8216a:	bd08      	pop	{r3, pc}
   8216c:	20071432 	.word	0x20071432
   82170:	20071834 	.word	0x20071834
   82174:	00083938 	.word	0x00083938
   82178:	000824f9 	.word	0x000824f9
   8217c:	000825c5 	.word	0x000825c5
   82180:	00082095 	.word	0x00082095

00082184 <tunerstudio_debug_global_function>:
// 	uart_print_string("TWIFault: "); uart_print_int(engine_realtime.TwiFault); uart_new_line();
// 	uart_print_string("Fuel Const: "); uart_print_int(FUEL_CONST); uart_new_line();
// 	uart_print_string("AfterStartEnrichPct: "); uart_print_int(engine_config2.AfterStartEnrichPct); uart_new_line();
// 	uart_print_string("AfterStartEnrichCycles: "); uart_print_int(engine_config2.AfterStartEnrichSec); uart_new_line();
// 	uart_print_string("millis: "); uart_print_int(millis); uart_new_line();
	isDebug ^= 1;
   82184:	4a02      	ldr	r2, [pc, #8]	; (82190 <tunerstudio_debug_global_function+0xc>)
   82186:	6813      	ldr	r3, [r2, #0]
   82188:	f083 0301 	eor.w	r3, r3, #1
   8218c:	6013      	str	r3, [r2, #0]
   8218e:	4770      	bx	lr
   82190:	20071cd0 	.word	0x20071cd0

00082194 <tunerstudio_command>:
	OffsetFlag = FALSE;
}

// Function to decide what to do when an character is received by UART
void tunerstudio_command(uint8_t character)
{
   82194:	b508      	push	{r3, lr}
	// If 'P' came last time next character should contain the page number
	if (NewPageFlag)
   82196:	4b43      	ldr	r3, [pc, #268]	; (822a4 <tunerstudio_command+0x110>)
   82198:	781b      	ldrb	r3, [r3, #0]
   8219a:	b12b      	cbz	r3, 821a8 <tunerstudio_command+0x14>
	{
		CurrPage = character; //- '0';	// Withdraw the character value 0 (48 decimal in ASCII)
   8219c:	4b42      	ldr	r3, [pc, #264]	; (822a8 <tunerstudio_command+0x114>)
   8219e:	7018      	strb	r0, [r3, #0]
		NewPageFlag = FALSE;			// Reset the newpageflag
   821a0:	2200      	movs	r2, #0
   821a2:	4b40      	ldr	r3, [pc, #256]	; (822a4 <tunerstudio_command+0x110>)
   821a4:	701a      	strb	r2, [r3, #0]
		return;							// Nothing else to do in this function
   821a6:	bd08      	pop	{r3, pc}
	// If 'W' came last time next character should contain the offset
	/************************************************************************/
	/* Write command
	P (page number) W (line, column (per nibble)) 0 (Data) */
	/************************************************************************/
	if (WriteFlag)
   821a8:	4b40      	ldr	r3, [pc, #256]	; (822ac <tunerstudio_command+0x118>)
   821aa:	781b      	ldrb	r3, [r3, #0]
   821ac:	b323      	cbz	r3, 821f8 <tunerstudio_command+0x64>
	{
		if (OffsetFlag == 0){		// Receive first offset value
   821ae:	4b40      	ldr	r3, [pc, #256]	; (822b0 <tunerstudio_command+0x11c>)
   821b0:	781b      	ldrb	r3, [r3, #0]
   821b2:	b92b      	cbnz	r3, 821c0 <tunerstudio_command+0x2c>
			Offset1 = character;
   821b4:	4b3f      	ldr	r3, [pc, #252]	; (822b4 <tunerstudio_command+0x120>)
   821b6:	7018      	strb	r0, [r3, #0]
			OffsetFlag = 1;
   821b8:	2201      	movs	r2, #1
   821ba:	4b3d      	ldr	r3, [pc, #244]	; (822b0 <tunerstudio_command+0x11c>)
   821bc:	701a      	strb	r2, [r3, #0]
			return;
   821be:	bd08      	pop	{r3, pc}
		}
		else if ((CurrPage == PAGE_VE || CurrPage == PAGE_AFR || CurrPage == PAGE_IGN) && OffsetFlag != 2)
   821c0:	4a39      	ldr	r2, [pc, #228]	; (822a8 <tunerstudio_command+0x114>)
   821c2:	7812      	ldrb	r2, [r2, #0]
   821c4:	f002 01fd 	and.w	r1, r2, #253	; 0xfd
   821c8:	2901      	cmp	r1, #1
   821ca:	d001      	beq.n	821d0 <tunerstudio_command+0x3c>
   821cc:	2a05      	cmp	r2, #5
   821ce:	d107      	bne.n	821e0 <tunerstudio_command+0x4c>
   821d0:	2b02      	cmp	r3, #2
   821d2:	d005      	beq.n	821e0 <tunerstudio_command+0x4c>
		{	// Receive second offset value IF the current page is a table (VE, AFR, IGN) (Since the tables have more than 256 values see .ini file)
			Offset2 = character;
   821d4:	4b38      	ldr	r3, [pc, #224]	; (822b8 <tunerstudio_command+0x124>)
   821d6:	7018      	strb	r0, [r3, #0]
			OffsetFlag = 2;
   821d8:	2202      	movs	r2, #2
   821da:	4b35      	ldr	r3, [pc, #212]	; (822b0 <tunerstudio_command+0x11c>)
   821dc:	701a      	strb	r2, [r3, #0]
			return;
   821de:	bd08      	pop	{r3, pc}
		}
		else if (OffsetFlag){	// Receive data to write
			tunerstudio_write_data(character);
   821e0:	4b36      	ldr	r3, [pc, #216]	; (822bc <tunerstudio_command+0x128>)
   821e2:	4798      	blx	r3
			Offset1 = Offset2 = OffsetFlag = WriteFlag = 0;
   821e4:	2300      	movs	r3, #0
   821e6:	4a31      	ldr	r2, [pc, #196]	; (822ac <tunerstudio_command+0x118>)
   821e8:	7013      	strb	r3, [r2, #0]
   821ea:	4a31      	ldr	r2, [pc, #196]	; (822b0 <tunerstudio_command+0x11c>)
   821ec:	7013      	strb	r3, [r2, #0]
   821ee:	4a32      	ldr	r2, [pc, #200]	; (822b8 <tunerstudio_command+0x124>)
   821f0:	7013      	strb	r3, [r2, #0]
   821f2:	4a30      	ldr	r2, [pc, #192]	; (822b4 <tunerstudio_command+0x120>)
   821f4:	7013      	strb	r3, [r2, #0]
			return;
   821f6:	bd08      	pop	{r3, pc}
		}
	}
	
	switch (character)
   821f8:	3841      	subs	r0, #65	; 0x41
   821fa:	2833      	cmp	r0, #51	; 0x33
   821fc:	d850      	bhi.n	822a0 <tunerstudio_command+0x10c>
   821fe:	e8df f000 	tbb	[pc, r0]
   82202:	281a      	.short	0x281a
   82204:	2f4f4d2b 	.word	0x2f4f4d2b
   82208:	4f4f4f4f 	.word	0x4f4f4f4f
   8220c:	4f4f4f4f 	.word	0x4f4f4f4f
   82210:	4f3b334f 	.word	0x4f3b334f
   82214:	3f4f4f37 	.word	0x3f4f4f37
   82218:	4f4f4f42 	.word	0x4f4f4f42
   8221c:	4f4f4f4f 	.word	0x4f4f4f4f
   82220:	4f4f4f4f 	.word	0x4f4f4f4f
   82224:	4f4f4f4f 	.word	0x4f4f4f4f
   82228:	4f4f4f4f 	.word	0x4f4f4f4f
   8222c:	4f4f4f4f 	.word	0x4f4f4f4f
   82230:	4f4f4f4f 	.word	0x4f4f4f4f
   82234:	464f      	.short	0x464f
	{
		case 'A': 
		{
			engine_realtime.Seconds = millis / MILLI_SEC;
   82236:	4b22      	ldr	r3, [pc, #136]	; (822c0 <tunerstudio_command+0x12c>)
   82238:	681b      	ldr	r3, [r3, #0]
   8223a:	4a22      	ldr	r2, [pc, #136]	; (822c4 <tunerstudio_command+0x130>)
   8223c:	fba2 2303 	umull	r2, r3, r2, r3
   82240:	f3c3 1387 	ubfx	r3, r3, #6, #8
   82244:	4820      	ldr	r0, [pc, #128]	; (822c8 <tunerstudio_command+0x134>)
   82246:	f880 3021 	strb.w	r3, [r0, #33]	; 0x21
	uart_enable_tx_interrupt();
}

void tunerstudio_send_struct_pdc(uint8_t *ConfigStructPointer, uint16_t ConfigLen)
{
	uart_load_pdc_tx_buffer(ConfigStructPointer, ConfigLen);
   8224a:	2122      	movs	r1, #34	; 0x22
   8224c:	4b1f      	ldr	r3, [pc, #124]	; (822cc <tunerstudio_command+0x138>)
   8224e:	4798      	blx	r3
   82250:	bd08      	pop	{r3, pc}
			engine_realtime.Seconds = millis / MILLI_SEC;
			tunerstudio_send_struct_pdc(&engine_realtime, sizeof(engine_realtime));	
			//tunerstudio_send_struct(&engine_realtime, sizeof(engine_realtime));	
			break;
		}
		case 'B': tunerstudio_burn_page_eeprom();										break;
   82252:	4b1f      	ldr	r3, [pc, #124]	; (822d0 <tunerstudio_command+0x13c>)
   82254:	4798      	blx	r3
   82256:	bd08      	pop	{r3, pc}
		case 'C': uart_interrupt_transfer(1);											break;
   82258:	2001      	movs	r0, #1
   8225a:	4b1e      	ldr	r3, [pc, #120]	; (822d4 <tunerstudio_command+0x140>)
   8225c:	4798      	blx	r3
   8225e:	bd08      	pop	{r3, pc}
		case 'F': uart_interrupt_transfer("001");										break;
   82260:	481d      	ldr	r0, [pc, #116]	; (822d8 <tunerstudio_command+0x144>)
   82262:	4b1c      	ldr	r3, [pc, #112]	; (822d4 <tunerstudio_command+0x140>)
   82264:	4798      	blx	r3
   82266:	bd08      	pop	{r3, pc}
		case 'L':																		break;
		case 'N':																		break;
		case 'P': NewPageFlag = TRUE;													break;
   82268:	2201      	movs	r2, #1
   8226a:	4b0e      	ldr	r3, [pc, #56]	; (822a4 <tunerstudio_command+0x110>)
   8226c:	701a      	strb	r2, [r3, #0]
   8226e:	bd08      	pop	{r3, pc}
		case 'R':																		break;
		case 'S': uart_interrupt_transfer("RUthless V1.0 Formula Student 2017");		break;
   82270:	481a      	ldr	r0, [pc, #104]	; (822dc <tunerstudio_command+0x148>)
   82272:	4b18      	ldr	r3, [pc, #96]	; (822d4 <tunerstudio_command+0x140>)
   82274:	4798      	blx	r3
   82276:	bd08      	pop	{r3, pc}
		case 'Q': uart_interrupt_transfer("speeduino");									break;
   82278:	4819      	ldr	r0, [pc, #100]	; (822e0 <tunerstudio_command+0x14c>)
   8227a:	4b16      	ldr	r3, [pc, #88]	; (822d4 <tunerstudio_command+0x140>)
   8227c:	4798      	blx	r3
   8227e:	bd08      	pop	{r3, pc}
		case 'V': tunerstudio_send_page(); 												break;
   82280:	4b18      	ldr	r3, [pc, #96]	; (822e4 <tunerstudio_command+0x150>)
   82282:	4798      	blx	r3
   82284:	bd08      	pop	{r3, pc}
		case 'W': WriteFlag = TRUE;														break;
   82286:	2201      	movs	r2, #1
   82288:	4b08      	ldr	r3, [pc, #32]	; (822ac <tunerstudio_command+0x118>)
   8228a:	701a      	strb	r2, [r3, #0]
   8228c:	bd08      	pop	{r3, pc}
		case 'T':																		break;
		case 'r':																		break;
		case 't':
			uart_disable_rx_interrupt();			// Read manually from buffer simplifies this since it is not necessary to do this in realtime
   8228e:	4b16      	ldr	r3, [pc, #88]	; (822e8 <tunerstudio_command+0x154>)
   82290:	4798      	blx	r3
			tunerstudio_update_calib_vect();
   82292:	4b16      	ldr	r3, [pc, #88]	; (822ec <tunerstudio_command+0x158>)
   82294:	4798      	blx	r3
			uart_enable_rx_interrupt();
   82296:	4b16      	ldr	r3, [pc, #88]	; (822f0 <tunerstudio_command+0x15c>)
   82298:	4798      	blx	r3
			break;
   8229a:	bd08      	pop	{r3, pc}
		case '?': break;
		case 'D': tunerstudio_debug_global_function(); break;
   8229c:	4b15      	ldr	r3, [pc, #84]	; (822f4 <tunerstudio_command+0x160>)
   8229e:	4798      	blx	r3
   822a0:	bd08      	pop	{r3, pc}
   822a2:	bf00      	nop
   822a4:	200721e9 	.word	0x200721e9
   822a8:	20070a1c 	.word	0x20070a1c
   822ac:	200709d2 	.word	0x200709d2
   822b0:	20071cb1 	.word	0x20071cb1
   822b4:	20071cb2 	.word	0x20071cb2
   822b8:	20071cc4 	.word	0x20071cc4
   822bc:	00081e61 	.word	0x00081e61
   822c0:	200721ec 	.word	0x200721ec
   822c4:	10624dd3 	.word	0x10624dd3
   822c8:	20071400 	.word	0x20071400
   822cc:	000825dd 	.word	0x000825dd
   822d0:	00081fd5 	.word	0x00081fd5
   822d4:	00082385 	.word	0x00082385
   822d8:	00083954 	.word	0x00083954
   822dc:	00083958 	.word	0x00083958
   822e0:	0008397c 	.word	0x0008397c
   822e4:	00081d81 	.word	0x00081d81
   822e8:	00082425 	.word	0x00082425
   822ec:	00082115 	.word	0x00082115
   822f0:	00082409 	.word	0x00082409
   822f4:	00082185 	.word	0x00082185

000822f8 <uart_init>:

// viljum 2 bit stop bits 8 bit data, asynchronous mode, parity mode off,
void uart_init(void)
{
	/* Configure peripheral clock UART. */
	PMC->PMC_PCER0 = (1 << ID_UART);
   822f8:	f44f 7280 	mov.w	r2, #256	; 0x100
   822fc:	4b08      	ldr	r3, [pc, #32]	; (82320 <uart_init+0x28>)
   822fe:	611a      	str	r2, [r3, #16]
	/* Enable receiver and transmitter */
	UART->UART_CR = UART_CR_RXEN | UART_CR_TXEN;
   82300:	f503 7300 	add.w	r3, r3, #512	; 0x200
   82304:	2250      	movs	r2, #80	; 0x50
   82306:	601a      	str	r2, [r3, #0]
	/* Turn parity mode off */
	UART->UART_MR = UART_MR_PAR_NO;	
   82308:	f44f 6200 	mov.w	r2, #2048	; 0x800
   8230c:	605a      	str	r2, [r3, #4]
	/* Baud rate generator register */
	UART->UART_BRGR = CLOCKDIVISION;
   8230e:	222d      	movs	r2, #45	; 0x2d
   82310:	621a      	str	r2, [r3, #32]
	/* Reset interrupt enable register */
	UART->UART_IDR = 0xFFFF;
   82312:	f64f 72ff 	movw	r2, #65535	; 0xffff
   82316:	60da      	str	r2, [r3, #12]
	// Initialize PDC
	PdcInterface = PDC_UART;
   82318:	4a02      	ldr	r2, [pc, #8]	; (82324 <uart_init+0x2c>)
   8231a:	4b03      	ldr	r3, [pc, #12]	; (82328 <uart_init+0x30>)
   8231c:	601a      	str	r2, [r3, #0]
   8231e:	4770      	bx	lr
   82320:	400e0600 	.word	0x400e0600
   82324:	400e0900 	.word	0x400e0900
   82328:	2007142c 	.word	0x2007142c

0008232c <uart_tx_interrupt_init>:
}

// Transmission interrupt enable to minimize calculation downtime
void uart_tx_interrupt_init(void)
{
   8232c:	b508      	push	{r3, lr}
	//UART->UART_IER = UART_IER_TXRDY;
	
	interrupts_enable_interrupt_vector(UART_IRQn, UART_PRIORITY);
   8232e:	210c      	movs	r1, #12
   82330:	2008      	movs	r0, #8
   82332:	4b0c      	ldr	r3, [pc, #48]	; (82364 <uart_tx_interrupt_init+0x38>)
   82334:	4798      	blx	r3
   82336:	2300      	movs	r3, #0
	
	// Initialize Transmit buffer character array
	for (uint16_t i = 0; i < TXBUFFERSIZE; i++)
	{
		TxString[i] = NULL;
   82338:	480b      	ldr	r0, [pc, #44]	; (82368 <uart_tx_interrupt_init+0x3c>)
   8233a:	461a      	mov	r2, r3
		RxString[i] = NULL;
   8233c:	490b      	ldr	r1, [pc, #44]	; (8236c <uart_tx_interrupt_init+0x40>)
	interrupts_enable_interrupt_vector(UART_IRQn, UART_PRIORITY);
	
	// Initialize Transmit buffer character array
	for (uint16_t i = 0; i < TXBUFFERSIZE; i++)
	{
		TxString[i] = NULL;
   8233e:	54c2      	strb	r2, [r0, r3]
		RxString[i] = NULL;
   82340:	54ca      	strb	r2, [r1, r3]
   82342:	3301      	adds	r3, #1
	//UART->UART_IER = UART_IER_TXRDY;
	
	interrupts_enable_interrupt_vector(UART_IRQn, UART_PRIORITY);
	
	// Initialize Transmit buffer character array
	for (uint16_t i = 0; i < TXBUFFERSIZE; i++)
   82344:	f5b3 6f80 	cmp.w	r3, #1024	; 0x400
   82348:	d1f9      	bne.n	8233e <uart_tx_interrupt_init+0x12>
	{
		TxString[i] = NULL;
		RxString[i] = NULL;
	}
	// Initialize Transmit/receive buffer iterator for array
	TxStringHead = TxStringTail = 0;
   8234a:	2300      	movs	r3, #0
   8234c:	4a08      	ldr	r2, [pc, #32]	; (82370 <uart_tx_interrupt_init+0x44>)
   8234e:	8013      	strh	r3, [r2, #0]
   82350:	4a08      	ldr	r2, [pc, #32]	; (82374 <uart_tx_interrupt_init+0x48>)
   82352:	8013      	strh	r3, [r2, #0]
	RxStringHead = RxStringTail = 0;
   82354:	4a08      	ldr	r2, [pc, #32]	; (82378 <uart_tx_interrupt_init+0x4c>)
   82356:	8013      	strh	r3, [r2, #0]
   82358:	4a08      	ldr	r2, [pc, #32]	; (8237c <uart_tx_interrupt_init+0x50>)
   8235a:	8013      	strh	r3, [r2, #0]
	RxFlag = LOW;
   8235c:	4a08      	ldr	r2, [pc, #32]	; (82380 <uart_tx_interrupt_init+0x54>)
   8235e:	7013      	strb	r3, [r2, #0]
   82360:	bd08      	pop	{r3, pc}
   82362:	bf00      	nop
   82364:	0008131d 	.word	0x0008131d
   82368:	20070a2c 	.word	0x20070a2c
   8236c:	20071000 	.word	0x20071000
   82370:	200709d0 	.word	0x200709d0
   82374:	200709d4 	.word	0x200709d4
   82378:	20071432 	.word	0x20071432
   8237c:	20071834 	.word	0x20071834
   82380:	20071428 	.word	0x20071428

00082384 <uart_interrupt_transfer>:
}

void uart_interrupt_transfer(char * str)
{
	uint16_t i = 0;
	while(str[i] != NULL && TxStringHead < TXBUFFERSIZE)
   82384:	7803      	ldrb	r3, [r0, #0]
   82386:	b303      	cbz	r3, 823ca <uart_interrupt_transfer+0x46>
   82388:	4b12      	ldr	r3, [pc, #72]	; (823d4 <uart_interrupt_transfer+0x50>)
   8238a:	881b      	ldrh	r3, [r3, #0]
   8238c:	b29b      	uxth	r3, r3
   8238e:	f5b3 6f80 	cmp.w	r3, #1024	; 0x400
   82392:	d21a      	bcs.n	823ca <uart_interrupt_transfer+0x46>
	RxStringHead = RxStringTail = 0;
	RxFlag = LOW;
}

void uart_interrupt_transfer(char * str)
{
   82394:	b470      	push	{r4, r5, r6}
	uint16_t i = 0;
	while(str[i] != NULL && TxStringHead < TXBUFFERSIZE)
   82396:	4605      	mov	r5, r0
   82398:	2300      	movs	r3, #0
		TxString[TxStringHead++] = str[i++];
   8239a:	4c0e      	ldr	r4, [pc, #56]	; (823d4 <uart_interrupt_transfer+0x50>)
   8239c:	4e0e      	ldr	r6, [pc, #56]	; (823d8 <uart_interrupt_transfer+0x54>)
   8239e:	8822      	ldrh	r2, [r4, #0]
   823a0:	b292      	uxth	r2, r2
   823a2:	1c51      	adds	r1, r2, #1
   823a4:	b289      	uxth	r1, r1
   823a6:	8021      	strh	r1, [r4, #0]
   823a8:	3301      	adds	r3, #1
   823aa:	b29b      	uxth	r3, r3
   823ac:	7829      	ldrb	r1, [r5, #0]
   823ae:	54b1      	strb	r1, [r6, r2]
}

void uart_interrupt_transfer(char * str)
{
	uint16_t i = 0;
	while(str[i] != NULL && TxStringHead < TXBUFFERSIZE)
   823b0:	18c5      	adds	r5, r0, r3
   823b2:	5cc2      	ldrb	r2, [r0, r3]
   823b4:	b122      	cbz	r2, 823c0 <uart_interrupt_transfer+0x3c>
   823b6:	8822      	ldrh	r2, [r4, #0]
   823b8:	b292      	uxth	r2, r2
   823ba:	f5b2 6f80 	cmp.w	r2, #1024	; 0x400
   823be:	d3ee      	bcc.n	8239e <uart_interrupt_transfer+0x1a>
		TxString[TxStringHead++] = str[i++];
	UART->UART_IER = UART_IER_TXRDY;
   823c0:	2202      	movs	r2, #2
   823c2:	4b06      	ldr	r3, [pc, #24]	; (823dc <uart_interrupt_transfer+0x58>)
   823c4:	609a      	str	r2, [r3, #8]
}
   823c6:	bc70      	pop	{r4, r5, r6}
   823c8:	4770      	bx	lr
void uart_interrupt_transfer(char * str)
{
	uint16_t i = 0;
	while(str[i] != NULL && TxStringHead < TXBUFFERSIZE)
		TxString[TxStringHead++] = str[i++];
	UART->UART_IER = UART_IER_TXRDY;
   823ca:	2202      	movs	r2, #2
   823cc:	4b03      	ldr	r3, [pc, #12]	; (823dc <uart_interrupt_transfer+0x58>)
   823ce:	609a      	str	r2, [r3, #8]
   823d0:	4770      	bx	lr
   823d2:	bf00      	nop
   823d4:	200709d4 	.word	0x200709d4
   823d8:	20070a2c 	.word	0x20070a2c
   823dc:	400e0800 	.word	0x400e0800

000823e0 <uart_load_tx_buffer>:
	uart_enable_tx_interrupt();
}

void uart_load_tx_buffer(uint8_t data)
{
	TxString[TxStringHead++] = data;
   823e0:	4904      	ldr	r1, [pc, #16]	; (823f4 <uart_load_tx_buffer+0x14>)
   823e2:	880b      	ldrh	r3, [r1, #0]
   823e4:	b29b      	uxth	r3, r3
   823e6:	1c5a      	adds	r2, r3, #1
   823e8:	b292      	uxth	r2, r2
   823ea:	800a      	strh	r2, [r1, #0]
   823ec:	4a02      	ldr	r2, [pc, #8]	; (823f8 <uart_load_tx_buffer+0x18>)
   823ee:	54d0      	strb	r0, [r2, r3]
   823f0:	4770      	bx	lr
   823f2:	bf00      	nop
   823f4:	200709d4 	.word	0x200709d4
   823f8:	20070a2c 	.word	0x20070a2c

000823fc <uart_enable_tx_interrupt>:
}

void uart_enable_tx_interrupt(void)
{
	UART->UART_IER = UART_IER_TXRDY;
   823fc:	2202      	movs	r2, #2
   823fe:	4b01      	ldr	r3, [pc, #4]	; (82404 <uart_enable_tx_interrupt+0x8>)
   82400:	609a      	str	r2, [r3, #8]
   82402:	4770      	bx	lr
   82404:	400e0800 	.word	0x400e0800

00082408 <uart_enable_rx_interrupt>:
}

void uart_enable_rx_interrupt(void)
{
   82408:	b508      	push	{r3, lr}
	interrupts_enable_interrupt_vector(UART_IRQn, UART_PRIORITY);
   8240a:	210c      	movs	r1, #12
   8240c:	2008      	movs	r0, #8
   8240e:	4b03      	ldr	r3, [pc, #12]	; (8241c <uart_enable_rx_interrupt+0x14>)
   82410:	4798      	blx	r3
	UART->UART_IER = UART_IER_RXRDY;
   82412:	2201      	movs	r2, #1
   82414:	4b02      	ldr	r3, [pc, #8]	; (82420 <uart_enable_rx_interrupt+0x18>)
   82416:	609a      	str	r2, [r3, #8]
   82418:	bd08      	pop	{r3, pc}
   8241a:	bf00      	nop
   8241c:	0008131d 	.word	0x0008131d
   82420:	400e0800 	.word	0x400e0800

00082424 <uart_disable_rx_interrupt>:
}
void uart_disable_rx_interrupt(void)
{
	UART->UART_IDR = UART_IDR_RXRDY;
   82424:	2201      	movs	r2, #1
   82426:	4b01      	ldr	r3, [pc, #4]	; (8242c <uart_disable_rx_interrupt+0x8>)
   82428:	60da      	str	r2, [r3, #12]
   8242a:	4770      	bx	lr
   8242c:	400e0800 	.word	0x400e0800

00082430 <uart_rx_read_buffer>:
}

void uart_rx_read_buffer(void)
{
	if (RxStringTail == RxStringHead)
   82430:	4b10      	ldr	r3, [pc, #64]	; (82474 <uart_rx_read_buffer+0x44>)
   82432:	881a      	ldrh	r2, [r3, #0]
   82434:	b292      	uxth	r2, r2
   82436:	4b10      	ldr	r3, [pc, #64]	; (82478 <uart_rx_read_buffer+0x48>)
   82438:	881b      	ldrh	r3, [r3, #0]
   8243a:	b29b      	uxth	r3, r3
   8243c:	429a      	cmp	r2, r3
   8243e:	d105      	bne.n	8244c <uart_rx_read_buffer+0x1c>
	{
		RxStringTail = RxStringHead = 0;
   82440:	2300      	movs	r3, #0
   82442:	4a0d      	ldr	r2, [pc, #52]	; (82478 <uart_rx_read_buffer+0x48>)
   82444:	8013      	strh	r3, [r2, #0]
   82446:	4a0b      	ldr	r2, [pc, #44]	; (82474 <uart_rx_read_buffer+0x44>)
   82448:	8013      	strh	r3, [r2, #0]
   8244a:	4770      	bx	lr
{
	UART->UART_IDR = UART_IDR_RXRDY;
}

void uart_rx_read_buffer(void)
{
   8244c:	b510      	push	{r4, lr}
	if (RxStringTail == RxStringHead)
	{
		RxStringTail = RxStringHead = 0;
		return;
	}
	tunerstudio_command(RxString[RxStringTail++]);
   8244e:	4c09      	ldr	r4, [pc, #36]	; (82474 <uart_rx_read_buffer+0x44>)
   82450:	8823      	ldrh	r3, [r4, #0]
   82452:	b29b      	uxth	r3, r3
   82454:	1c5a      	adds	r2, r3, #1
   82456:	b292      	uxth	r2, r2
   82458:	8022      	strh	r2, [r4, #0]
   8245a:	4a08      	ldr	r2, [pc, #32]	; (8247c <uart_rx_read_buffer+0x4c>)
   8245c:	5cd0      	ldrb	r0, [r2, r3]
   8245e:	4b08      	ldr	r3, [pc, #32]	; (82480 <uart_rx_read_buffer+0x50>)
   82460:	4798      	blx	r3
	if (RxStringTail >= RXBUFFERSIZE)
   82462:	8823      	ldrh	r3, [r4, #0]
   82464:	b29b      	uxth	r3, r3
   82466:	f5b3 6f80 	cmp.w	r3, #1024	; 0x400
   8246a:	d301      	bcc.n	82470 <uart_rx_read_buffer+0x40>
	{
		RxStringTail = 0;
   8246c:	2200      	movs	r2, #0
   8246e:	8022      	strh	r2, [r4, #0]
   82470:	bd10      	pop	{r4, pc}
   82472:	bf00      	nop
   82474:	20071432 	.word	0x20071432
   82478:	20071834 	.word	0x20071834
   8247c:	20071000 	.word	0x20071000
   82480:	00082195 	.word	0x00082195

00082484 <uart_transfer>:
	//uint8_t read = RxString[RxStringTail++];
}

void uart_transfer(uint8_t transmit)
{
	while (!(UART->UART_SR & UART_SR_TXRDY));
   82484:	4a03      	ldr	r2, [pc, #12]	; (82494 <uart_transfer+0x10>)
   82486:	6953      	ldr	r3, [r2, #20]
   82488:	f013 0f02 	tst.w	r3, #2
   8248c:	d0fb      	beq.n	82486 <uart_transfer+0x2>
	UART->UART_THR = transmit;
   8248e:	4b01      	ldr	r3, [pc, #4]	; (82494 <uart_transfer+0x10>)
   82490:	61d8      	str	r0, [r3, #28]
   82492:	4770      	bx	lr
   82494:	400e0800 	.word	0x400e0800

00082498 <uart_print_int>:
}
//Send Integers over to terminal
void uart_print_int(uint32_t data)
{
   82498:	e92d 43f8 	stmdb	sp!, {r3, r4, r5, r6, r7, r8, r9, lr}
   8249c:	4605      	mov	r5, r0
	uint32_t div = 1000000000;		// Divider to divide data with
	uint8_t start = 0;
	uint8_t cnt = 10;
	for (int i = 1; i <= cnt; i++)
   8249e:	2601      	movs	r6, #1
}
//Send Integers over to terminal
void uart_print_int(uint32_t data)
{
	uint32_t div = 1000000000;		// Divider to divide data with
	uint8_t start = 0;
   824a0:	2200      	movs	r2, #0
	UART->UART_THR = transmit;
}
//Send Integers over to terminal
void uart_print_int(uint32_t data)
{
	uint32_t div = 1000000000;		// Divider to divide data with
   824a2:	4c0e      	ldr	r4, [pc, #56]	; (824dc <uart_print_int+0x44>)
	{
		uint8_t send = data / div + 48; // calculate the Ascii for each number
		if(send != 48 || start == 1 || i == cnt)
		{
			//Wait until hardware is ready to send data, UDRE0 = Data register empty
			uart_transfer(send);
   824a4:	f8df 903c 	ldr.w	r9, [pc, #60]	; 824e4 <uart_print_int+0x4c>
			start = 1;
   824a8:	46b0      	mov	r8, r6
		}
		data %= div;
		div /= 10;
   824aa:	4f0d      	ldr	r7, [pc, #52]	; (824e0 <uart_print_int+0x48>)
	uint32_t div = 1000000000;		// Divider to divide data with
	uint8_t start = 0;
	uint8_t cnt = 10;
	for (int i = 1; i <= cnt; i++)
	{
		uint8_t send = data / div + 48; // calculate the Ascii for each number
   824ac:	fbb5 f0f4 	udiv	r0, r5, r4
   824b0:	3030      	adds	r0, #48	; 0x30
   824b2:	b2c0      	uxtb	r0, r0
		if(send != 48 || start == 1 || i == cnt)
   824b4:	2830      	cmp	r0, #48	; 0x30
   824b6:	d102      	bne.n	824be <uart_print_int+0x26>
   824b8:	b90a      	cbnz	r2, 824be <uart_print_int+0x26>
   824ba:	2e0a      	cmp	r6, #10
   824bc:	d101      	bne.n	824c2 <uart_print_int+0x2a>
		{
			//Wait until hardware is ready to send data, UDRE0 = Data register empty
			uart_transfer(send);
   824be:	47c8      	blx	r9
			start = 1;
   824c0:	4642      	mov	r2, r8
		}
		data %= div;
   824c2:	fbb5 f3f4 	udiv	r3, r5, r4
   824c6:	fb04 5513 	mls	r5, r4, r3, r5
		div /= 10;
   824ca:	fba7 3404 	umull	r3, r4, r7, r4
   824ce:	08e4      	lsrs	r4, r4, #3
void uart_print_int(uint32_t data)
{
	uint32_t div = 1000000000;		// Divider to divide data with
	uint8_t start = 0;
	uint8_t cnt = 10;
	for (int i = 1; i <= cnt; i++)
   824d0:	3601      	adds	r6, #1
   824d2:	2e0b      	cmp	r6, #11
   824d4:	d1ea      	bne.n	824ac <uart_print_int+0x14>
		}
		data %= div;
		div /= 10;
	}
	//uart_new_line();
}
   824d6:	e8bd 83f8 	ldmia.w	sp!, {r3, r4, r5, r6, r7, r8, r9, pc}
   824da:	bf00      	nop
   824dc:	3b9aca00 	.word	0x3b9aca00
   824e0:	cccccccd 	.word	0xcccccccd
   824e4:	00082485 	.word	0x00082485

000824e8 <uart_new_line>:
void uart_new_line(void)
{
   824e8:	b508      	push	{r3, lr}
	uart_transfer(10);
   824ea:	200a      	movs	r0, #10
   824ec:	4b01      	ldr	r3, [pc, #4]	; (824f4 <uart_new_line+0xc>)
   824ee:	4798      	blx	r3
   824f0:	bd08      	pop	{r3, pc}
   824f2:	bf00      	nop
   824f4:	00082485 	.word	0x00082485

000824f8 <uart_print_string>:
}

void uart_print_string(char * data)
{
   824f8:	b570      	push	{r4, r5, r6, lr}
   824fa:	1e44      	subs	r4, r0, #1
	int i = 0;
   824fc:	2500      	movs	r5, #0
	// loop which print strings till null is reached or more than 20 characters (for safety)
	while(data[i] != 0 || i > 20)
		uart_transfer(data[i++]);
   824fe:	4e07      	ldr	r6, [pc, #28]	; (8251c <uart_print_string+0x24>)

void uart_print_string(char * data)
{
	int i = 0;
	// loop which print strings till null is reached or more than 20 characters (for safety)
	while(data[i] != 0 || i > 20)
   82500:	e001      	b.n	82506 <uart_print_string+0xe>
		uart_transfer(data[i++]);
   82502:	3501      	adds	r5, #1
   82504:	47b0      	blx	r6

void uart_print_string(char * data)
{
	int i = 0;
	// loop which print strings till null is reached or more than 20 characters (for safety)
	while(data[i] != 0 || i > 20)
   82506:	f814 0f01 	ldrb.w	r0, [r4, #1]!
   8250a:	2800      	cmp	r0, #0
   8250c:	d1f9      	bne.n	82502 <uart_print_string+0xa>
   8250e:	2d14      	cmp	r5, #20
   82510:	dcf7      	bgt.n	82502 <uart_print_string+0xa>
		uart_transfer(data[i++]);
	uart_transfer(32); // space
   82512:	2020      	movs	r0, #32
   82514:	4b01      	ldr	r3, [pc, #4]	; (8251c <uart_print_string+0x24>)
   82516:	4798      	blx	r3
   82518:	bd70      	pop	{r4, r5, r6, pc}
   8251a:	bf00      	nop
   8251c:	00082485 	.word	0x00082485

00082520 <UART_Handler>:
}

void UART_Handler(void)
{
	// Check the interrupt status, transmit or receive ?
	uint32_t status = UART->UART_SR;
   82520:	4b21      	ldr	r3, [pc, #132]	; (825a8 <UART_Handler+0x88>)
   82522:	695a      	ldr	r2, [r3, #20]
	
	// Transmit data from buffer if the buffer contains data (TxStringHead > 0) 
	if (TxStringHead && (status & UART_SR_TXRDY))
   82524:	4b21      	ldr	r3, [pc, #132]	; (825ac <UART_Handler+0x8c>)
   82526:	881b      	ldrh	r3, [r3, #0]
   82528:	b29b      	uxth	r3, r3
   8252a:	b1e3      	cbz	r3, 82566 <UART_Handler+0x46>
   8252c:	f012 0f02 	tst.w	r2, #2
   82530:	d019      	beq.n	82566 <UART_Handler+0x46>
	{
		// Load the buffer character to transmitting register
		UART->UART_THR = TxString[TxStringTail];
   82532:	491f      	ldr	r1, [pc, #124]	; (825b0 <UART_Handler+0x90>)
   82534:	880b      	ldrh	r3, [r1, #0]
   82536:	b29b      	uxth	r3, r3
   82538:	481e      	ldr	r0, [pc, #120]	; (825b4 <UART_Handler+0x94>)
   8253a:	5cc3      	ldrb	r3, [r0, r3]
   8253c:	b2db      	uxtb	r3, r3
   8253e:	481a      	ldr	r0, [pc, #104]	; (825a8 <UART_Handler+0x88>)
   82540:	61c3      	str	r3, [r0, #28]
		// Increment buffer tail iterator 
		TxStringTail += 1;
   82542:	880b      	ldrh	r3, [r1, #0]
   82544:	3301      	adds	r3, #1
   82546:	b29b      	uxth	r3, r3
   82548:	800b      	strh	r3, [r1, #0]
		// Check if the message has been fully transmitted
		if (TxStringTail >= TxStringHead)
   8254a:	8809      	ldrh	r1, [r1, #0]
   8254c:	b289      	uxth	r1, r1
   8254e:	4b17      	ldr	r3, [pc, #92]	; (825ac <UART_Handler+0x8c>)
   82550:	881b      	ldrh	r3, [r3, #0]
   82552:	b29b      	uxth	r3, r3
   82554:	4299      	cmp	r1, r3
   82556:	d306      	bcc.n	82566 <UART_Handler+0x46>
		{
			// Reset iterators
			TxStringTail = TxStringHead = 0;
   82558:	2300      	movs	r3, #0
   8255a:	4914      	ldr	r1, [pc, #80]	; (825ac <UART_Handler+0x8c>)
   8255c:	800b      	strh	r3, [r1, #0]
   8255e:	4914      	ldr	r1, [pc, #80]	; (825b0 <UART_Handler+0x90>)
   82560:	800b      	strh	r3, [r1, #0]
			// Disable transmit interrupts
			UART->UART_IDR = UART_IDR_TXRDY;
   82562:	2102      	movs	r1, #2
   82564:	60c1      	str	r1, [r0, #12]
		}
	}
	if (status & UART_SR_RXRDY)
   82566:	f012 0f01 	tst.w	r2, #1
   8256a:	d01c      	beq.n	825a6 <UART_Handler+0x86>
	{
		
		// The bit RXRDY is automatically cleared when the receive holding register UART_RHR is read
		uint8_t receive = UART->UART_RHR;
   8256c:	4b0e      	ldr	r3, [pc, #56]	; (825a8 <UART_Handler+0x88>)
   8256e:	6999      	ldr	r1, [r3, #24]
		// If UART_RHR has not been read by the sofware since the last transfer, overrun bit
		// If there was a parity error during the receive, reset in control register
		if (status & UART_SR_OVRE || status & UART_SR_PARE)
   82570:	f012 0fa0 	tst.w	r2, #160	; 0xa0
   82574:	d003      	beq.n	8257e <UART_Handler+0x5e>
		{
			// TODO: Send an error to computer
			// Clear the overrun bit in control register
			UART->UART_CR = UART_CR_RSTSTA;
   82576:	f44f 7280 	mov.w	r2, #256	; 0x100
   8257a:	601a      	str	r2, [r3, #0]
			return;
   8257c:	4770      	bx	lr
		}
		
		RxString[RxStringHead++] = receive;
   8257e:	4a0e      	ldr	r2, [pc, #56]	; (825b8 <UART_Handler+0x98>)
   82580:	8813      	ldrh	r3, [r2, #0]
   82582:	b29b      	uxth	r3, r3
   82584:	1c58      	adds	r0, r3, #1
   82586:	b280      	uxth	r0, r0
   82588:	8010      	strh	r0, [r2, #0]
	}
	if (status & UART_SR_RXRDY)
	{
		
		// The bit RXRDY is automatically cleared when the receive holding register UART_RHR is read
		uint8_t receive = UART->UART_RHR;
   8258a:	b2c9      	uxtb	r1, r1
			// Clear the overrun bit in control register
			UART->UART_CR = UART_CR_RSTSTA;
			return;
		}
		
		RxString[RxStringHead++] = receive;
   8258c:	480b      	ldr	r0, [pc, #44]	; (825bc <UART_Handler+0x9c>)
   8258e:	54c1      	strb	r1, [r0, r3]
		if (RxStringHead >= RXBUFFERSIZE)
   82590:	8813      	ldrh	r3, [r2, #0]
   82592:	b29b      	uxth	r3, r3
   82594:	f5b3 6f80 	cmp.w	r3, #1024	; 0x400
   82598:	d302      	bcc.n	825a0 <UART_Handler+0x80>
		{
			RxStringHead = 0;
   8259a:	2200      	movs	r2, #0
   8259c:	4b06      	ldr	r3, [pc, #24]	; (825b8 <UART_Handler+0x98>)
   8259e:	801a      	strh	r2, [r3, #0]
		}
		
		RxFlag = TRUE;
   825a0:	2201      	movs	r2, #1
   825a2:	4b07      	ldr	r3, [pc, #28]	; (825c0 <UART_Handler+0xa0>)
   825a4:	701a      	strb	r2, [r3, #0]
   825a6:	4770      	bx	lr
   825a8:	400e0800 	.word	0x400e0800
   825ac:	200709d4 	.word	0x200709d4
   825b0:	200709d0 	.word	0x200709d0
   825b4:	20070a2c 	.word	0x20070a2c
   825b8:	20071834 	.word	0x20071834
   825bc:	20071000 	.word	0x20071000
   825c0:	20071428 	.word	0x20071428

000825c4 <uart_receive>:
	}
}

uint8_t uart_receive(void)
{
	while (!(UART->UART_SR & UART_SR_RXRDY)); // Wait for character
   825c4:	4a04      	ldr	r2, [pc, #16]	; (825d8 <uart_receive+0x14>)
   825c6:	6953      	ldr	r3, [r2, #20]
   825c8:	f013 0f01 	tst.w	r3, #1
   825cc:	d0fb      	beq.n	825c6 <uart_receive+0x2>
	return UART->UART_RHR;
   825ce:	4b02      	ldr	r3, [pc, #8]	; (825d8 <uart_receive+0x14>)
   825d0:	6998      	ldr	r0, [r3, #24]
}
   825d2:	b2c0      	uxtb	r0, r0
   825d4:	4770      	bx	lr
   825d6:	bf00      	nop
   825d8:	400e0800 	.word	0x400e0800

000825dc <uart_load_pdc_tx_buffer>:

void uart_load_pdc_tx_buffer(uint8_t * address, uint16_t size)
{
   825dc:	b510      	push	{r4, lr}
	PdcTxPacket.ul_addr = address;
   825de:	4b07      	ldr	r3, [pc, #28]	; (825fc <uart_load_pdc_tx_buffer+0x20>)
   825e0:	6018      	str	r0, [r3, #0]
	PdcTxPacket.ul_size = size;
   825e2:	6059      	str	r1, [r3, #4]
	pdc_tx_init(PdcInterface, &PdcTxPacket, NULL);
   825e4:	4c06      	ldr	r4, [pc, #24]	; (82600 <uart_load_pdc_tx_buffer+0x24>)
   825e6:	2200      	movs	r2, #0
   825e8:	4619      	mov	r1, r3
   825ea:	6820      	ldr	r0, [r4, #0]
   825ec:	4b05      	ldr	r3, [pc, #20]	; (82604 <uart_load_pdc_tx_buffer+0x28>)
   825ee:	4798      	blx	r3
	pdc_enable_transfer(PdcInterface, PERIPH_PTCR_TXTEN);
   825f0:	f44f 7180 	mov.w	r1, #256	; 0x100
   825f4:	6820      	ldr	r0, [r4, #0]
   825f6:	4b04      	ldr	r3, [pc, #16]	; (82608 <uart_load_pdc_tx_buffer+0x2c>)
   825f8:	4798      	blx	r3
   825fa:	bd10      	pop	{r4, pc}
   825fc:	200721e0 	.word	0x200721e0
   82600:	2007142c 	.word	0x2007142c
   82604:	000803e1 	.word	0x000803e1
   82608:	000803f9 	.word	0x000803f9

0008260c <main>:
		}
	}
}

int main (void)
{
   8260c:	e92d 41f0 	stmdb	sp!, {r4, r5, r6, r7, r8, lr}
   82610:	b084      	sub	sp, #16
	/* Insert system clock initialization code here (sysclk_init()). */
	sysclk_init();
   82612:	4b5b      	ldr	r3, [pc, #364]	; (82780 <main+0x174>)
   82614:	4798      	blx	r3
	board_init();
   82616:	4b5b      	ldr	r3, [pc, #364]	; (82784 <main+0x178>)
   82618:	4798      	blx	r3
	// Initialize Debug pins
	/************************************************************************/
	/* pio_set(PIOx, Pin)
	pio_clear(PIOx, Pin)*/
	/************************************************************************/
	pmc_enable_periph_clk(ID_PIOC);
   8261a:	200d      	movs	r0, #13
   8261c:	4b5a      	ldr	r3, [pc, #360]	; (82788 <main+0x17c>)
   8261e:	4798      	blx	r3
	// Configure pin as output
	pio_set_output(PIOC, IGN1_OUT, LOW, FALSE, FALSE);
   82620:	4d5a      	ldr	r5, [pc, #360]	; (8278c <main+0x180>)
   82622:	2400      	movs	r4, #0
   82624:	9400      	str	r4, [sp, #0]
   82626:	4623      	mov	r3, r4
   82628:	4622      	mov	r2, r4
   8262a:	f44f 2100 	mov.w	r1, #524288	; 0x80000
   8262e:	4628      	mov	r0, r5
   82630:	4e57      	ldr	r6, [pc, #348]	; (82790 <main+0x184>)
   82632:	47b0      	blx	r6
	pio_set_output(PIOC, IGN2_OUT, LOW, FALSE, FALSE);
   82634:	9400      	str	r4, [sp, #0]
   82636:	4623      	mov	r3, r4
   82638:	4622      	mov	r2, r4
   8263a:	f44f 0100 	mov.w	r1, #8388608	; 0x800000
   8263e:	4628      	mov	r0, r5
   82640:	47b0      	blx	r6
	pio_set_output(PIOC, IGN3_OUT, LOW, FALSE, FALSE);
   82642:	9400      	str	r4, [sp, #0]
   82644:	4623      	mov	r3, r4
   82646:	4622      	mov	r2, r4
   82648:	f44f 3100 	mov.w	r1, #131072	; 0x20000
   8264c:	4628      	mov	r0, r5
   8264e:	47b0      	blx	r6
	pio_set_output(PIOC, IGN4_OUT, LOW, FALSE, FALSE);
   82650:	9400      	str	r4, [sp, #0]
   82652:	4623      	mov	r3, r4
   82654:	4622      	mov	r2, r4
   82656:	f04f 7100 	mov.w	r1, #33554432	; 0x2000000
   8265a:	4628      	mov	r0, r5
   8265c:	47b0      	blx	r6
	pio_clear(PIOC, IGN1_OUT);
   8265e:	f44f 2100 	mov.w	r1, #524288	; 0x80000
   82662:	4628      	mov	r0, r5
   82664:	4e4b      	ldr	r6, [pc, #300]	; (82794 <main+0x188>)
   82666:	47b0      	blx	r6
	pio_clear(PIOC, IGN2_OUT);
   82668:	f44f 0100 	mov.w	r1, #8388608	; 0x800000
   8266c:	4628      	mov	r0, r5
   8266e:	47b0      	blx	r6
	pio_clear(PIOC, IGN3_OUT);
   82670:	f44f 3100 	mov.w	r1, #131072	; 0x20000
   82674:	4628      	mov	r0, r5
   82676:	47b0      	blx	r6
	pio_clear(PIOC, IGN4_OUT);
   82678:	f04f 7100 	mov.w	r1, #33554432	; 0x2000000
   8267c:	4628      	mov	r0, r5
   8267e:	47b0      	blx	r6
	
	// Initialize UART communication
	uart_init();
   82680:	4b45      	ldr	r3, [pc, #276]	; (82798 <main+0x18c>)
   82682:	4798      	blx	r3
	// Initialize interrupts for UART
	uart_enable_rx_interrupt();
   82684:	4b45      	ldr	r3, [pc, #276]	; (8279c <main+0x190>)
   82686:	4798      	blx	r3
	uart_tx_interrupt_init();
   82688:	4b45      	ldr	r3, [pc, #276]	; (827a0 <main+0x194>)
   8268a:	4798      	blx	r3
	uart_print_string("Init begin"); uart_new_line();
   8268c:	4845      	ldr	r0, [pc, #276]	; (827a4 <main+0x198>)
   8268e:	f8df 8174 	ldr.w	r8, [pc, #372]	; 82804 <main+0x1f8>
   82692:	47c0      	blx	r8
   82694:	4f44      	ldr	r7, [pc, #272]	; (827a8 <main+0x19c>)
   82696:	47b8      	blx	r7

	// Initialize TWI communication for EEPROM
	eeprom_init();
   82698:	4b44      	ldr	r3, [pc, #272]	; (827ac <main+0x1a0>)
   8269a:	4798      	blx	r3

	// Initialize necessary global parameters
	global_init();
   8269c:	4b44      	ldr	r3, [pc, #272]	; (827b0 <main+0x1a4>)
   8269e:	4798      	blx	r3
	
	// Initialize Analog to Digital Converter
	adc_initialize();
   826a0:	4b44      	ldr	r3, [pc, #272]	; (827b4 <main+0x1a8>)
   826a2:	4798      	blx	r3
	uint8_t channel_number[NR_OF_ACTIVE_ADC_CHANNELS] = {ADC_CLT_CH, ADC_IAT_CH, ADC_AFR_CH, ADC_MAP_CH, ADC_TPS_CH, ADC_BATT_CH, ADC_AFR_CH};
   826a4:	4b44      	ldr	r3, [pc, #272]	; (827b8 <main+0x1ac>)
   826a6:	6818      	ldr	r0, [r3, #0]
   826a8:	9002      	str	r0, [sp, #8]
   826aa:	889a      	ldrh	r2, [r3, #4]
   826ac:	799b      	ldrb	r3, [r3, #6]
   826ae:	f8ad 200c 	strh.w	r2, [sp, #12]
   826b2:	f88d 300e 	strb.w	r3, [sp, #14]
	adc_turn_on_multiple_channels(channel_number, TRUE, ADC_PRIORITY);
   826b6:	220a      	movs	r2, #10
   826b8:	2101      	movs	r1, #1
   826ba:	a802      	add	r0, sp, #8
   826bc:	4b3f      	ldr	r3, [pc, #252]	; (827bc <main+0x1b0>)
   826be:	4798      	blx	r3
	adc_start(ADC);
   826c0:	483f      	ldr	r0, [pc, #252]	; (827c0 <main+0x1b4>)
   826c2:	4b40      	ldr	r3, [pc, #256]	; (827c4 <main+0x1b8>)
   826c4:	4798      	blx	r3
	// Initialize ADC timer frequency, how often ADC values are measured
	// CLOCK3 = MCK/32, TC_CMR_WAVE is to disable Capture mode, Enable Overflow and compare reg A
	timer_init(GLOBAL_TIMER, TC_CMR_TCCLKS_TIMER_CLOCK3 | TC_CMR_WAVE, TC_IER_COVFS | TC_IER_CPAS | TC_IER_CPCS, TC8_PRIORITY);
   826c6:	2309      	movs	r3, #9
   826c8:	2215      	movs	r2, #21
   826ca:	f248 0102 	movw	r1, #32770	; 0x8002
   826ce:	2008      	movs	r0, #8
   826d0:	4d3d      	ldr	r5, [pc, #244]	; (827c8 <main+0x1bc>)
   826d2:	47a8      	blx	r5
	tc_write_ra(TC2, 2, GLOBAL_TIMER_FREQ/GlobalTimerFreqADCScaler);
   826d4:	4b3d      	ldr	r3, [pc, #244]	; (827cc <main+0x1c0>)
   826d6:	881b      	ldrh	r3, [r3, #0]
   826d8:	4e3d      	ldr	r6, [pc, #244]	; (827d0 <main+0x1c4>)
   826da:	4a3e      	ldr	r2, [pc, #248]	; (827d4 <main+0x1c8>)
   826dc:	fb92 f2f3 	sdiv	r2, r2, r3
   826e0:	2102      	movs	r1, #2
   826e2:	4630      	mov	r0, r6
   826e4:	4b3c      	ldr	r3, [pc, #240]	; (827d8 <main+0x1cc>)
   826e6:	4798      	blx	r3
	//tc_write_rb(TC2, 2, GLOBAL_TIMER_FREQ/MILLI_SEC);
	tc_write_rc(TC2, 2, GLOBAL_TIMER_FREQ/MILLI_SEC);
   826e8:	f640 2241 	movw	r2, #2625	; 0xa41
   826ec:	2102      	movs	r1, #2
   826ee:	4630      	mov	r0, r6
   826f0:	4b3a      	ldr	r3, [pc, #232]	; (827dc <main+0x1d0>)
   826f2:	4798      	blx	r3
	
	// Initialize sensors look up vectors by reading them from EEPROM
	sensors_init();
   826f4:	4b3a      	ldr	r3, [pc, #232]	; (827e0 <main+0x1d4>)
   826f6:	4798      	blx	r3

	// Initialize communication with tunerstudio
	tunerstudio_init();
   826f8:	4b3a      	ldr	r3, [pc, #232]	; (827e4 <main+0x1d8>)
   826fa:	4798      	blx	r3

	// TEST 
	interrupts_enable_pio(ID_PIOA, CRANK_SIGNAL, PIOA_PRIORITY, INTERRUPT_RISING_EDGE_MODE);
   826fc:	2301      	movs	r3, #1
   826fe:	4622      	mov	r2, r4
   82700:	2180      	movs	r1, #128	; 0x80
   82702:	200b      	movs	r0, #11
   82704:	4e38      	ldr	r6, [pc, #224]	; (827e8 <main+0x1dc>)
   82706:	47b0      	blx	r6
	
	
	/************* RJR **************/
	
	// Enable external interrupt for PIOA register, crank and cam
	interrupts_enable_pio(ID_PIOA, CRANK_SIGNAL, PIOA_PRIORITY, INTERRUPT_FALLING_EDGE_MODE);
   82708:	2302      	movs	r3, #2
   8270a:	4622      	mov	r2, r4
   8270c:	2180      	movs	r1, #128	; 0x80
   8270e:	200b      	movs	r0, #11
   82710:	47b0      	blx	r6
	interrupts_enable_pio(ID_PIOA, CAM_SIGNAL, PIOA_PRIORITY, INTERRUPT_FALLING_EDGE_MODE);
   82712:	2302      	movs	r3, #2
   82714:	4622      	mov	r2, r4
   82716:	f44f 4100 	mov.w	r1, #32768	; 0x8000
   8271a:	200b      	movs	r0, #11
   8271c:	47b0      	blx	r6
	
	// Initiate timer interrupt
	timer_init(CYLINDER_1_TIMER, TC_CMR_WAVE | TC_CMR_TCCLKS_TIMER_CLOCK3 | TC_CMR_EEVT_XC0, TC_IER_COVFS | TC_IER_CPAS | TC_IER_CPBS | TC_IER_CPCS, TC0_PRIORITY);
   8271e:	2301      	movs	r3, #1
   82720:	221d      	movs	r2, #29
   82722:	f248 4102 	movw	r1, #33794	; 0x8402
   82726:	4620      	mov	r0, r4
   82728:	47a8      	blx	r5
	timer_init(CYLINDER_2_TIMER, TC_CMR_WAVE | TC_CMR_TCCLKS_TIMER_CLOCK3 | TC_CMR_EEVT_XC0, TC_IER_COVFS | TC_IER_CPAS | TC_IER_CPBS | TC_IER_CPCS, TC1_PRIORITY);
   8272a:	2302      	movs	r3, #2
   8272c:	221d      	movs	r2, #29
   8272e:	f248 4102 	movw	r1, #33794	; 0x8402
   82732:	2001      	movs	r0, #1
   82734:	47a8      	blx	r5
	timer_init(CYLINDER_3_TIMER, TC_CMR_WAVE | TC_CMR_TCCLKS_TIMER_CLOCK3 | TC_CMR_EEVT_XC0, TC_IER_COVFS | TC_IER_CPAS | TC_IER_CPBS | TC_IER_CPCS, TC2_PRIORITY);
   82736:	2303      	movs	r3, #3
   82738:	221d      	movs	r2, #29
   8273a:	f248 4102 	movw	r1, #33794	; 0x8402
   8273e:	2002      	movs	r0, #2
   82740:	47a8      	blx	r5
	timer_init(CYLINDER_4_TIMER, TC_CMR_WAVE | TC_CMR_TCCLKS_TIMER_CLOCK3 | TC_CMR_EEVT_XC0, TC_IER_COVFS | TC_IER_CPAS | TC_IER_CPBS | TC_IER_CPCS, TC3_PRIORITY);
   82742:	2304      	movs	r3, #4
   82744:	221d      	movs	r2, #29
   82746:	f248 4102 	movw	r1, #33794	; 0x8402
   8274a:	2003      	movs	r0, #3
   8274c:	47a8      	blx	r5
	
	
	
	uart_print_string("Init done"); uart_new_line();
   8274e:	4827      	ldr	r0, [pc, #156]	; (827ec <main+0x1e0>)
   82750:	47c0      	blx	r8
   82752:	47b8      	blx	r7
	{		
		// uart_print_string("C "); uart_print_int(CrankTooth); uart_new_line();
		// uart_print_string("T "); uart_print_int(igncalc_ign_time_teeth(DEGREE_TEST)); uart_new_line();
		// uart_print_string("I "); uart_print_int(igncalc_ign_time_interval(DEGREE_TEST) + decoders_tooth_degree_correction()); uart_new_line();
		
		decoders_crank_primary();
   82754:	4e26      	ldr	r6, [pc, #152]	; (827f0 <main+0x1e4>)
		
		
		
		
		
		if (AdcFlag)
   82756:	4c27      	ldr	r4, [pc, #156]	; (827f4 <main+0x1e8>)
		{
 			AdcFlag = FALSE;
			// TODO: Maybe disable interrupts
			sensors_read_adc();
   82758:	4f27      	ldr	r7, [pc, #156]	; (827f8 <main+0x1ec>)
// 				uart_print_string("Channel"); uart_print_int(channel_number[i]);uart_print_string(" :");uart_print_int(math_find_median(AdcData[AdcChannels[i]], ADC_MEDIAN_FILTER_LENGTH)); uart_new_line();
// 				__asm__("nop");
// 			}
		}
		
		if (RxFlag)
   8275a:	4d28      	ldr	r5, [pc, #160]	; (827fc <main+0x1f0>)
	{		
		// uart_print_string("C "); uart_print_int(CrankTooth); uart_new_line();
		// uart_print_string("T "); uart_print_int(igncalc_ign_time_teeth(DEGREE_TEST)); uart_new_line();
		// uart_print_string("I "); uart_print_int(igncalc_ign_time_interval(DEGREE_TEST) + decoders_tooth_degree_correction()); uart_new_line();
		
		decoders_crank_primary();
   8275c:	47b0      	blx	r6
		
		
		
		
		
		if (AdcFlag)
   8275e:	7823      	ldrb	r3, [r4, #0]
   82760:	f013 0fff 	tst.w	r3, #255	; 0xff
   82764:	d002      	beq.n	8276c <main+0x160>
		{
 			AdcFlag = FALSE;
   82766:	2300      	movs	r3, #0
   82768:	7023      	strb	r3, [r4, #0]
			// TODO: Maybe disable interrupts
			sensors_read_adc();
   8276a:	47b8      	blx	r7
// 				uart_print_string("Channel"); uart_print_int(channel_number[i]);uart_print_string(" :");uart_print_int(math_find_median(AdcData[AdcChannels[i]], ADC_MEDIAN_FILTER_LENGTH)); uart_new_line();
// 				__asm__("nop");
// 			}
		}
		
		if (RxFlag)
   8276c:	782b      	ldrb	r3, [r5, #0]
   8276e:	f013 0fff 	tst.w	r3, #255	; 0xff
   82772:	d0f3      	beq.n	8275c <main+0x150>
		{
			RxFlag = FALSE;
   82774:	2300      	movs	r3, #0
   82776:	702b      	strb	r3, [r5, #0]
			uart_rx_read_buffer();
   82778:	4b21      	ldr	r3, [pc, #132]	; (82800 <main+0x1f4>)
   8277a:	4798      	blx	r3
   8277c:	e7ee      	b.n	8275c <main+0x150>
   8277e:	bf00      	nop
   82780:	000802fd 	.word	0x000802fd
   82784:	00080361 	.word	0x00080361
   82788:	00080705 	.word	0x00080705
   8278c:	400e1200 	.word	0x400e1200
   82790:	0008047d 	.word	0x0008047d
   82794:	00080405 	.word	0x00080405
   82798:	000822f9 	.word	0x000822f9
   8279c:	00082409 	.word	0x00082409
   827a0:	0008232d 	.word	0x0008232d
   827a4:	00083990 	.word	0x00083990
   827a8:	000824e9 	.word	0x000824e9
   827ac:	00080f09 	.word	0x00080f09
   827b0:	00081065 	.word	0x00081065
   827b4:	00080c0d 	.word	0x00080c0d
   827b8:	00083988 	.word	0x00083988
   827bc:	00080ca9 	.word	0x00080ca9
   827c0:	400c0000 	.word	0x400c0000
   827c4:	000802d9 	.word	0x000802d9
   827c8:	00081a79 	.word	0x00081a79
   827cc:	200718ac 	.word	0x200718ac
   827d0:	40088000 	.word	0x40088000
   827d4:	00280de8 	.word	0x00280de8
   827d8:	00080779 	.word	0x00080779
   827dc:	00080781 	.word	0x00080781
   827e0:	00081835 	.word	0x00081835
   827e4:	00081ced 	.word	0x00081ced
   827e8:	0008136d 	.word	0x0008136d
   827ec:	0008399c 	.word	0x0008399c
   827f0:	00080d55 	.word	0x00080d55
   827f4:	20071d2a 	.word	0x20071d2a
   827f8:	00081885 	.word	0x00081885
   827fc:	20071428 	.word	0x20071428
   82800:	00082431 	.word	0x00082431
   82804:	000824f9 	.word	0x000824f9

00082808 <__aeabi_drsub>:
   82808:	f081 4100 	eor.w	r1, r1, #2147483648	; 0x80000000
   8280c:	e002      	b.n	82814 <__adddf3>
   8280e:	bf00      	nop

00082810 <__aeabi_dsub>:
   82810:	f083 4300 	eor.w	r3, r3, #2147483648	; 0x80000000

00082814 <__adddf3>:
   82814:	b530      	push	{r4, r5, lr}
   82816:	ea4f 0441 	mov.w	r4, r1, lsl #1
   8281a:	ea4f 0543 	mov.w	r5, r3, lsl #1
   8281e:	ea94 0f05 	teq	r4, r5
   82822:	bf08      	it	eq
   82824:	ea90 0f02 	teqeq	r0, r2
   82828:	bf1f      	itttt	ne
   8282a:	ea54 0c00 	orrsne.w	ip, r4, r0
   8282e:	ea55 0c02 	orrsne.w	ip, r5, r2
   82832:	ea7f 5c64 	mvnsne.w	ip, r4, asr #21
   82836:	ea7f 5c65 	mvnsne.w	ip, r5, asr #21
   8283a:	f000 80e2 	beq.w	82a02 <__adddf3+0x1ee>
   8283e:	ea4f 5454 	mov.w	r4, r4, lsr #21
   82842:	ebd4 5555 	rsbs	r5, r4, r5, lsr #21
   82846:	bfb8      	it	lt
   82848:	426d      	neglt	r5, r5
   8284a:	dd0c      	ble.n	82866 <__adddf3+0x52>
   8284c:	442c      	add	r4, r5
   8284e:	ea80 0202 	eor.w	r2, r0, r2
   82852:	ea81 0303 	eor.w	r3, r1, r3
   82856:	ea82 0000 	eor.w	r0, r2, r0
   8285a:	ea83 0101 	eor.w	r1, r3, r1
   8285e:	ea80 0202 	eor.w	r2, r0, r2
   82862:	ea81 0303 	eor.w	r3, r1, r3
   82866:	2d36      	cmp	r5, #54	; 0x36
   82868:	bf88      	it	hi
   8286a:	bd30      	pophi	{r4, r5, pc}
   8286c:	f011 4f00 	tst.w	r1, #2147483648	; 0x80000000
   82870:	ea4f 3101 	mov.w	r1, r1, lsl #12
   82874:	f44f 1c80 	mov.w	ip, #1048576	; 0x100000
   82878:	ea4c 3111 	orr.w	r1, ip, r1, lsr #12
   8287c:	d002      	beq.n	82884 <__adddf3+0x70>
   8287e:	4240      	negs	r0, r0
   82880:	eb61 0141 	sbc.w	r1, r1, r1, lsl #1
   82884:	f013 4f00 	tst.w	r3, #2147483648	; 0x80000000
   82888:	ea4f 3303 	mov.w	r3, r3, lsl #12
   8288c:	ea4c 3313 	orr.w	r3, ip, r3, lsr #12
   82890:	d002      	beq.n	82898 <__adddf3+0x84>
   82892:	4252      	negs	r2, r2
   82894:	eb63 0343 	sbc.w	r3, r3, r3, lsl #1
   82898:	ea94 0f05 	teq	r4, r5
   8289c:	f000 80a7 	beq.w	829ee <__adddf3+0x1da>
   828a0:	f1a4 0401 	sub.w	r4, r4, #1
   828a4:	f1d5 0e20 	rsbs	lr, r5, #32
   828a8:	db0d      	blt.n	828c6 <__adddf3+0xb2>
   828aa:	fa02 fc0e 	lsl.w	ip, r2, lr
   828ae:	fa22 f205 	lsr.w	r2, r2, r5
   828b2:	1880      	adds	r0, r0, r2
   828b4:	f141 0100 	adc.w	r1, r1, #0
   828b8:	fa03 f20e 	lsl.w	r2, r3, lr
   828bc:	1880      	adds	r0, r0, r2
   828be:	fa43 f305 	asr.w	r3, r3, r5
   828c2:	4159      	adcs	r1, r3
   828c4:	e00e      	b.n	828e4 <__adddf3+0xd0>
   828c6:	f1a5 0520 	sub.w	r5, r5, #32
   828ca:	f10e 0e20 	add.w	lr, lr, #32
   828ce:	2a01      	cmp	r2, #1
   828d0:	fa03 fc0e 	lsl.w	ip, r3, lr
   828d4:	bf28      	it	cs
   828d6:	f04c 0c02 	orrcs.w	ip, ip, #2
   828da:	fa43 f305 	asr.w	r3, r3, r5
   828de:	18c0      	adds	r0, r0, r3
   828e0:	eb51 71e3 	adcs.w	r1, r1, r3, asr #31
   828e4:	f001 4500 	and.w	r5, r1, #2147483648	; 0x80000000
   828e8:	d507      	bpl.n	828fa <__adddf3+0xe6>
   828ea:	f04f 0e00 	mov.w	lr, #0
   828ee:	f1dc 0c00 	rsbs	ip, ip, #0
   828f2:	eb7e 0000 	sbcs.w	r0, lr, r0
   828f6:	eb6e 0101 	sbc.w	r1, lr, r1
   828fa:	f5b1 1f80 	cmp.w	r1, #1048576	; 0x100000
   828fe:	d31b      	bcc.n	82938 <__adddf3+0x124>
   82900:	f5b1 1f00 	cmp.w	r1, #2097152	; 0x200000
   82904:	d30c      	bcc.n	82920 <__adddf3+0x10c>
   82906:	0849      	lsrs	r1, r1, #1
   82908:	ea5f 0030 	movs.w	r0, r0, rrx
   8290c:	ea4f 0c3c 	mov.w	ip, ip, rrx
   82910:	f104 0401 	add.w	r4, r4, #1
   82914:	ea4f 5244 	mov.w	r2, r4, lsl #21
   82918:	f512 0f80 	cmn.w	r2, #4194304	; 0x400000
   8291c:	f080 809a 	bcs.w	82a54 <__adddf3+0x240>
   82920:	f1bc 4f00 	cmp.w	ip, #2147483648	; 0x80000000
   82924:	bf08      	it	eq
   82926:	ea5f 0c50 	movseq.w	ip, r0, lsr #1
   8292a:	f150 0000 	adcs.w	r0, r0, #0
   8292e:	eb41 5104 	adc.w	r1, r1, r4, lsl #20
   82932:	ea41 0105 	orr.w	r1, r1, r5
   82936:	bd30      	pop	{r4, r5, pc}
   82938:	ea5f 0c4c 	movs.w	ip, ip, lsl #1
   8293c:	4140      	adcs	r0, r0
   8293e:	eb41 0101 	adc.w	r1, r1, r1
   82942:	f411 1f80 	tst.w	r1, #1048576	; 0x100000
   82946:	f1a4 0401 	sub.w	r4, r4, #1
   8294a:	d1e9      	bne.n	82920 <__adddf3+0x10c>
   8294c:	f091 0f00 	teq	r1, #0
   82950:	bf04      	itt	eq
   82952:	4601      	moveq	r1, r0
   82954:	2000      	moveq	r0, #0
   82956:	fab1 f381 	clz	r3, r1
   8295a:	bf08      	it	eq
   8295c:	3320      	addeq	r3, #32
   8295e:	f1a3 030b 	sub.w	r3, r3, #11
   82962:	f1b3 0220 	subs.w	r2, r3, #32
   82966:	da0c      	bge.n	82982 <__adddf3+0x16e>
   82968:	320c      	adds	r2, #12
   8296a:	dd08      	ble.n	8297e <__adddf3+0x16a>
   8296c:	f102 0c14 	add.w	ip, r2, #20
   82970:	f1c2 020c 	rsb	r2, r2, #12
   82974:	fa01 f00c 	lsl.w	r0, r1, ip
   82978:	fa21 f102 	lsr.w	r1, r1, r2
   8297c:	e00c      	b.n	82998 <__adddf3+0x184>
   8297e:	f102 0214 	add.w	r2, r2, #20
   82982:	bfd8      	it	le
   82984:	f1c2 0c20 	rsble	ip, r2, #32
   82988:	fa01 f102 	lsl.w	r1, r1, r2
   8298c:	fa20 fc0c 	lsr.w	ip, r0, ip
   82990:	bfdc      	itt	le
   82992:	ea41 010c 	orrle.w	r1, r1, ip
   82996:	4090      	lslle	r0, r2
   82998:	1ae4      	subs	r4, r4, r3
   8299a:	bfa2      	ittt	ge
   8299c:	eb01 5104 	addge.w	r1, r1, r4, lsl #20
   829a0:	4329      	orrge	r1, r5
   829a2:	bd30      	popge	{r4, r5, pc}
   829a4:	ea6f 0404 	mvn.w	r4, r4
   829a8:	3c1f      	subs	r4, #31
   829aa:	da1c      	bge.n	829e6 <__adddf3+0x1d2>
   829ac:	340c      	adds	r4, #12
   829ae:	dc0e      	bgt.n	829ce <__adddf3+0x1ba>
   829b0:	f104 0414 	add.w	r4, r4, #20
   829b4:	f1c4 0220 	rsb	r2, r4, #32
   829b8:	fa20 f004 	lsr.w	r0, r0, r4
   829bc:	fa01 f302 	lsl.w	r3, r1, r2
   829c0:	ea40 0003 	orr.w	r0, r0, r3
   829c4:	fa21 f304 	lsr.w	r3, r1, r4
   829c8:	ea45 0103 	orr.w	r1, r5, r3
   829cc:	bd30      	pop	{r4, r5, pc}
   829ce:	f1c4 040c 	rsb	r4, r4, #12
   829d2:	f1c4 0220 	rsb	r2, r4, #32
   829d6:	fa20 f002 	lsr.w	r0, r0, r2
   829da:	fa01 f304 	lsl.w	r3, r1, r4
   829de:	ea40 0003 	orr.w	r0, r0, r3
   829e2:	4629      	mov	r1, r5
   829e4:	bd30      	pop	{r4, r5, pc}
   829e6:	fa21 f004 	lsr.w	r0, r1, r4
   829ea:	4629      	mov	r1, r5
   829ec:	bd30      	pop	{r4, r5, pc}
   829ee:	f094 0f00 	teq	r4, #0
   829f2:	f483 1380 	eor.w	r3, r3, #1048576	; 0x100000
   829f6:	bf06      	itte	eq
   829f8:	f481 1180 	eoreq.w	r1, r1, #1048576	; 0x100000
   829fc:	3401      	addeq	r4, #1
   829fe:	3d01      	subne	r5, #1
   82a00:	e74e      	b.n	828a0 <__adddf3+0x8c>
   82a02:	ea7f 5c64 	mvns.w	ip, r4, asr #21
   82a06:	bf18      	it	ne
   82a08:	ea7f 5c65 	mvnsne.w	ip, r5, asr #21
   82a0c:	d029      	beq.n	82a62 <__adddf3+0x24e>
   82a0e:	ea94 0f05 	teq	r4, r5
   82a12:	bf08      	it	eq
   82a14:	ea90 0f02 	teqeq	r0, r2
   82a18:	d005      	beq.n	82a26 <__adddf3+0x212>
   82a1a:	ea54 0c00 	orrs.w	ip, r4, r0
   82a1e:	bf04      	itt	eq
   82a20:	4619      	moveq	r1, r3
   82a22:	4610      	moveq	r0, r2
   82a24:	bd30      	pop	{r4, r5, pc}
   82a26:	ea91 0f03 	teq	r1, r3
   82a2a:	bf1e      	ittt	ne
   82a2c:	2100      	movne	r1, #0
   82a2e:	2000      	movne	r0, #0
   82a30:	bd30      	popne	{r4, r5, pc}
   82a32:	ea5f 5c54 	movs.w	ip, r4, lsr #21
   82a36:	d105      	bne.n	82a44 <__adddf3+0x230>
   82a38:	0040      	lsls	r0, r0, #1
   82a3a:	4149      	adcs	r1, r1
   82a3c:	bf28      	it	cs
   82a3e:	f041 4100 	orrcs.w	r1, r1, #2147483648	; 0x80000000
   82a42:	bd30      	pop	{r4, r5, pc}
   82a44:	f514 0480 	adds.w	r4, r4, #4194304	; 0x400000
   82a48:	bf3c      	itt	cc
   82a4a:	f501 1180 	addcc.w	r1, r1, #1048576	; 0x100000
   82a4e:	bd30      	popcc	{r4, r5, pc}
   82a50:	f001 4500 	and.w	r5, r1, #2147483648	; 0x80000000
   82a54:	f045 41fe 	orr.w	r1, r5, #2130706432	; 0x7f000000
   82a58:	f441 0170 	orr.w	r1, r1, #15728640	; 0xf00000
   82a5c:	f04f 0000 	mov.w	r0, #0
   82a60:	bd30      	pop	{r4, r5, pc}
   82a62:	ea7f 5c64 	mvns.w	ip, r4, asr #21
   82a66:	bf1a      	itte	ne
   82a68:	4619      	movne	r1, r3
   82a6a:	4610      	movne	r0, r2
   82a6c:	ea7f 5c65 	mvnseq.w	ip, r5, asr #21
   82a70:	bf1c      	itt	ne
   82a72:	460b      	movne	r3, r1
   82a74:	4602      	movne	r2, r0
   82a76:	ea50 3401 	orrs.w	r4, r0, r1, lsl #12
   82a7a:	bf06      	itte	eq
   82a7c:	ea52 3503 	orrseq.w	r5, r2, r3, lsl #12
   82a80:	ea91 0f03 	teqeq	r1, r3
   82a84:	f441 2100 	orrne.w	r1, r1, #524288	; 0x80000
   82a88:	bd30      	pop	{r4, r5, pc}
   82a8a:	bf00      	nop

00082a8c <__aeabi_ui2d>:
   82a8c:	f090 0f00 	teq	r0, #0
   82a90:	bf04      	itt	eq
   82a92:	2100      	moveq	r1, #0
   82a94:	4770      	bxeq	lr
   82a96:	b530      	push	{r4, r5, lr}
   82a98:	f44f 6480 	mov.w	r4, #1024	; 0x400
   82a9c:	f104 0432 	add.w	r4, r4, #50	; 0x32
   82aa0:	f04f 0500 	mov.w	r5, #0
   82aa4:	f04f 0100 	mov.w	r1, #0
   82aa8:	e750      	b.n	8294c <__adddf3+0x138>
   82aaa:	bf00      	nop

00082aac <__aeabi_i2d>:
   82aac:	f090 0f00 	teq	r0, #0
   82ab0:	bf04      	itt	eq
   82ab2:	2100      	moveq	r1, #0
   82ab4:	4770      	bxeq	lr
   82ab6:	b530      	push	{r4, r5, lr}
   82ab8:	f44f 6480 	mov.w	r4, #1024	; 0x400
   82abc:	f104 0432 	add.w	r4, r4, #50	; 0x32
   82ac0:	f010 4500 	ands.w	r5, r0, #2147483648	; 0x80000000
   82ac4:	bf48      	it	mi
   82ac6:	4240      	negmi	r0, r0
   82ac8:	f04f 0100 	mov.w	r1, #0
   82acc:	e73e      	b.n	8294c <__adddf3+0x138>
   82ace:	bf00      	nop

00082ad0 <__aeabi_f2d>:
   82ad0:	0042      	lsls	r2, r0, #1
   82ad2:	ea4f 01e2 	mov.w	r1, r2, asr #3
   82ad6:	ea4f 0131 	mov.w	r1, r1, rrx
   82ada:	ea4f 7002 	mov.w	r0, r2, lsl #28
   82ade:	bf1f      	itttt	ne
   82ae0:	f012 437f 	andsne.w	r3, r2, #4278190080	; 0xff000000
   82ae4:	f093 4f7f 	teqne	r3, #4278190080	; 0xff000000
   82ae8:	f081 5160 	eorne.w	r1, r1, #939524096	; 0x38000000
   82aec:	4770      	bxne	lr
   82aee:	f092 0f00 	teq	r2, #0
   82af2:	bf14      	ite	ne
   82af4:	f093 4f7f 	teqne	r3, #4278190080	; 0xff000000
   82af8:	4770      	bxeq	lr
   82afa:	b530      	push	{r4, r5, lr}
   82afc:	f44f 7460 	mov.w	r4, #896	; 0x380
   82b00:	f001 4500 	and.w	r5, r1, #2147483648	; 0x80000000
   82b04:	f021 4100 	bic.w	r1, r1, #2147483648	; 0x80000000
   82b08:	e720      	b.n	8294c <__adddf3+0x138>
   82b0a:	bf00      	nop

00082b0c <__aeabi_ul2d>:
   82b0c:	ea50 0201 	orrs.w	r2, r0, r1
   82b10:	bf08      	it	eq
   82b12:	4770      	bxeq	lr
   82b14:	b530      	push	{r4, r5, lr}
   82b16:	f04f 0500 	mov.w	r5, #0
   82b1a:	e00a      	b.n	82b32 <__aeabi_l2d+0x16>

00082b1c <__aeabi_l2d>:
   82b1c:	ea50 0201 	orrs.w	r2, r0, r1
   82b20:	bf08      	it	eq
   82b22:	4770      	bxeq	lr
   82b24:	b530      	push	{r4, r5, lr}
   82b26:	f011 4500 	ands.w	r5, r1, #2147483648	; 0x80000000
   82b2a:	d502      	bpl.n	82b32 <__aeabi_l2d+0x16>
   82b2c:	4240      	negs	r0, r0
   82b2e:	eb61 0141 	sbc.w	r1, r1, r1, lsl #1
   82b32:	f44f 6480 	mov.w	r4, #1024	; 0x400
   82b36:	f104 0432 	add.w	r4, r4, #50	; 0x32
   82b3a:	ea5f 5c91 	movs.w	ip, r1, lsr #22
   82b3e:	f43f aedc 	beq.w	828fa <__adddf3+0xe6>
   82b42:	f04f 0203 	mov.w	r2, #3
   82b46:	ea5f 0cdc 	movs.w	ip, ip, lsr #3
   82b4a:	bf18      	it	ne
   82b4c:	3203      	addne	r2, #3
   82b4e:	ea5f 0cdc 	movs.w	ip, ip, lsr #3
   82b52:	bf18      	it	ne
   82b54:	3203      	addne	r2, #3
   82b56:	eb02 02dc 	add.w	r2, r2, ip, lsr #3
   82b5a:	f1c2 0320 	rsb	r3, r2, #32
   82b5e:	fa00 fc03 	lsl.w	ip, r0, r3
   82b62:	fa20 f002 	lsr.w	r0, r0, r2
   82b66:	fa01 fe03 	lsl.w	lr, r1, r3
   82b6a:	ea40 000e 	orr.w	r0, r0, lr
   82b6e:	fa21 f102 	lsr.w	r1, r1, r2
   82b72:	4414      	add	r4, r2
   82b74:	e6c1      	b.n	828fa <__adddf3+0xe6>
   82b76:	bf00      	nop

00082b78 <__aeabi_dmul>:
   82b78:	b570      	push	{r4, r5, r6, lr}
   82b7a:	f04f 0cff 	mov.w	ip, #255	; 0xff
   82b7e:	f44c 6ce0 	orr.w	ip, ip, #1792	; 0x700
   82b82:	ea1c 5411 	ands.w	r4, ip, r1, lsr #20
   82b86:	bf1d      	ittte	ne
   82b88:	ea1c 5513 	andsne.w	r5, ip, r3, lsr #20
   82b8c:	ea94 0f0c 	teqne	r4, ip
   82b90:	ea95 0f0c 	teqne	r5, ip
   82b94:	f000 f8de 	bleq	82d54 <__aeabi_dmul+0x1dc>
   82b98:	442c      	add	r4, r5
   82b9a:	ea81 0603 	eor.w	r6, r1, r3
   82b9e:	ea21 514c 	bic.w	r1, r1, ip, lsl #21
   82ba2:	ea23 534c 	bic.w	r3, r3, ip, lsl #21
   82ba6:	ea50 3501 	orrs.w	r5, r0, r1, lsl #12
   82baa:	bf18      	it	ne
   82bac:	ea52 3503 	orrsne.w	r5, r2, r3, lsl #12
   82bb0:	f441 1180 	orr.w	r1, r1, #1048576	; 0x100000
   82bb4:	f443 1380 	orr.w	r3, r3, #1048576	; 0x100000
   82bb8:	d038      	beq.n	82c2c <__aeabi_dmul+0xb4>
   82bba:	fba0 ce02 	umull	ip, lr, r0, r2
   82bbe:	f04f 0500 	mov.w	r5, #0
   82bc2:	fbe1 e502 	umlal	lr, r5, r1, r2
   82bc6:	f006 4200 	and.w	r2, r6, #2147483648	; 0x80000000
   82bca:	fbe0 e503 	umlal	lr, r5, r0, r3
   82bce:	f04f 0600 	mov.w	r6, #0
   82bd2:	fbe1 5603 	umlal	r5, r6, r1, r3
   82bd6:	f09c 0f00 	teq	ip, #0
   82bda:	bf18      	it	ne
   82bdc:	f04e 0e01 	orrne.w	lr, lr, #1
   82be0:	f1a4 04ff 	sub.w	r4, r4, #255	; 0xff
   82be4:	f5b6 7f00 	cmp.w	r6, #512	; 0x200
   82be8:	f564 7440 	sbc.w	r4, r4, #768	; 0x300
   82bec:	d204      	bcs.n	82bf8 <__aeabi_dmul+0x80>
   82bee:	ea5f 0e4e 	movs.w	lr, lr, lsl #1
   82bf2:	416d      	adcs	r5, r5
   82bf4:	eb46 0606 	adc.w	r6, r6, r6
   82bf8:	ea42 21c6 	orr.w	r1, r2, r6, lsl #11
   82bfc:	ea41 5155 	orr.w	r1, r1, r5, lsr #21
   82c00:	ea4f 20c5 	mov.w	r0, r5, lsl #11
   82c04:	ea40 505e 	orr.w	r0, r0, lr, lsr #21
   82c08:	ea4f 2ece 	mov.w	lr, lr, lsl #11
   82c0c:	f1b4 0cfd 	subs.w	ip, r4, #253	; 0xfd
   82c10:	bf88      	it	hi
   82c12:	f5bc 6fe0 	cmphi.w	ip, #1792	; 0x700
   82c16:	d81e      	bhi.n	82c56 <__aeabi_dmul+0xde>
   82c18:	f1be 4f00 	cmp.w	lr, #2147483648	; 0x80000000
   82c1c:	bf08      	it	eq
   82c1e:	ea5f 0e50 	movseq.w	lr, r0, lsr #1
   82c22:	f150 0000 	adcs.w	r0, r0, #0
   82c26:	eb41 5104 	adc.w	r1, r1, r4, lsl #20
   82c2a:	bd70      	pop	{r4, r5, r6, pc}
   82c2c:	f006 4600 	and.w	r6, r6, #2147483648	; 0x80000000
   82c30:	ea46 0101 	orr.w	r1, r6, r1
   82c34:	ea40 0002 	orr.w	r0, r0, r2
   82c38:	ea81 0103 	eor.w	r1, r1, r3
   82c3c:	ebb4 045c 	subs.w	r4, r4, ip, lsr #1
   82c40:	bfc2      	ittt	gt
   82c42:	ebd4 050c 	rsbsgt	r5, r4, ip
   82c46:	ea41 5104 	orrgt.w	r1, r1, r4, lsl #20
   82c4a:	bd70      	popgt	{r4, r5, r6, pc}
   82c4c:	f441 1180 	orr.w	r1, r1, #1048576	; 0x100000
   82c50:	f04f 0e00 	mov.w	lr, #0
   82c54:	3c01      	subs	r4, #1
   82c56:	f300 80ab 	bgt.w	82db0 <__aeabi_dmul+0x238>
   82c5a:	f114 0f36 	cmn.w	r4, #54	; 0x36
   82c5e:	bfde      	ittt	le
   82c60:	2000      	movle	r0, #0
   82c62:	f001 4100 	andle.w	r1, r1, #2147483648	; 0x80000000
   82c66:	bd70      	pople	{r4, r5, r6, pc}
   82c68:	f1c4 0400 	rsb	r4, r4, #0
   82c6c:	3c20      	subs	r4, #32
   82c6e:	da35      	bge.n	82cdc <__aeabi_dmul+0x164>
   82c70:	340c      	adds	r4, #12
   82c72:	dc1b      	bgt.n	82cac <__aeabi_dmul+0x134>
   82c74:	f104 0414 	add.w	r4, r4, #20
   82c78:	f1c4 0520 	rsb	r5, r4, #32
   82c7c:	fa00 f305 	lsl.w	r3, r0, r5
   82c80:	fa20 f004 	lsr.w	r0, r0, r4
   82c84:	fa01 f205 	lsl.w	r2, r1, r5
   82c88:	ea40 0002 	orr.w	r0, r0, r2
   82c8c:	f001 4200 	and.w	r2, r1, #2147483648	; 0x80000000
   82c90:	f021 4100 	bic.w	r1, r1, #2147483648	; 0x80000000
   82c94:	eb10 70d3 	adds.w	r0, r0, r3, lsr #31
   82c98:	fa21 f604 	lsr.w	r6, r1, r4
   82c9c:	eb42 0106 	adc.w	r1, r2, r6
   82ca0:	ea5e 0e43 	orrs.w	lr, lr, r3, lsl #1
   82ca4:	bf08      	it	eq
   82ca6:	ea20 70d3 	biceq.w	r0, r0, r3, lsr #31
   82caa:	bd70      	pop	{r4, r5, r6, pc}
   82cac:	f1c4 040c 	rsb	r4, r4, #12
   82cb0:	f1c4 0520 	rsb	r5, r4, #32
   82cb4:	fa00 f304 	lsl.w	r3, r0, r4
   82cb8:	fa20 f005 	lsr.w	r0, r0, r5
   82cbc:	fa01 f204 	lsl.w	r2, r1, r4
   82cc0:	ea40 0002 	orr.w	r0, r0, r2
   82cc4:	f001 4100 	and.w	r1, r1, #2147483648	; 0x80000000
   82cc8:	eb10 70d3 	adds.w	r0, r0, r3, lsr #31
   82ccc:	f141 0100 	adc.w	r1, r1, #0
   82cd0:	ea5e 0e43 	orrs.w	lr, lr, r3, lsl #1
   82cd4:	bf08      	it	eq
   82cd6:	ea20 70d3 	biceq.w	r0, r0, r3, lsr #31
   82cda:	bd70      	pop	{r4, r5, r6, pc}
   82cdc:	f1c4 0520 	rsb	r5, r4, #32
   82ce0:	fa00 f205 	lsl.w	r2, r0, r5
   82ce4:	ea4e 0e02 	orr.w	lr, lr, r2
   82ce8:	fa20 f304 	lsr.w	r3, r0, r4
   82cec:	fa01 f205 	lsl.w	r2, r1, r5
   82cf0:	ea43 0302 	orr.w	r3, r3, r2
   82cf4:	fa21 f004 	lsr.w	r0, r1, r4
   82cf8:	f001 4100 	and.w	r1, r1, #2147483648	; 0x80000000
   82cfc:	fa21 f204 	lsr.w	r2, r1, r4
   82d00:	ea20 0002 	bic.w	r0, r0, r2
   82d04:	eb00 70d3 	add.w	r0, r0, r3, lsr #31
   82d08:	ea5e 0e43 	orrs.w	lr, lr, r3, lsl #1
   82d0c:	bf08      	it	eq
   82d0e:	ea20 70d3 	biceq.w	r0, r0, r3, lsr #31
   82d12:	bd70      	pop	{r4, r5, r6, pc}
   82d14:	f094 0f00 	teq	r4, #0
   82d18:	d10f      	bne.n	82d3a <__aeabi_dmul+0x1c2>
   82d1a:	f001 4600 	and.w	r6, r1, #2147483648	; 0x80000000
   82d1e:	0040      	lsls	r0, r0, #1
   82d20:	eb41 0101 	adc.w	r1, r1, r1
   82d24:	f411 1f80 	tst.w	r1, #1048576	; 0x100000
   82d28:	bf08      	it	eq
   82d2a:	3c01      	subeq	r4, #1
   82d2c:	d0f7      	beq.n	82d1e <__aeabi_dmul+0x1a6>
   82d2e:	ea41 0106 	orr.w	r1, r1, r6
   82d32:	f095 0f00 	teq	r5, #0
   82d36:	bf18      	it	ne
   82d38:	4770      	bxne	lr
   82d3a:	f003 4600 	and.w	r6, r3, #2147483648	; 0x80000000
   82d3e:	0052      	lsls	r2, r2, #1
   82d40:	eb43 0303 	adc.w	r3, r3, r3
   82d44:	f413 1f80 	tst.w	r3, #1048576	; 0x100000
   82d48:	bf08      	it	eq
   82d4a:	3d01      	subeq	r5, #1
   82d4c:	d0f7      	beq.n	82d3e <__aeabi_dmul+0x1c6>
   82d4e:	ea43 0306 	orr.w	r3, r3, r6
   82d52:	4770      	bx	lr
   82d54:	ea94 0f0c 	teq	r4, ip
   82d58:	ea0c 5513 	and.w	r5, ip, r3, lsr #20
   82d5c:	bf18      	it	ne
   82d5e:	ea95 0f0c 	teqne	r5, ip
   82d62:	d00c      	beq.n	82d7e <__aeabi_dmul+0x206>
   82d64:	ea50 0641 	orrs.w	r6, r0, r1, lsl #1
   82d68:	bf18      	it	ne
   82d6a:	ea52 0643 	orrsne.w	r6, r2, r3, lsl #1
   82d6e:	d1d1      	bne.n	82d14 <__aeabi_dmul+0x19c>
   82d70:	ea81 0103 	eor.w	r1, r1, r3
   82d74:	f001 4100 	and.w	r1, r1, #2147483648	; 0x80000000
   82d78:	f04f 0000 	mov.w	r0, #0
   82d7c:	bd70      	pop	{r4, r5, r6, pc}
   82d7e:	ea50 0641 	orrs.w	r6, r0, r1, lsl #1
   82d82:	bf06      	itte	eq
   82d84:	4610      	moveq	r0, r2
   82d86:	4619      	moveq	r1, r3
   82d88:	ea52 0643 	orrsne.w	r6, r2, r3, lsl #1
   82d8c:	d019      	beq.n	82dc2 <__aeabi_dmul+0x24a>
   82d8e:	ea94 0f0c 	teq	r4, ip
   82d92:	d102      	bne.n	82d9a <__aeabi_dmul+0x222>
   82d94:	ea50 3601 	orrs.w	r6, r0, r1, lsl #12
   82d98:	d113      	bne.n	82dc2 <__aeabi_dmul+0x24a>
   82d9a:	ea95 0f0c 	teq	r5, ip
   82d9e:	d105      	bne.n	82dac <__aeabi_dmul+0x234>
   82da0:	ea52 3603 	orrs.w	r6, r2, r3, lsl #12
   82da4:	bf1c      	itt	ne
   82da6:	4610      	movne	r0, r2
   82da8:	4619      	movne	r1, r3
   82daa:	d10a      	bne.n	82dc2 <__aeabi_dmul+0x24a>
   82dac:	ea81 0103 	eor.w	r1, r1, r3
   82db0:	f001 4100 	and.w	r1, r1, #2147483648	; 0x80000000
   82db4:	f041 41fe 	orr.w	r1, r1, #2130706432	; 0x7f000000
   82db8:	f441 0170 	orr.w	r1, r1, #15728640	; 0xf00000
   82dbc:	f04f 0000 	mov.w	r0, #0
   82dc0:	bd70      	pop	{r4, r5, r6, pc}
   82dc2:	f041 41fe 	orr.w	r1, r1, #2130706432	; 0x7f000000
   82dc6:	f441 0178 	orr.w	r1, r1, #16252928	; 0xf80000
   82dca:	bd70      	pop	{r4, r5, r6, pc}

00082dcc <__aeabi_ddiv>:
   82dcc:	b570      	push	{r4, r5, r6, lr}
   82dce:	f04f 0cff 	mov.w	ip, #255	; 0xff
   82dd2:	f44c 6ce0 	orr.w	ip, ip, #1792	; 0x700
   82dd6:	ea1c 5411 	ands.w	r4, ip, r1, lsr #20
   82dda:	bf1d      	ittte	ne
   82ddc:	ea1c 5513 	andsne.w	r5, ip, r3, lsr #20
   82de0:	ea94 0f0c 	teqne	r4, ip
   82de4:	ea95 0f0c 	teqne	r5, ip
   82de8:	f000 f8a7 	bleq	82f3a <__aeabi_ddiv+0x16e>
   82dec:	eba4 0405 	sub.w	r4, r4, r5
   82df0:	ea81 0e03 	eor.w	lr, r1, r3
   82df4:	ea52 3503 	orrs.w	r5, r2, r3, lsl #12
   82df8:	ea4f 3101 	mov.w	r1, r1, lsl #12
   82dfc:	f000 8088 	beq.w	82f10 <__aeabi_ddiv+0x144>
   82e00:	ea4f 3303 	mov.w	r3, r3, lsl #12
   82e04:	f04f 5580 	mov.w	r5, #268435456	; 0x10000000
   82e08:	ea45 1313 	orr.w	r3, r5, r3, lsr #4
   82e0c:	ea43 6312 	orr.w	r3, r3, r2, lsr #24
   82e10:	ea4f 2202 	mov.w	r2, r2, lsl #8
   82e14:	ea45 1511 	orr.w	r5, r5, r1, lsr #4
   82e18:	ea45 6510 	orr.w	r5, r5, r0, lsr #24
   82e1c:	ea4f 2600 	mov.w	r6, r0, lsl #8
   82e20:	f00e 4100 	and.w	r1, lr, #2147483648	; 0x80000000
   82e24:	429d      	cmp	r5, r3
   82e26:	bf08      	it	eq
   82e28:	4296      	cmpeq	r6, r2
   82e2a:	f144 04fd 	adc.w	r4, r4, #253	; 0xfd
   82e2e:	f504 7440 	add.w	r4, r4, #768	; 0x300
   82e32:	d202      	bcs.n	82e3a <__aeabi_ddiv+0x6e>
   82e34:	085b      	lsrs	r3, r3, #1
   82e36:	ea4f 0232 	mov.w	r2, r2, rrx
   82e3a:	1ab6      	subs	r6, r6, r2
   82e3c:	eb65 0503 	sbc.w	r5, r5, r3
   82e40:	085b      	lsrs	r3, r3, #1
   82e42:	ea4f 0232 	mov.w	r2, r2, rrx
   82e46:	f44f 1080 	mov.w	r0, #1048576	; 0x100000
   82e4a:	f44f 2c00 	mov.w	ip, #524288	; 0x80000
   82e4e:	ebb6 0e02 	subs.w	lr, r6, r2
   82e52:	eb75 0e03 	sbcs.w	lr, r5, r3
   82e56:	bf22      	ittt	cs
   82e58:	1ab6      	subcs	r6, r6, r2
   82e5a:	4675      	movcs	r5, lr
   82e5c:	ea40 000c 	orrcs.w	r0, r0, ip
   82e60:	085b      	lsrs	r3, r3, #1
   82e62:	ea4f 0232 	mov.w	r2, r2, rrx
   82e66:	ebb6 0e02 	subs.w	lr, r6, r2
   82e6a:	eb75 0e03 	sbcs.w	lr, r5, r3
   82e6e:	bf22      	ittt	cs
   82e70:	1ab6      	subcs	r6, r6, r2
   82e72:	4675      	movcs	r5, lr
   82e74:	ea40 005c 	orrcs.w	r0, r0, ip, lsr #1
   82e78:	085b      	lsrs	r3, r3, #1
   82e7a:	ea4f 0232 	mov.w	r2, r2, rrx
   82e7e:	ebb6 0e02 	subs.w	lr, r6, r2
   82e82:	eb75 0e03 	sbcs.w	lr, r5, r3
   82e86:	bf22      	ittt	cs
   82e88:	1ab6      	subcs	r6, r6, r2
   82e8a:	4675      	movcs	r5, lr
   82e8c:	ea40 009c 	orrcs.w	r0, r0, ip, lsr #2
   82e90:	085b      	lsrs	r3, r3, #1
   82e92:	ea4f 0232 	mov.w	r2, r2, rrx
   82e96:	ebb6 0e02 	subs.w	lr, r6, r2
   82e9a:	eb75 0e03 	sbcs.w	lr, r5, r3
   82e9e:	bf22      	ittt	cs
   82ea0:	1ab6      	subcs	r6, r6, r2
   82ea2:	4675      	movcs	r5, lr
   82ea4:	ea40 00dc 	orrcs.w	r0, r0, ip, lsr #3
   82ea8:	ea55 0e06 	orrs.w	lr, r5, r6
   82eac:	d018      	beq.n	82ee0 <__aeabi_ddiv+0x114>
   82eae:	ea4f 1505 	mov.w	r5, r5, lsl #4
   82eb2:	ea45 7516 	orr.w	r5, r5, r6, lsr #28
   82eb6:	ea4f 1606 	mov.w	r6, r6, lsl #4
   82eba:	ea4f 03c3 	mov.w	r3, r3, lsl #3
   82ebe:	ea43 7352 	orr.w	r3, r3, r2, lsr #29
   82ec2:	ea4f 02c2 	mov.w	r2, r2, lsl #3
   82ec6:	ea5f 1c1c 	movs.w	ip, ip, lsr #4
   82eca:	d1c0      	bne.n	82e4e <__aeabi_ddiv+0x82>
   82ecc:	f411 1f80 	tst.w	r1, #1048576	; 0x100000
   82ed0:	d10b      	bne.n	82eea <__aeabi_ddiv+0x11e>
   82ed2:	ea41 0100 	orr.w	r1, r1, r0
   82ed6:	f04f 0000 	mov.w	r0, #0
   82eda:	f04f 4c00 	mov.w	ip, #2147483648	; 0x80000000
   82ede:	e7b6      	b.n	82e4e <__aeabi_ddiv+0x82>
   82ee0:	f411 1f80 	tst.w	r1, #1048576	; 0x100000
   82ee4:	bf04      	itt	eq
   82ee6:	4301      	orreq	r1, r0
   82ee8:	2000      	moveq	r0, #0
   82eea:	f1b4 0cfd 	subs.w	ip, r4, #253	; 0xfd
   82eee:	bf88      	it	hi
   82ef0:	f5bc 6fe0 	cmphi.w	ip, #1792	; 0x700
   82ef4:	f63f aeaf 	bhi.w	82c56 <__aeabi_dmul+0xde>
   82ef8:	ebb5 0c03 	subs.w	ip, r5, r3
   82efc:	bf04      	itt	eq
   82efe:	ebb6 0c02 	subseq.w	ip, r6, r2
   82f02:	ea5f 0c50 	movseq.w	ip, r0, lsr #1
   82f06:	f150 0000 	adcs.w	r0, r0, #0
   82f0a:	eb41 5104 	adc.w	r1, r1, r4, lsl #20
   82f0e:	bd70      	pop	{r4, r5, r6, pc}
   82f10:	f00e 4e00 	and.w	lr, lr, #2147483648	; 0x80000000
   82f14:	ea4e 3111 	orr.w	r1, lr, r1, lsr #12
   82f18:	eb14 045c 	adds.w	r4, r4, ip, lsr #1
   82f1c:	bfc2      	ittt	gt
   82f1e:	ebd4 050c 	rsbsgt	r5, r4, ip
   82f22:	ea41 5104 	orrgt.w	r1, r1, r4, lsl #20
   82f26:	bd70      	popgt	{r4, r5, r6, pc}
   82f28:	f441 1180 	orr.w	r1, r1, #1048576	; 0x100000
   82f2c:	f04f 0e00 	mov.w	lr, #0
   82f30:	3c01      	subs	r4, #1
   82f32:	e690      	b.n	82c56 <__aeabi_dmul+0xde>
   82f34:	ea45 0e06 	orr.w	lr, r5, r6
   82f38:	e68d      	b.n	82c56 <__aeabi_dmul+0xde>
   82f3a:	ea0c 5513 	and.w	r5, ip, r3, lsr #20
   82f3e:	ea94 0f0c 	teq	r4, ip
   82f42:	bf08      	it	eq
   82f44:	ea95 0f0c 	teqeq	r5, ip
   82f48:	f43f af3b 	beq.w	82dc2 <__aeabi_dmul+0x24a>
   82f4c:	ea94 0f0c 	teq	r4, ip
   82f50:	d10a      	bne.n	82f68 <__aeabi_ddiv+0x19c>
   82f52:	ea50 3401 	orrs.w	r4, r0, r1, lsl #12
   82f56:	f47f af34 	bne.w	82dc2 <__aeabi_dmul+0x24a>
   82f5a:	ea95 0f0c 	teq	r5, ip
   82f5e:	f47f af25 	bne.w	82dac <__aeabi_dmul+0x234>
   82f62:	4610      	mov	r0, r2
   82f64:	4619      	mov	r1, r3
   82f66:	e72c      	b.n	82dc2 <__aeabi_dmul+0x24a>
   82f68:	ea95 0f0c 	teq	r5, ip
   82f6c:	d106      	bne.n	82f7c <__aeabi_ddiv+0x1b0>
   82f6e:	ea52 3503 	orrs.w	r5, r2, r3, lsl #12
   82f72:	f43f aefd 	beq.w	82d70 <__aeabi_dmul+0x1f8>
   82f76:	4610      	mov	r0, r2
   82f78:	4619      	mov	r1, r3
   82f7a:	e722      	b.n	82dc2 <__aeabi_dmul+0x24a>
   82f7c:	ea50 0641 	orrs.w	r6, r0, r1, lsl #1
   82f80:	bf18      	it	ne
   82f82:	ea52 0643 	orrsne.w	r6, r2, r3, lsl #1
   82f86:	f47f aec5 	bne.w	82d14 <__aeabi_dmul+0x19c>
   82f8a:	ea50 0441 	orrs.w	r4, r0, r1, lsl #1
   82f8e:	f47f af0d 	bne.w	82dac <__aeabi_dmul+0x234>
   82f92:	ea52 0543 	orrs.w	r5, r2, r3, lsl #1
   82f96:	f47f aeeb 	bne.w	82d70 <__aeabi_dmul+0x1f8>
   82f9a:	e712      	b.n	82dc2 <__aeabi_dmul+0x24a>

00082f9c <__aeabi_d2uiz>:
   82f9c:	004a      	lsls	r2, r1, #1
   82f9e:	d211      	bcs.n	82fc4 <__aeabi_d2uiz+0x28>
   82fa0:	f512 1200 	adds.w	r2, r2, #2097152	; 0x200000
   82fa4:	d211      	bcs.n	82fca <__aeabi_d2uiz+0x2e>
   82fa6:	d50d      	bpl.n	82fc4 <__aeabi_d2uiz+0x28>
   82fa8:	f46f 7378 	mvn.w	r3, #992	; 0x3e0
   82fac:	ebb3 5262 	subs.w	r2, r3, r2, asr #21
   82fb0:	d40e      	bmi.n	82fd0 <__aeabi_d2uiz+0x34>
   82fb2:	ea4f 23c1 	mov.w	r3, r1, lsl #11
   82fb6:	f043 4300 	orr.w	r3, r3, #2147483648	; 0x80000000
   82fba:	ea43 5350 	orr.w	r3, r3, r0, lsr #21
   82fbe:	fa23 f002 	lsr.w	r0, r3, r2
   82fc2:	4770      	bx	lr
   82fc4:	f04f 0000 	mov.w	r0, #0
   82fc8:	4770      	bx	lr
   82fca:	ea50 3001 	orrs.w	r0, r0, r1, lsl #12
   82fce:	d102      	bne.n	82fd6 <__aeabi_d2uiz+0x3a>
   82fd0:	f04f 30ff 	mov.w	r0, #4294967295
   82fd4:	4770      	bx	lr
   82fd6:	f04f 0000 	mov.w	r0, #0
   82fda:	4770      	bx	lr

00082fdc <__libc_init_array>:
   82fdc:	b570      	push	{r4, r5, r6, lr}
   82fde:	4e0f      	ldr	r6, [pc, #60]	; (8301c <__libc_init_array+0x40>)
   82fe0:	4d0f      	ldr	r5, [pc, #60]	; (83020 <__libc_init_array+0x44>)
   82fe2:	1b76      	subs	r6, r6, r5
   82fe4:	10b6      	asrs	r6, r6, #2
   82fe6:	bf18      	it	ne
   82fe8:	2400      	movne	r4, #0
   82fea:	d005      	beq.n	82ff8 <__libc_init_array+0x1c>
   82fec:	3401      	adds	r4, #1
   82fee:	f855 3b04 	ldr.w	r3, [r5], #4
   82ff2:	4798      	blx	r3
   82ff4:	42a6      	cmp	r6, r4
   82ff6:	d1f9      	bne.n	82fec <__libc_init_array+0x10>
   82ff8:	4e0a      	ldr	r6, [pc, #40]	; (83024 <__libc_init_array+0x48>)
   82ffa:	4d0b      	ldr	r5, [pc, #44]	; (83028 <__libc_init_array+0x4c>)
   82ffc:	f000 fcd8 	bl	839b0 <_init>
   83000:	1b76      	subs	r6, r6, r5
   83002:	10b6      	asrs	r6, r6, #2
   83004:	bf18      	it	ne
   83006:	2400      	movne	r4, #0
   83008:	d006      	beq.n	83018 <__libc_init_array+0x3c>
   8300a:	3401      	adds	r4, #1
   8300c:	f855 3b04 	ldr.w	r3, [r5], #4
   83010:	4798      	blx	r3
   83012:	42a6      	cmp	r6, r4
   83014:	d1f9      	bne.n	8300a <__libc_init_array+0x2e>
   83016:	bd70      	pop	{r4, r5, r6, pc}
   83018:	bd70      	pop	{r4, r5, r6, pc}
   8301a:	bf00      	nop
   8301c:	000839bc 	.word	0x000839bc
   83020:	000839bc 	.word	0x000839bc
   83024:	000839c4 	.word	0x000839c4
   83028:	000839bc 	.word	0x000839bc

0008302c <malloc>:
   8302c:	4b02      	ldr	r3, [pc, #8]	; (83038 <malloc+0xc>)
   8302e:	4601      	mov	r1, r0
   83030:	6818      	ldr	r0, [r3, #0]
   83032:	f000 b803 	b.w	8303c <_malloc_r>
   83036:	bf00      	nop
   83038:	20070558 	.word	0x20070558

0008303c <_malloc_r>:
   8303c:	e92d 4ff0 	stmdb	sp!, {r4, r5, r6, r7, r8, r9, sl, fp, lr}
   83040:	f101 050b 	add.w	r5, r1, #11
   83044:	2d16      	cmp	r5, #22
   83046:	b083      	sub	sp, #12
   83048:	4606      	mov	r6, r0
   8304a:	f240 80a0 	bls.w	8318e <_malloc_r+0x152>
   8304e:	f035 0507 	bics.w	r5, r5, #7
   83052:	f100 80c0 	bmi.w	831d6 <_malloc_r+0x19a>
   83056:	42a9      	cmp	r1, r5
   83058:	f200 80bd 	bhi.w	831d6 <_malloc_r+0x19a>
   8305c:	f000 fa9a 	bl	83594 <__malloc_lock>
   83060:	f5b5 7ffc 	cmp.w	r5, #504	; 0x1f8
   83064:	f0c0 8290 	bcc.w	83588 <_malloc_r+0x54c>
   83068:	0a6b      	lsrs	r3, r5, #9
   8306a:	f000 80bb 	beq.w	831e4 <_malloc_r+0x1a8>
   8306e:	2b04      	cmp	r3, #4
   83070:	f200 8177 	bhi.w	83362 <_malloc_r+0x326>
   83074:	09a8      	lsrs	r0, r5, #6
   83076:	f100 0e39 	add.w	lr, r0, #57	; 0x39
   8307a:	ea4f 014e 	mov.w	r1, lr, lsl #1
   8307e:	3038      	adds	r0, #56	; 0x38
   83080:	4fbe      	ldr	r7, [pc, #760]	; (8337c <_malloc_r+0x340>)
   83082:	eb07 0181 	add.w	r1, r7, r1, lsl #2
   83086:	684c      	ldr	r4, [r1, #4]
   83088:	3908      	subs	r1, #8
   8308a:	42a1      	cmp	r1, r4
   8308c:	d107      	bne.n	8309e <_malloc_r+0x62>
   8308e:	e0ae      	b.n	831ee <_malloc_r+0x1b2>
   83090:	2a00      	cmp	r2, #0
   83092:	f280 80ae 	bge.w	831f2 <_malloc_r+0x1b6>
   83096:	68e4      	ldr	r4, [r4, #12]
   83098:	42a1      	cmp	r1, r4
   8309a:	f000 80a8 	beq.w	831ee <_malloc_r+0x1b2>
   8309e:	6863      	ldr	r3, [r4, #4]
   830a0:	f023 0303 	bic.w	r3, r3, #3
   830a4:	1b5a      	subs	r2, r3, r5
   830a6:	2a0f      	cmp	r2, #15
   830a8:	ddf2      	ble.n	83090 <_malloc_r+0x54>
   830aa:	49b4      	ldr	r1, [pc, #720]	; (8337c <_malloc_r+0x340>)
   830ac:	693c      	ldr	r4, [r7, #16]
   830ae:	f101 0e08 	add.w	lr, r1, #8
   830b2:	4574      	cmp	r4, lr
   830b4:	f000 81a8 	beq.w	83408 <_malloc_r+0x3cc>
   830b8:	6863      	ldr	r3, [r4, #4]
   830ba:	f023 0303 	bic.w	r3, r3, #3
   830be:	1b5a      	subs	r2, r3, r5
   830c0:	2a0f      	cmp	r2, #15
   830c2:	f300 818e 	bgt.w	833e2 <_malloc_r+0x3a6>
   830c6:	2a00      	cmp	r2, #0
   830c8:	f8c1 e014 	str.w	lr, [r1, #20]
   830cc:	f8c1 e010 	str.w	lr, [r1, #16]
   830d0:	f280 8093 	bge.w	831fa <_malloc_r+0x1be>
   830d4:	f5b3 7f00 	cmp.w	r3, #512	; 0x200
   830d8:	f080 815c 	bcs.w	83394 <_malloc_r+0x358>
   830dc:	08db      	lsrs	r3, r3, #3
   830de:	684a      	ldr	r2, [r1, #4]
   830e0:	ea4f 09a3 	mov.w	r9, r3, asr #2
   830e4:	f04f 0c01 	mov.w	ip, #1
   830e8:	3301      	adds	r3, #1
   830ea:	f851 8033 	ldr.w	r8, [r1, r3, lsl #3]
   830ee:	fa0c f909 	lsl.w	r9, ip, r9
   830f2:	eb01 0cc3 	add.w	ip, r1, r3, lsl #3
   830f6:	ea49 0202 	orr.w	r2, r9, r2
   830fa:	f1ac 0c08 	sub.w	ip, ip, #8
   830fe:	f8c4 c00c 	str.w	ip, [r4, #12]
   83102:	f8c4 8008 	str.w	r8, [r4, #8]
   83106:	604a      	str	r2, [r1, #4]
   83108:	f841 4033 	str.w	r4, [r1, r3, lsl #3]
   8310c:	f8c8 400c 	str.w	r4, [r8, #12]
   83110:	1083      	asrs	r3, r0, #2
   83112:	2401      	movs	r4, #1
   83114:	409c      	lsls	r4, r3
   83116:	4294      	cmp	r4, r2
   83118:	d87c      	bhi.n	83214 <_malloc_r+0x1d8>
   8311a:	4214      	tst	r4, r2
   8311c:	d106      	bne.n	8312c <_malloc_r+0xf0>
   8311e:	f020 0003 	bic.w	r0, r0, #3
   83122:	0064      	lsls	r4, r4, #1
   83124:	4214      	tst	r4, r2
   83126:	f100 0004 	add.w	r0, r0, #4
   8312a:	d0fa      	beq.n	83122 <_malloc_r+0xe6>
   8312c:	eb07 09c0 	add.w	r9, r7, r0, lsl #3
   83130:	46cc      	mov	ip, r9
   83132:	4680      	mov	r8, r0
   83134:	f8dc 100c 	ldr.w	r1, [ip, #12]
   83138:	458c      	cmp	ip, r1
   8313a:	d107      	bne.n	8314c <_malloc_r+0x110>
   8313c:	e166      	b.n	8340c <_malloc_r+0x3d0>
   8313e:	2a00      	cmp	r2, #0
   83140:	f280 8174 	bge.w	8342c <_malloc_r+0x3f0>
   83144:	68c9      	ldr	r1, [r1, #12]
   83146:	458c      	cmp	ip, r1
   83148:	f000 8160 	beq.w	8340c <_malloc_r+0x3d0>
   8314c:	684b      	ldr	r3, [r1, #4]
   8314e:	f023 0303 	bic.w	r3, r3, #3
   83152:	1b5a      	subs	r2, r3, r5
   83154:	2a0f      	cmp	r2, #15
   83156:	ddf2      	ble.n	8313e <_malloc_r+0x102>
   83158:	460c      	mov	r4, r1
   8315a:	68cb      	ldr	r3, [r1, #12]
   8315c:	f854 cf08 	ldr.w	ip, [r4, #8]!
   83160:	f045 0801 	orr.w	r8, r5, #1
   83164:	f8c1 8004 	str.w	r8, [r1, #4]
   83168:	440d      	add	r5, r1
   8316a:	f042 0101 	orr.w	r1, r2, #1
   8316e:	f8cc 300c 	str.w	r3, [ip, #12]
   83172:	4630      	mov	r0, r6
   83174:	f8c3 c008 	str.w	ip, [r3, #8]
   83178:	617d      	str	r5, [r7, #20]
   8317a:	613d      	str	r5, [r7, #16]
   8317c:	f8c5 e00c 	str.w	lr, [r5, #12]
   83180:	f8c5 e008 	str.w	lr, [r5, #8]
   83184:	6069      	str	r1, [r5, #4]
   83186:	50aa      	str	r2, [r5, r2]
   83188:	f000 fa06 	bl	83598 <__malloc_unlock>
   8318c:	e01f      	b.n	831ce <_malloc_r+0x192>
   8318e:	2910      	cmp	r1, #16
   83190:	d821      	bhi.n	831d6 <_malloc_r+0x19a>
   83192:	f000 f9ff 	bl	83594 <__malloc_lock>
   83196:	2510      	movs	r5, #16
   83198:	2306      	movs	r3, #6
   8319a:	2002      	movs	r0, #2
   8319c:	4f77      	ldr	r7, [pc, #476]	; (8337c <_malloc_r+0x340>)
   8319e:	eb07 0383 	add.w	r3, r7, r3, lsl #2
   831a2:	685c      	ldr	r4, [r3, #4]
   831a4:	f1a3 0208 	sub.w	r2, r3, #8
   831a8:	4294      	cmp	r4, r2
   831aa:	f000 8138 	beq.w	8341e <_malloc_r+0x3e2>
   831ae:	6863      	ldr	r3, [r4, #4]
   831b0:	68e1      	ldr	r1, [r4, #12]
   831b2:	f023 0303 	bic.w	r3, r3, #3
   831b6:	4423      	add	r3, r4
   831b8:	685a      	ldr	r2, [r3, #4]
   831ba:	68a5      	ldr	r5, [r4, #8]
   831bc:	f042 0201 	orr.w	r2, r2, #1
   831c0:	60e9      	str	r1, [r5, #12]
   831c2:	4630      	mov	r0, r6
   831c4:	608d      	str	r5, [r1, #8]
   831c6:	605a      	str	r2, [r3, #4]
   831c8:	f000 f9e6 	bl	83598 <__malloc_unlock>
   831cc:	3408      	adds	r4, #8
   831ce:	4620      	mov	r0, r4
   831d0:	b003      	add	sp, #12
   831d2:	e8bd 8ff0 	ldmia.w	sp!, {r4, r5, r6, r7, r8, r9, sl, fp, pc}
   831d6:	2400      	movs	r4, #0
   831d8:	4620      	mov	r0, r4
   831da:	230c      	movs	r3, #12
   831dc:	6033      	str	r3, [r6, #0]
   831de:	b003      	add	sp, #12
   831e0:	e8bd 8ff0 	ldmia.w	sp!, {r4, r5, r6, r7, r8, r9, sl, fp, pc}
   831e4:	2180      	movs	r1, #128	; 0x80
   831e6:	f04f 0e40 	mov.w	lr, #64	; 0x40
   831ea:	203f      	movs	r0, #63	; 0x3f
   831ec:	e748      	b.n	83080 <_malloc_r+0x44>
   831ee:	4670      	mov	r0, lr
   831f0:	e75b      	b.n	830aa <_malloc_r+0x6e>
   831f2:	4423      	add	r3, r4
   831f4:	685a      	ldr	r2, [r3, #4]
   831f6:	68e1      	ldr	r1, [r4, #12]
   831f8:	e7df      	b.n	831ba <_malloc_r+0x17e>
   831fa:	4423      	add	r3, r4
   831fc:	685a      	ldr	r2, [r3, #4]
   831fe:	4630      	mov	r0, r6
   83200:	f042 0201 	orr.w	r2, r2, #1
   83204:	605a      	str	r2, [r3, #4]
   83206:	3408      	adds	r4, #8
   83208:	f000 f9c6 	bl	83598 <__malloc_unlock>
   8320c:	4620      	mov	r0, r4
   8320e:	b003      	add	sp, #12
   83210:	e8bd 8ff0 	ldmia.w	sp!, {r4, r5, r6, r7, r8, r9, sl, fp, pc}
   83214:	68bc      	ldr	r4, [r7, #8]
   83216:	6863      	ldr	r3, [r4, #4]
   83218:	f023 0803 	bic.w	r8, r3, #3
   8321c:	45a8      	cmp	r8, r5
   8321e:	d304      	bcc.n	8322a <_malloc_r+0x1ee>
   83220:	ebc5 0308 	rsb	r3, r5, r8
   83224:	2b0f      	cmp	r3, #15
   83226:	f300 808c 	bgt.w	83342 <_malloc_r+0x306>
   8322a:	4b55      	ldr	r3, [pc, #340]	; (83380 <_malloc_r+0x344>)
   8322c:	f8df 9160 	ldr.w	r9, [pc, #352]	; 83390 <_malloc_r+0x354>
   83230:	681a      	ldr	r2, [r3, #0]
   83232:	f8d9 3000 	ldr.w	r3, [r9]
   83236:	442a      	add	r2, r5
   83238:	3301      	adds	r3, #1
   8323a:	eb04 0a08 	add.w	sl, r4, r8
   8323e:	f000 8160 	beq.w	83502 <_malloc_r+0x4c6>
   83242:	f502 5280 	add.w	r2, r2, #4096	; 0x1000
   83246:	320f      	adds	r2, #15
   83248:	f422 627f 	bic.w	r2, r2, #4080	; 0xff0
   8324c:	f022 020f 	bic.w	r2, r2, #15
   83250:	4611      	mov	r1, r2
   83252:	4630      	mov	r0, r6
   83254:	9201      	str	r2, [sp, #4]
   83256:	f000 f9a1 	bl	8359c <_sbrk_r>
   8325a:	f1b0 3fff 	cmp.w	r0, #4294967295
   8325e:	4683      	mov	fp, r0
   83260:	9a01      	ldr	r2, [sp, #4]
   83262:	f000 8158 	beq.w	83516 <_malloc_r+0x4da>
   83266:	4582      	cmp	sl, r0
   83268:	f200 80fc 	bhi.w	83464 <_malloc_r+0x428>
   8326c:	4b45      	ldr	r3, [pc, #276]	; (83384 <_malloc_r+0x348>)
   8326e:	45da      	cmp	sl, fp
   83270:	6819      	ldr	r1, [r3, #0]
   83272:	4411      	add	r1, r2
   83274:	6019      	str	r1, [r3, #0]
   83276:	f000 8153 	beq.w	83520 <_malloc_r+0x4e4>
   8327a:	f8d9 0000 	ldr.w	r0, [r9]
   8327e:	f8df e110 	ldr.w	lr, [pc, #272]	; 83390 <_malloc_r+0x354>
   83282:	3001      	adds	r0, #1
   83284:	bf1b      	ittet	ne
   83286:	ebca 0a0b 	rsbne	sl, sl, fp
   8328a:	4451      	addne	r1, sl
   8328c:	f8ce b000 	streq.w	fp, [lr]
   83290:	6019      	strne	r1, [r3, #0]
   83292:	f01b 0107 	ands.w	r1, fp, #7
   83296:	f000 8117 	beq.w	834c8 <_malloc_r+0x48c>
   8329a:	f1c1 0008 	rsb	r0, r1, #8
   8329e:	f5c1 5180 	rsb	r1, r1, #4096	; 0x1000
   832a2:	4483      	add	fp, r0
   832a4:	3108      	adds	r1, #8
   832a6:	445a      	add	r2, fp
   832a8:	f3c2 020b 	ubfx	r2, r2, #0, #12
   832ac:	ebc2 0901 	rsb	r9, r2, r1
   832b0:	4649      	mov	r1, r9
   832b2:	4630      	mov	r0, r6
   832b4:	9301      	str	r3, [sp, #4]
   832b6:	f000 f971 	bl	8359c <_sbrk_r>
   832ba:	1c43      	adds	r3, r0, #1
   832bc:	9b01      	ldr	r3, [sp, #4]
   832be:	f000 813f 	beq.w	83540 <_malloc_r+0x504>
   832c2:	ebcb 0200 	rsb	r2, fp, r0
   832c6:	444a      	add	r2, r9
   832c8:	f042 0201 	orr.w	r2, r2, #1
   832cc:	6819      	ldr	r1, [r3, #0]
   832ce:	42bc      	cmp	r4, r7
   832d0:	4449      	add	r1, r9
   832d2:	f8c7 b008 	str.w	fp, [r7, #8]
   832d6:	6019      	str	r1, [r3, #0]
   832d8:	f8cb 2004 	str.w	r2, [fp, #4]
   832dc:	f8df 90a4 	ldr.w	r9, [pc, #164]	; 83384 <_malloc_r+0x348>
   832e0:	d016      	beq.n	83310 <_malloc_r+0x2d4>
   832e2:	f1b8 0f0f 	cmp.w	r8, #15
   832e6:	f240 80fd 	bls.w	834e4 <_malloc_r+0x4a8>
   832ea:	6862      	ldr	r2, [r4, #4]
   832ec:	f1a8 030c 	sub.w	r3, r8, #12
   832f0:	f023 0307 	bic.w	r3, r3, #7
   832f4:	f002 0201 	and.w	r2, r2, #1
   832f8:	18e0      	adds	r0, r4, r3
   832fa:	f04f 0e05 	mov.w	lr, #5
   832fe:	431a      	orrs	r2, r3
   83300:	2b0f      	cmp	r3, #15
   83302:	6062      	str	r2, [r4, #4]
   83304:	f8c0 e004 	str.w	lr, [r0, #4]
   83308:	f8c0 e008 	str.w	lr, [r0, #8]
   8330c:	f200 811c 	bhi.w	83548 <_malloc_r+0x50c>
   83310:	4b1d      	ldr	r3, [pc, #116]	; (83388 <_malloc_r+0x34c>)
   83312:	68bc      	ldr	r4, [r7, #8]
   83314:	681a      	ldr	r2, [r3, #0]
   83316:	4291      	cmp	r1, r2
   83318:	bf88      	it	hi
   8331a:	6019      	strhi	r1, [r3, #0]
   8331c:	4b1b      	ldr	r3, [pc, #108]	; (8338c <_malloc_r+0x350>)
   8331e:	681a      	ldr	r2, [r3, #0]
   83320:	4291      	cmp	r1, r2
   83322:	6862      	ldr	r2, [r4, #4]
   83324:	bf88      	it	hi
   83326:	6019      	strhi	r1, [r3, #0]
   83328:	f022 0203 	bic.w	r2, r2, #3
   8332c:	4295      	cmp	r5, r2
   8332e:	eba2 0305 	sub.w	r3, r2, r5
   83332:	d801      	bhi.n	83338 <_malloc_r+0x2fc>
   83334:	2b0f      	cmp	r3, #15
   83336:	dc04      	bgt.n	83342 <_malloc_r+0x306>
   83338:	4630      	mov	r0, r6
   8333a:	f000 f92d 	bl	83598 <__malloc_unlock>
   8333e:	2400      	movs	r4, #0
   83340:	e745      	b.n	831ce <_malloc_r+0x192>
   83342:	f045 0201 	orr.w	r2, r5, #1
   83346:	f043 0301 	orr.w	r3, r3, #1
   8334a:	4425      	add	r5, r4
   8334c:	6062      	str	r2, [r4, #4]
   8334e:	4630      	mov	r0, r6
   83350:	60bd      	str	r5, [r7, #8]
   83352:	3408      	adds	r4, #8
   83354:	606b      	str	r3, [r5, #4]
   83356:	f000 f91f 	bl	83598 <__malloc_unlock>
   8335a:	4620      	mov	r0, r4
   8335c:	b003      	add	sp, #12
   8335e:	e8bd 8ff0 	ldmia.w	sp!, {r4, r5, r6, r7, r8, r9, sl, fp, pc}
   83362:	2b14      	cmp	r3, #20
   83364:	d971      	bls.n	8344a <_malloc_r+0x40e>
   83366:	2b54      	cmp	r3, #84	; 0x54
   83368:	f200 80a4 	bhi.w	834b4 <_malloc_r+0x478>
   8336c:	0b28      	lsrs	r0, r5, #12
   8336e:	f100 0e6f 	add.w	lr, r0, #111	; 0x6f
   83372:	ea4f 014e 	mov.w	r1, lr, lsl #1
   83376:	306e      	adds	r0, #110	; 0x6e
   83378:	e682      	b.n	83080 <_malloc_r+0x44>
   8337a:	bf00      	nop
   8337c:	2007055c 	.word	0x2007055c
   83380:	20070994 	.word	0x20070994
   83384:	20070998 	.word	0x20070998
   83388:	20070990 	.word	0x20070990
   8338c:	2007098c 	.word	0x2007098c
   83390:	20070968 	.word	0x20070968
   83394:	0a5a      	lsrs	r2, r3, #9
   83396:	2a04      	cmp	r2, #4
   83398:	d95e      	bls.n	83458 <_malloc_r+0x41c>
   8339a:	2a14      	cmp	r2, #20
   8339c:	f200 80b3 	bhi.w	83506 <_malloc_r+0x4ca>
   833a0:	f102 015c 	add.w	r1, r2, #92	; 0x5c
   833a4:	0049      	lsls	r1, r1, #1
   833a6:	325b      	adds	r2, #91	; 0x5b
   833a8:	eb07 0c81 	add.w	ip, r7, r1, lsl #2
   833ac:	f857 1021 	ldr.w	r1, [r7, r1, lsl #2]
   833b0:	f1ac 0c08 	sub.w	ip, ip, #8
   833b4:	458c      	cmp	ip, r1
   833b6:	f8df 81d8 	ldr.w	r8, [pc, #472]	; 83590 <_malloc_r+0x554>
   833ba:	f000 8088 	beq.w	834ce <_malloc_r+0x492>
   833be:	684a      	ldr	r2, [r1, #4]
   833c0:	f022 0203 	bic.w	r2, r2, #3
   833c4:	4293      	cmp	r3, r2
   833c6:	d202      	bcs.n	833ce <_malloc_r+0x392>
   833c8:	6889      	ldr	r1, [r1, #8]
   833ca:	458c      	cmp	ip, r1
   833cc:	d1f7      	bne.n	833be <_malloc_r+0x382>
   833ce:	f8d1 c00c 	ldr.w	ip, [r1, #12]
   833d2:	687a      	ldr	r2, [r7, #4]
   833d4:	f8c4 c00c 	str.w	ip, [r4, #12]
   833d8:	60a1      	str	r1, [r4, #8]
   833da:	f8cc 4008 	str.w	r4, [ip, #8]
   833de:	60cc      	str	r4, [r1, #12]
   833e0:	e696      	b.n	83110 <_malloc_r+0xd4>
   833e2:	f045 0701 	orr.w	r7, r5, #1
   833e6:	f042 0301 	orr.w	r3, r2, #1
   833ea:	4425      	add	r5, r4
   833ec:	6067      	str	r7, [r4, #4]
   833ee:	4630      	mov	r0, r6
   833f0:	614d      	str	r5, [r1, #20]
   833f2:	610d      	str	r5, [r1, #16]
   833f4:	f8c5 e00c 	str.w	lr, [r5, #12]
   833f8:	f8c5 e008 	str.w	lr, [r5, #8]
   833fc:	606b      	str	r3, [r5, #4]
   833fe:	50aa      	str	r2, [r5, r2]
   83400:	3408      	adds	r4, #8
   83402:	f000 f8c9 	bl	83598 <__malloc_unlock>
   83406:	e6e2      	b.n	831ce <_malloc_r+0x192>
   83408:	684a      	ldr	r2, [r1, #4]
   8340a:	e681      	b.n	83110 <_malloc_r+0xd4>
   8340c:	f108 0801 	add.w	r8, r8, #1
   83410:	f018 0f03 	tst.w	r8, #3
   83414:	f10c 0c08 	add.w	ip, ip, #8
   83418:	f47f ae8c 	bne.w	83134 <_malloc_r+0xf8>
   8341c:	e030      	b.n	83480 <_malloc_r+0x444>
   8341e:	68dc      	ldr	r4, [r3, #12]
   83420:	42a3      	cmp	r3, r4
   83422:	bf08      	it	eq
   83424:	3002      	addeq	r0, #2
   83426:	f43f ae40 	beq.w	830aa <_malloc_r+0x6e>
   8342a:	e6c0      	b.n	831ae <_malloc_r+0x172>
   8342c:	460c      	mov	r4, r1
   8342e:	440b      	add	r3, r1
   83430:	685a      	ldr	r2, [r3, #4]
   83432:	68c9      	ldr	r1, [r1, #12]
   83434:	f854 5f08 	ldr.w	r5, [r4, #8]!
   83438:	f042 0201 	orr.w	r2, r2, #1
   8343c:	605a      	str	r2, [r3, #4]
   8343e:	4630      	mov	r0, r6
   83440:	60e9      	str	r1, [r5, #12]
   83442:	608d      	str	r5, [r1, #8]
   83444:	f000 f8a8 	bl	83598 <__malloc_unlock>
   83448:	e6c1      	b.n	831ce <_malloc_r+0x192>
   8344a:	f103 0e5c 	add.w	lr, r3, #92	; 0x5c
   8344e:	f103 005b 	add.w	r0, r3, #91	; 0x5b
   83452:	ea4f 014e 	mov.w	r1, lr, lsl #1
   83456:	e613      	b.n	83080 <_malloc_r+0x44>
   83458:	099a      	lsrs	r2, r3, #6
   8345a:	f102 0139 	add.w	r1, r2, #57	; 0x39
   8345e:	0049      	lsls	r1, r1, #1
   83460:	3238      	adds	r2, #56	; 0x38
   83462:	e7a1      	b.n	833a8 <_malloc_r+0x36c>
   83464:	42bc      	cmp	r4, r7
   83466:	4b4a      	ldr	r3, [pc, #296]	; (83590 <_malloc_r+0x554>)
   83468:	f43f af00 	beq.w	8326c <_malloc_r+0x230>
   8346c:	689c      	ldr	r4, [r3, #8]
   8346e:	6862      	ldr	r2, [r4, #4]
   83470:	f022 0203 	bic.w	r2, r2, #3
   83474:	e75a      	b.n	8332c <_malloc_r+0x2f0>
   83476:	f859 3908 	ldr.w	r3, [r9], #-8
   8347a:	4599      	cmp	r9, r3
   8347c:	f040 8082 	bne.w	83584 <_malloc_r+0x548>
   83480:	f010 0f03 	tst.w	r0, #3
   83484:	f100 30ff 	add.w	r0, r0, #4294967295
   83488:	d1f5      	bne.n	83476 <_malloc_r+0x43a>
   8348a:	687b      	ldr	r3, [r7, #4]
   8348c:	ea23 0304 	bic.w	r3, r3, r4
   83490:	607b      	str	r3, [r7, #4]
   83492:	0064      	lsls	r4, r4, #1
   83494:	429c      	cmp	r4, r3
   83496:	f63f aebd 	bhi.w	83214 <_malloc_r+0x1d8>
   8349a:	2c00      	cmp	r4, #0
   8349c:	f43f aeba 	beq.w	83214 <_malloc_r+0x1d8>
   834a0:	421c      	tst	r4, r3
   834a2:	4640      	mov	r0, r8
   834a4:	f47f ae42 	bne.w	8312c <_malloc_r+0xf0>
   834a8:	0064      	lsls	r4, r4, #1
   834aa:	421c      	tst	r4, r3
   834ac:	f100 0004 	add.w	r0, r0, #4
   834b0:	d0fa      	beq.n	834a8 <_malloc_r+0x46c>
   834b2:	e63b      	b.n	8312c <_malloc_r+0xf0>
   834b4:	f5b3 7faa 	cmp.w	r3, #340	; 0x154
   834b8:	d818      	bhi.n	834ec <_malloc_r+0x4b0>
   834ba:	0be8      	lsrs	r0, r5, #15
   834bc:	f100 0e78 	add.w	lr, r0, #120	; 0x78
   834c0:	ea4f 014e 	mov.w	r1, lr, lsl #1
   834c4:	3077      	adds	r0, #119	; 0x77
   834c6:	e5db      	b.n	83080 <_malloc_r+0x44>
   834c8:	f44f 5180 	mov.w	r1, #4096	; 0x1000
   834cc:	e6eb      	b.n	832a6 <_malloc_r+0x26a>
   834ce:	2101      	movs	r1, #1
   834d0:	f8d8 3004 	ldr.w	r3, [r8, #4]
   834d4:	1092      	asrs	r2, r2, #2
   834d6:	fa01 f202 	lsl.w	r2, r1, r2
   834da:	431a      	orrs	r2, r3
   834dc:	f8c8 2004 	str.w	r2, [r8, #4]
   834e0:	4661      	mov	r1, ip
   834e2:	e777      	b.n	833d4 <_malloc_r+0x398>
   834e4:	2301      	movs	r3, #1
   834e6:	f8cb 3004 	str.w	r3, [fp, #4]
   834ea:	e725      	b.n	83338 <_malloc_r+0x2fc>
   834ec:	f240 5254 	movw	r2, #1364	; 0x554
   834f0:	4293      	cmp	r3, r2
   834f2:	d820      	bhi.n	83536 <_malloc_r+0x4fa>
   834f4:	0ca8      	lsrs	r0, r5, #18
   834f6:	f100 0e7d 	add.w	lr, r0, #125	; 0x7d
   834fa:	ea4f 014e 	mov.w	r1, lr, lsl #1
   834fe:	307c      	adds	r0, #124	; 0x7c
   83500:	e5be      	b.n	83080 <_malloc_r+0x44>
   83502:	3210      	adds	r2, #16
   83504:	e6a4      	b.n	83250 <_malloc_r+0x214>
   83506:	2a54      	cmp	r2, #84	; 0x54
   83508:	d826      	bhi.n	83558 <_malloc_r+0x51c>
   8350a:	0b1a      	lsrs	r2, r3, #12
   8350c:	f102 016f 	add.w	r1, r2, #111	; 0x6f
   83510:	0049      	lsls	r1, r1, #1
   83512:	326e      	adds	r2, #110	; 0x6e
   83514:	e748      	b.n	833a8 <_malloc_r+0x36c>
   83516:	68bc      	ldr	r4, [r7, #8]
   83518:	6862      	ldr	r2, [r4, #4]
   8351a:	f022 0203 	bic.w	r2, r2, #3
   8351e:	e705      	b.n	8332c <_malloc_r+0x2f0>
   83520:	f3ca 000b 	ubfx	r0, sl, #0, #12
   83524:	2800      	cmp	r0, #0
   83526:	f47f aea8 	bne.w	8327a <_malloc_r+0x23e>
   8352a:	4442      	add	r2, r8
   8352c:	68bb      	ldr	r3, [r7, #8]
   8352e:	f042 0201 	orr.w	r2, r2, #1
   83532:	605a      	str	r2, [r3, #4]
   83534:	e6ec      	b.n	83310 <_malloc_r+0x2d4>
   83536:	21fe      	movs	r1, #254	; 0xfe
   83538:	f04f 0e7f 	mov.w	lr, #127	; 0x7f
   8353c:	207e      	movs	r0, #126	; 0x7e
   8353e:	e59f      	b.n	83080 <_malloc_r+0x44>
   83540:	2201      	movs	r2, #1
   83542:	f04f 0900 	mov.w	r9, #0
   83546:	e6c1      	b.n	832cc <_malloc_r+0x290>
   83548:	f104 0108 	add.w	r1, r4, #8
   8354c:	4630      	mov	r0, r6
   8354e:	f000 f8a9 	bl	836a4 <_free_r>
   83552:	f8d9 1000 	ldr.w	r1, [r9]
   83556:	e6db      	b.n	83310 <_malloc_r+0x2d4>
   83558:	f5b2 7faa 	cmp.w	r2, #340	; 0x154
   8355c:	d805      	bhi.n	8356a <_malloc_r+0x52e>
   8355e:	0bda      	lsrs	r2, r3, #15
   83560:	f102 0178 	add.w	r1, r2, #120	; 0x78
   83564:	0049      	lsls	r1, r1, #1
   83566:	3277      	adds	r2, #119	; 0x77
   83568:	e71e      	b.n	833a8 <_malloc_r+0x36c>
   8356a:	f240 5154 	movw	r1, #1364	; 0x554
   8356e:	428a      	cmp	r2, r1
   83570:	d805      	bhi.n	8357e <_malloc_r+0x542>
   83572:	0c9a      	lsrs	r2, r3, #18
   83574:	f102 017d 	add.w	r1, r2, #125	; 0x7d
   83578:	0049      	lsls	r1, r1, #1
   8357a:	327c      	adds	r2, #124	; 0x7c
   8357c:	e714      	b.n	833a8 <_malloc_r+0x36c>
   8357e:	21fe      	movs	r1, #254	; 0xfe
   83580:	227e      	movs	r2, #126	; 0x7e
   83582:	e711      	b.n	833a8 <_malloc_r+0x36c>
   83584:	687b      	ldr	r3, [r7, #4]
   83586:	e784      	b.n	83492 <_malloc_r+0x456>
   83588:	08e8      	lsrs	r0, r5, #3
   8358a:	1c43      	adds	r3, r0, #1
   8358c:	005b      	lsls	r3, r3, #1
   8358e:	e605      	b.n	8319c <_malloc_r+0x160>
   83590:	2007055c 	.word	0x2007055c

00083594 <__malloc_lock>:
   83594:	4770      	bx	lr
   83596:	bf00      	nop

00083598 <__malloc_unlock>:
   83598:	4770      	bx	lr
   8359a:	bf00      	nop

0008359c <_sbrk_r>:
   8359c:	b538      	push	{r3, r4, r5, lr}
   8359e:	4c07      	ldr	r4, [pc, #28]	; (835bc <_sbrk_r+0x20>)
   835a0:	2300      	movs	r3, #0
   835a2:	4605      	mov	r5, r0
   835a4:	4608      	mov	r0, r1
   835a6:	6023      	str	r3, [r4, #0]
   835a8:	f7fd fb16 	bl	80bd8 <_sbrk>
   835ac:	1c43      	adds	r3, r0, #1
   835ae:	d000      	beq.n	835b2 <_sbrk_r+0x16>
   835b0:	bd38      	pop	{r3, r4, r5, pc}
   835b2:	6823      	ldr	r3, [r4, #0]
   835b4:	2b00      	cmp	r3, #0
   835b6:	d0fb      	beq.n	835b0 <_sbrk_r+0x14>
   835b8:	602b      	str	r3, [r5, #0]
   835ba:	bd38      	pop	{r3, r4, r5, pc}
   835bc:	200721f8 	.word	0x200721f8

000835c0 <register_fini>:
   835c0:	4b02      	ldr	r3, [pc, #8]	; (835cc <register_fini+0xc>)
   835c2:	b113      	cbz	r3, 835ca <register_fini+0xa>
   835c4:	4802      	ldr	r0, [pc, #8]	; (835d0 <register_fini+0x10>)
   835c6:	f000 b805 	b.w	835d4 <atexit>
   835ca:	4770      	bx	lr
   835cc:	00000000 	.word	0x00000000
   835d0:	000835e1 	.word	0x000835e1

000835d4 <atexit>:
   835d4:	2300      	movs	r3, #0
   835d6:	4601      	mov	r1, r0
   835d8:	461a      	mov	r2, r3
   835da:	4618      	mov	r0, r3
   835dc:	f000 b94a 	b.w	83874 <__register_exitproc>

000835e0 <__libc_fini_array>:
   835e0:	b538      	push	{r3, r4, r5, lr}
   835e2:	4d07      	ldr	r5, [pc, #28]	; (83600 <__libc_fini_array+0x20>)
   835e4:	4c07      	ldr	r4, [pc, #28]	; (83604 <__libc_fini_array+0x24>)
   835e6:	1b2c      	subs	r4, r5, r4
   835e8:	10a4      	asrs	r4, r4, #2
   835ea:	d005      	beq.n	835f8 <__libc_fini_array+0x18>
   835ec:	3c01      	subs	r4, #1
   835ee:	f855 3d04 	ldr.w	r3, [r5, #-4]!
   835f2:	4798      	blx	r3
   835f4:	2c00      	cmp	r4, #0
   835f6:	d1f9      	bne.n	835ec <__libc_fini_array+0xc>
   835f8:	e8bd 4038 	ldmia.w	sp!, {r3, r4, r5, lr}
   835fc:	f000 b9e2 	b.w	839c4 <_fini>
   83600:	000839d4 	.word	0x000839d4
   83604:	000839d0 	.word	0x000839d0

00083608 <_malloc_trim_r>:
   83608:	b5f8      	push	{r3, r4, r5, r6, r7, lr}
   8360a:	460c      	mov	r4, r1
   8360c:	4f22      	ldr	r7, [pc, #136]	; (83698 <_malloc_trim_r+0x90>)
   8360e:	4606      	mov	r6, r0
   83610:	f7ff ffc0 	bl	83594 <__malloc_lock>
   83614:	68bb      	ldr	r3, [r7, #8]
   83616:	685d      	ldr	r5, [r3, #4]
   83618:	f025 0503 	bic.w	r5, r5, #3
   8361c:	1b29      	subs	r1, r5, r4
   8361e:	f601 71ef 	addw	r1, r1, #4079	; 0xfef
   83622:	f421 617f 	bic.w	r1, r1, #4080	; 0xff0
   83626:	f021 010f 	bic.w	r1, r1, #15
   8362a:	f5a1 5480 	sub.w	r4, r1, #4096	; 0x1000
   8362e:	f5b4 5f80 	cmp.w	r4, #4096	; 0x1000
   83632:	db07      	blt.n	83644 <_malloc_trim_r+0x3c>
   83634:	2100      	movs	r1, #0
   83636:	4630      	mov	r0, r6
   83638:	f7ff ffb0 	bl	8359c <_sbrk_r>
   8363c:	68bb      	ldr	r3, [r7, #8]
   8363e:	442b      	add	r3, r5
   83640:	4298      	cmp	r0, r3
   83642:	d004      	beq.n	8364e <_malloc_trim_r+0x46>
   83644:	4630      	mov	r0, r6
   83646:	f7ff ffa7 	bl	83598 <__malloc_unlock>
   8364a:	2000      	movs	r0, #0
   8364c:	bdf8      	pop	{r3, r4, r5, r6, r7, pc}
   8364e:	4261      	negs	r1, r4
   83650:	4630      	mov	r0, r6
   83652:	f7ff ffa3 	bl	8359c <_sbrk_r>
   83656:	3001      	adds	r0, #1
   83658:	d00d      	beq.n	83676 <_malloc_trim_r+0x6e>
   8365a:	4b10      	ldr	r3, [pc, #64]	; (8369c <_malloc_trim_r+0x94>)
   8365c:	68ba      	ldr	r2, [r7, #8]
   8365e:	6819      	ldr	r1, [r3, #0]
   83660:	1b2d      	subs	r5, r5, r4
   83662:	f045 0501 	orr.w	r5, r5, #1
   83666:	4630      	mov	r0, r6
   83668:	1b09      	subs	r1, r1, r4
   8366a:	6055      	str	r5, [r2, #4]
   8366c:	6019      	str	r1, [r3, #0]
   8366e:	f7ff ff93 	bl	83598 <__malloc_unlock>
   83672:	2001      	movs	r0, #1
   83674:	bdf8      	pop	{r3, r4, r5, r6, r7, pc}
   83676:	2100      	movs	r1, #0
   83678:	4630      	mov	r0, r6
   8367a:	f7ff ff8f 	bl	8359c <_sbrk_r>
   8367e:	68ba      	ldr	r2, [r7, #8]
   83680:	1a83      	subs	r3, r0, r2
   83682:	2b0f      	cmp	r3, #15
   83684:	ddde      	ble.n	83644 <_malloc_trim_r+0x3c>
   83686:	4c06      	ldr	r4, [pc, #24]	; (836a0 <_malloc_trim_r+0x98>)
   83688:	4904      	ldr	r1, [pc, #16]	; (8369c <_malloc_trim_r+0x94>)
   8368a:	6824      	ldr	r4, [r4, #0]
   8368c:	f043 0301 	orr.w	r3, r3, #1
   83690:	1b00      	subs	r0, r0, r4
   83692:	6053      	str	r3, [r2, #4]
   83694:	6008      	str	r0, [r1, #0]
   83696:	e7d5      	b.n	83644 <_malloc_trim_r+0x3c>
   83698:	2007055c 	.word	0x2007055c
   8369c:	20070998 	.word	0x20070998
   836a0:	20070968 	.word	0x20070968

000836a4 <_free_r>:
   836a4:	2900      	cmp	r1, #0
   836a6:	d045      	beq.n	83734 <_free_r+0x90>
   836a8:	e92d 41f0 	stmdb	sp!, {r4, r5, r6, r7, r8, lr}
   836ac:	460d      	mov	r5, r1
   836ae:	4680      	mov	r8, r0
   836b0:	f7ff ff70 	bl	83594 <__malloc_lock>
   836b4:	f855 7c04 	ldr.w	r7, [r5, #-4]
   836b8:	496a      	ldr	r1, [pc, #424]	; (83864 <_free_r+0x1c0>)
   836ba:	f1a5 0408 	sub.w	r4, r5, #8
   836be:	f027 0301 	bic.w	r3, r7, #1
   836c2:	18e2      	adds	r2, r4, r3
   836c4:	688e      	ldr	r6, [r1, #8]
   836c6:	6850      	ldr	r0, [r2, #4]
   836c8:	42b2      	cmp	r2, r6
   836ca:	f020 0003 	bic.w	r0, r0, #3
   836ce:	d062      	beq.n	83796 <_free_r+0xf2>
   836d0:	07fe      	lsls	r6, r7, #31
   836d2:	6050      	str	r0, [r2, #4]
   836d4:	d40b      	bmi.n	836ee <_free_r+0x4a>
   836d6:	f855 7c08 	ldr.w	r7, [r5, #-8]
   836da:	f101 0e08 	add.w	lr, r1, #8
   836de:	1be4      	subs	r4, r4, r7
   836e0:	68a5      	ldr	r5, [r4, #8]
   836e2:	443b      	add	r3, r7
   836e4:	4575      	cmp	r5, lr
   836e6:	d06f      	beq.n	837c8 <_free_r+0x124>
   836e8:	68e7      	ldr	r7, [r4, #12]
   836ea:	60ef      	str	r7, [r5, #12]
   836ec:	60bd      	str	r5, [r7, #8]
   836ee:	1815      	adds	r5, r2, r0
   836f0:	686d      	ldr	r5, [r5, #4]
   836f2:	07ed      	lsls	r5, r5, #31
   836f4:	d542      	bpl.n	8377c <_free_r+0xd8>
   836f6:	f043 0201 	orr.w	r2, r3, #1
   836fa:	6062      	str	r2, [r4, #4]
   836fc:	50e3      	str	r3, [r4, r3]
   836fe:	f5b3 7f00 	cmp.w	r3, #512	; 0x200
   83702:	d218      	bcs.n	83736 <_free_r+0x92>
   83704:	08db      	lsrs	r3, r3, #3
   83706:	6848      	ldr	r0, [r1, #4]
   83708:	109d      	asrs	r5, r3, #2
   8370a:	2201      	movs	r2, #1
   8370c:	3301      	adds	r3, #1
   8370e:	f851 7033 	ldr.w	r7, [r1, r3, lsl #3]
   83712:	fa02 f505 	lsl.w	r5, r2, r5
   83716:	eb01 02c3 	add.w	r2, r1, r3, lsl #3
   8371a:	4328      	orrs	r0, r5
   8371c:	3a08      	subs	r2, #8
   8371e:	60e2      	str	r2, [r4, #12]
   83720:	60a7      	str	r7, [r4, #8]
   83722:	6048      	str	r0, [r1, #4]
   83724:	f841 4033 	str.w	r4, [r1, r3, lsl #3]
   83728:	60fc      	str	r4, [r7, #12]
   8372a:	4640      	mov	r0, r8
   8372c:	e8bd 41f0 	ldmia.w	sp!, {r4, r5, r6, r7, r8, lr}
   83730:	f7ff bf32 	b.w	83598 <__malloc_unlock>
   83734:	4770      	bx	lr
   83736:	0a5a      	lsrs	r2, r3, #9
   83738:	2a04      	cmp	r2, #4
   8373a:	d853      	bhi.n	837e4 <_free_r+0x140>
   8373c:	099a      	lsrs	r2, r3, #6
   8373e:	f102 0739 	add.w	r7, r2, #57	; 0x39
   83742:	007f      	lsls	r7, r7, #1
   83744:	f102 0538 	add.w	r5, r2, #56	; 0x38
   83748:	eb01 0087 	add.w	r0, r1, r7, lsl #2
   8374c:	f851 2027 	ldr.w	r2, [r1, r7, lsl #2]
   83750:	3808      	subs	r0, #8
   83752:	4290      	cmp	r0, r2
   83754:	4943      	ldr	r1, [pc, #268]	; (83864 <_free_r+0x1c0>)
   83756:	d04d      	beq.n	837f4 <_free_r+0x150>
   83758:	6851      	ldr	r1, [r2, #4]
   8375a:	f021 0103 	bic.w	r1, r1, #3
   8375e:	428b      	cmp	r3, r1
   83760:	d202      	bcs.n	83768 <_free_r+0xc4>
   83762:	6892      	ldr	r2, [r2, #8]
   83764:	4290      	cmp	r0, r2
   83766:	d1f7      	bne.n	83758 <_free_r+0xb4>
   83768:	68d0      	ldr	r0, [r2, #12]
   8376a:	60e0      	str	r0, [r4, #12]
   8376c:	60a2      	str	r2, [r4, #8]
   8376e:	6084      	str	r4, [r0, #8]
   83770:	60d4      	str	r4, [r2, #12]
   83772:	4640      	mov	r0, r8
   83774:	e8bd 41f0 	ldmia.w	sp!, {r4, r5, r6, r7, r8, lr}
   83778:	f7ff bf0e 	b.w	83598 <__malloc_unlock>
   8377c:	6895      	ldr	r5, [r2, #8]
   8377e:	4f3a      	ldr	r7, [pc, #232]	; (83868 <_free_r+0x1c4>)
   83780:	4403      	add	r3, r0
   83782:	42bd      	cmp	r5, r7
   83784:	d03f      	beq.n	83806 <_free_r+0x162>
   83786:	68d0      	ldr	r0, [r2, #12]
   83788:	f043 0201 	orr.w	r2, r3, #1
   8378c:	60e8      	str	r0, [r5, #12]
   8378e:	6085      	str	r5, [r0, #8]
   83790:	6062      	str	r2, [r4, #4]
   83792:	50e3      	str	r3, [r4, r3]
   83794:	e7b3      	b.n	836fe <_free_r+0x5a>
   83796:	07ff      	lsls	r7, r7, #31
   83798:	4403      	add	r3, r0
   8379a:	d407      	bmi.n	837ac <_free_r+0x108>
   8379c:	f855 5c08 	ldr.w	r5, [r5, #-8]
   837a0:	1b64      	subs	r4, r4, r5
   837a2:	68e2      	ldr	r2, [r4, #12]
   837a4:	68a0      	ldr	r0, [r4, #8]
   837a6:	442b      	add	r3, r5
   837a8:	60c2      	str	r2, [r0, #12]
   837aa:	6090      	str	r0, [r2, #8]
   837ac:	4a2f      	ldr	r2, [pc, #188]	; (8386c <_free_r+0x1c8>)
   837ae:	f043 0001 	orr.w	r0, r3, #1
   837b2:	6812      	ldr	r2, [r2, #0]
   837b4:	6060      	str	r0, [r4, #4]
   837b6:	4293      	cmp	r3, r2
   837b8:	608c      	str	r4, [r1, #8]
   837ba:	d3b6      	bcc.n	8372a <_free_r+0x86>
   837bc:	4b2c      	ldr	r3, [pc, #176]	; (83870 <_free_r+0x1cc>)
   837be:	4640      	mov	r0, r8
   837c0:	6819      	ldr	r1, [r3, #0]
   837c2:	f7ff ff21 	bl	83608 <_malloc_trim_r>
   837c6:	e7b0      	b.n	8372a <_free_r+0x86>
   837c8:	1811      	adds	r1, r2, r0
   837ca:	6849      	ldr	r1, [r1, #4]
   837cc:	07c9      	lsls	r1, r1, #31
   837ce:	d444      	bmi.n	8385a <_free_r+0x1b6>
   837d0:	6891      	ldr	r1, [r2, #8]
   837d2:	4403      	add	r3, r0
   837d4:	68d2      	ldr	r2, [r2, #12]
   837d6:	f043 0001 	orr.w	r0, r3, #1
   837da:	60ca      	str	r2, [r1, #12]
   837dc:	6091      	str	r1, [r2, #8]
   837de:	6060      	str	r0, [r4, #4]
   837e0:	50e3      	str	r3, [r4, r3]
   837e2:	e7a2      	b.n	8372a <_free_r+0x86>
   837e4:	2a14      	cmp	r2, #20
   837e6:	d817      	bhi.n	83818 <_free_r+0x174>
   837e8:	f102 075c 	add.w	r7, r2, #92	; 0x5c
   837ec:	007f      	lsls	r7, r7, #1
   837ee:	f102 055b 	add.w	r5, r2, #91	; 0x5b
   837f2:	e7a9      	b.n	83748 <_free_r+0xa4>
   837f4:	10aa      	asrs	r2, r5, #2
   837f6:	684b      	ldr	r3, [r1, #4]
   837f8:	2501      	movs	r5, #1
   837fa:	fa05 f202 	lsl.w	r2, r5, r2
   837fe:	4313      	orrs	r3, r2
   83800:	604b      	str	r3, [r1, #4]
   83802:	4602      	mov	r2, r0
   83804:	e7b1      	b.n	8376a <_free_r+0xc6>
   83806:	f043 0201 	orr.w	r2, r3, #1
   8380a:	614c      	str	r4, [r1, #20]
   8380c:	610c      	str	r4, [r1, #16]
   8380e:	60e5      	str	r5, [r4, #12]
   83810:	60a5      	str	r5, [r4, #8]
   83812:	6062      	str	r2, [r4, #4]
   83814:	50e3      	str	r3, [r4, r3]
   83816:	e788      	b.n	8372a <_free_r+0x86>
   83818:	2a54      	cmp	r2, #84	; 0x54
   8381a:	d806      	bhi.n	8382a <_free_r+0x186>
   8381c:	0b1a      	lsrs	r2, r3, #12
   8381e:	f102 076f 	add.w	r7, r2, #111	; 0x6f
   83822:	007f      	lsls	r7, r7, #1
   83824:	f102 056e 	add.w	r5, r2, #110	; 0x6e
   83828:	e78e      	b.n	83748 <_free_r+0xa4>
   8382a:	f5b2 7faa 	cmp.w	r2, #340	; 0x154
   8382e:	d806      	bhi.n	8383e <_free_r+0x19a>
   83830:	0bda      	lsrs	r2, r3, #15
   83832:	f102 0778 	add.w	r7, r2, #120	; 0x78
   83836:	007f      	lsls	r7, r7, #1
   83838:	f102 0577 	add.w	r5, r2, #119	; 0x77
   8383c:	e784      	b.n	83748 <_free_r+0xa4>
   8383e:	f240 5054 	movw	r0, #1364	; 0x554
   83842:	4282      	cmp	r2, r0
   83844:	d806      	bhi.n	83854 <_free_r+0x1b0>
   83846:	0c9a      	lsrs	r2, r3, #18
   83848:	f102 077d 	add.w	r7, r2, #125	; 0x7d
   8384c:	007f      	lsls	r7, r7, #1
   8384e:	f102 057c 	add.w	r5, r2, #124	; 0x7c
   83852:	e779      	b.n	83748 <_free_r+0xa4>
   83854:	27fe      	movs	r7, #254	; 0xfe
   83856:	257e      	movs	r5, #126	; 0x7e
   83858:	e776      	b.n	83748 <_free_r+0xa4>
   8385a:	f043 0201 	orr.w	r2, r3, #1
   8385e:	6062      	str	r2, [r4, #4]
   83860:	50e3      	str	r3, [r4, r3]
   83862:	e762      	b.n	8372a <_free_r+0x86>
   83864:	2007055c 	.word	0x2007055c
   83868:	20070564 	.word	0x20070564
   8386c:	20070964 	.word	0x20070964
   83870:	20070994 	.word	0x20070994

00083874 <__register_exitproc>:
   83874:	e92d 47f0 	stmdb	sp!, {r4, r5, r6, r7, r8, r9, sl, lr}
   83878:	4c25      	ldr	r4, [pc, #148]	; (83910 <__register_exitproc+0x9c>)
   8387a:	4606      	mov	r6, r0
   8387c:	6825      	ldr	r5, [r4, #0]
   8387e:	4688      	mov	r8, r1
   83880:	f8d5 4148 	ldr.w	r4, [r5, #328]	; 0x148
   83884:	4692      	mov	sl, r2
   83886:	4699      	mov	r9, r3
   83888:	b3c4      	cbz	r4, 838fc <__register_exitproc+0x88>
   8388a:	6860      	ldr	r0, [r4, #4]
   8388c:	281f      	cmp	r0, #31
   8388e:	dc17      	bgt.n	838c0 <__register_exitproc+0x4c>
   83890:	1c41      	adds	r1, r0, #1
   83892:	b176      	cbz	r6, 838b2 <__register_exitproc+0x3e>
   83894:	eb04 0380 	add.w	r3, r4, r0, lsl #2
   83898:	f8c3 a088 	str.w	sl, [r3, #136]	; 0x88
   8389c:	f8d4 5188 	ldr.w	r5, [r4, #392]	; 0x188
   838a0:	2201      	movs	r2, #1
   838a2:	4082      	lsls	r2, r0
   838a4:	4315      	orrs	r5, r2
   838a6:	2e02      	cmp	r6, #2
   838a8:	f8c4 5188 	str.w	r5, [r4, #392]	; 0x188
   838ac:	f8c3 9108 	str.w	r9, [r3, #264]	; 0x108
   838b0:	d01e      	beq.n	838f0 <__register_exitproc+0x7c>
   838b2:	1c83      	adds	r3, r0, #2
   838b4:	6061      	str	r1, [r4, #4]
   838b6:	2000      	movs	r0, #0
   838b8:	f844 8023 	str.w	r8, [r4, r3, lsl #2]
   838bc:	e8bd 87f0 	ldmia.w	sp!, {r4, r5, r6, r7, r8, r9, sl, pc}
   838c0:	4b14      	ldr	r3, [pc, #80]	; (83914 <__register_exitproc+0xa0>)
   838c2:	b303      	cbz	r3, 83906 <__register_exitproc+0x92>
   838c4:	f44f 70c8 	mov.w	r0, #400	; 0x190
   838c8:	f7ff fbb0 	bl	8302c <malloc>
   838cc:	4604      	mov	r4, r0
   838ce:	b1d0      	cbz	r0, 83906 <__register_exitproc+0x92>
   838d0:	f8d5 3148 	ldr.w	r3, [r5, #328]	; 0x148
   838d4:	2700      	movs	r7, #0
   838d6:	e884 0088 	stmia.w	r4, {r3, r7}
   838da:	4638      	mov	r0, r7
   838dc:	f8c5 4148 	str.w	r4, [r5, #328]	; 0x148
   838e0:	2101      	movs	r1, #1
   838e2:	f8c4 7188 	str.w	r7, [r4, #392]	; 0x188
   838e6:	f8c4 718c 	str.w	r7, [r4, #396]	; 0x18c
   838ea:	2e00      	cmp	r6, #0
   838ec:	d0e1      	beq.n	838b2 <__register_exitproc+0x3e>
   838ee:	e7d1      	b.n	83894 <__register_exitproc+0x20>
   838f0:	f8d4 318c 	ldr.w	r3, [r4, #396]	; 0x18c
   838f4:	431a      	orrs	r2, r3
   838f6:	f8c4 218c 	str.w	r2, [r4, #396]	; 0x18c
   838fa:	e7da      	b.n	838b2 <__register_exitproc+0x3e>
   838fc:	f505 74a6 	add.w	r4, r5, #332	; 0x14c
   83900:	f8c5 4148 	str.w	r4, [r5, #328]	; 0x148
   83904:	e7c1      	b.n	8388a <__register_exitproc+0x16>
   83906:	f04f 30ff 	mov.w	r0, #4294967295
   8390a:	e8bd 87f0 	ldmia.w	sp!, {r4, r5, r6, r7, r8, r9, sl, pc}
   8390e:	bf00      	nop
   83910:	000839ac 	.word	0x000839ac
   83914:	0008302d 	.word	0x0008302d
   83918:	00002043 	.word	0x00002043
   8391c:	46697754 	.word	0x46697754
   83920:	746c7561 	.word	0x746c7561
   83924:	0000203a 	.word	0x0000203a
   83928:	52504545 	.word	0x52504545
   8392c:	46204d4f 	.word	0x46204d4f
   83930:	746c7561 	.word	0x746c7561
   83934:	00000000 	.word	0x00000000
   83938:	4f525245 	.word	0x4f525245
   8393c:	61632052 	.word	0x61632052
   83940:	7262696c 	.word	0x7262696c
   83944:	6f697461 	.word	0x6f697461
   83948:	6576206e 	.word	0x6576206e
   8394c:	726f7463 	.word	0x726f7463
   83950:	00000000 	.word	0x00000000
   83954:	00313030 	.word	0x00313030
   83958:	68745552 	.word	0x68745552
   8395c:	7373656c 	.word	0x7373656c
   83960:	2e315620 	.word	0x2e315620
   83964:	6f462030 	.word	0x6f462030
   83968:	6c756d72 	.word	0x6c756d72
   8396c:	74532061 	.word	0x74532061
   83970:	6e656475 	.word	0x6e656475
   83974:	30322074 	.word	0x30322074
   83978:	00003731 	.word	0x00003731
   8397c:	65657073 	.word	0x65657073
   83980:	6e697564 	.word	0x6e697564
   83984:	0000006f 	.word	0x0000006f
   83988:	07050604 	.word	0x07050604
   8398c:	00050c00 	.word	0x00050c00
   83990:	74696e49 	.word	0x74696e49
   83994:	67656220 	.word	0x67656220
   83998:	00006e69 	.word	0x00006e69
   8399c:	74696e49 	.word	0x74696e49
   839a0:	6e6f6420 	.word	0x6e6f6420
   839a4:	00000065 	.word	0x00000065
   839a8:	00000043 	.word	0x00000043

000839ac <_global_impure_ptr>:
   839ac:	20070130                                0.. 

000839b0 <_init>:
   839b0:	b5f8      	push	{r3, r4, r5, r6, r7, lr}
   839b2:	bf00      	nop
   839b4:	bcf8      	pop	{r3, r4, r5, r6, r7}
   839b6:	bc08      	pop	{r3}
   839b8:	469e      	mov	lr, r3
   839ba:	4770      	bx	lr

000839bc <__init_array_start>:
   839bc:	000835c1 	.word	0x000835c1

000839c0 <__frame_dummy_init_array_entry>:
   839c0:	00080119                                ....

000839c4 <_fini>:
   839c4:	b5f8      	push	{r3, r4, r5, r6, r7, lr}
   839c6:	bf00      	nop
   839c8:	bcf8      	pop	{r3, r4, r5, r6, r7}
   839ca:	bc08      	pop	{r3}
   839cc:	469e      	mov	lr, r3
   839ce:	4770      	bx	lr

000839d0 <__fini_array_start>:
   839d0:	000800f5 	.word	0x000800f5

Disassembly of section .relocate:

20070000 <SystemInit>:
__no_inline
RAMFUNC
void SystemInit(void)
{
	/* Set FWS according to SYS_BOARD_MCKR configuration */
	EFC0->EEFC_FMR = EEFC_FMR_FWS(4);
20070000:	f44f 6380 	mov.w	r3, #1024	; 0x400
20070004:	4a20      	ldr	r2, [pc, #128]	; (20070088 <SystemInit+0x88>)
20070006:	6013      	str	r3, [r2, #0]
	EFC1->EEFC_FMR = EEFC_FMR_FWS(4);
20070008:	f502 7200 	add.w	r2, r2, #512	; 0x200
2007000c:	6013      	str	r3, [r2, #0]

	/* Initialize main oscillator */
	if (!(PMC->CKGR_MOR & CKGR_MOR_MOSCSEL)) {
2007000e:	4b1f      	ldr	r3, [pc, #124]	; (2007008c <SystemInit+0x8c>)
20070010:	6a1b      	ldr	r3, [r3, #32]
20070012:	f013 7f80 	tst.w	r3, #16777216	; 0x1000000
20070016:	d107      	bne.n	20070028 <SystemInit+0x28>
		PMC->CKGR_MOR = SYS_CKGR_MOR_KEY_VALUE | SYS_BOARD_OSCOUNT | 
20070018:	4a1d      	ldr	r2, [pc, #116]	; (20070090 <SystemInit+0x90>)
2007001a:	4b1c      	ldr	r3, [pc, #112]	; (2007008c <SystemInit+0x8c>)
2007001c:	621a      	str	r2, [r3, #32]
			                     CKGR_MOR_MOSCRCEN | CKGR_MOR_MOSCXTEN;
		while (!(PMC->PMC_SR & PMC_SR_MOSCXTS)) {
2007001e:	461a      	mov	r2, r3
20070020:	6e93      	ldr	r3, [r2, #104]	; 0x68
20070022:	f013 0f01 	tst.w	r3, #1
20070026:	d0fb      	beq.n	20070020 <SystemInit+0x20>
		}
	}

	/* Switch to 3-20MHz Xtal oscillator */
	PMC->CKGR_MOR = SYS_CKGR_MOR_KEY_VALUE | SYS_BOARD_OSCOUNT | 
20070028:	4a1a      	ldr	r2, [pc, #104]	; (20070094 <SystemInit+0x94>)
2007002a:	4b18      	ldr	r3, [pc, #96]	; (2007008c <SystemInit+0x8c>)
2007002c:	621a      	str	r2, [r3, #32]
	                           CKGR_MOR_MOSCRCEN | CKGR_MOR_MOSCXTEN | CKGR_MOR_MOSCSEL;

	while (!(PMC->PMC_SR & PMC_SR_MOSCSELS)) {
2007002e:	461a      	mov	r2, r3
20070030:	6e93      	ldr	r3, [r2, #104]	; 0x68
20070032:	f413 3f80 	tst.w	r3, #65536	; 0x10000
20070036:	d0fb      	beq.n	20070030 <SystemInit+0x30>
	}
 	PMC->PMC_MCKR = (PMC->PMC_MCKR & ~(uint32_t)PMC_MCKR_CSS_Msk) | 
20070038:	4a14      	ldr	r2, [pc, #80]	; (2007008c <SystemInit+0x8c>)
2007003a:	6b13      	ldr	r3, [r2, #48]	; 0x30
2007003c:	f023 0303 	bic.w	r3, r3, #3
20070040:	f043 0301 	orr.w	r3, r3, #1
20070044:	6313      	str	r3, [r2, #48]	; 0x30
		                     PMC_MCKR_CSS_MAIN_CLK;
	while (!(PMC->PMC_SR & PMC_SR_MCKRDY)) {
20070046:	6e93      	ldr	r3, [r2, #104]	; 0x68
20070048:	f013 0f08 	tst.w	r3, #8
2007004c:	d0fb      	beq.n	20070046 <SystemInit+0x46>
	}

	/* Initialize PLLA */
	PMC->CKGR_PLLAR = SYS_BOARD_PLLAR;
2007004e:	4a12      	ldr	r2, [pc, #72]	; (20070098 <SystemInit+0x98>)
20070050:	4b0e      	ldr	r3, [pc, #56]	; (2007008c <SystemInit+0x8c>)
20070052:	629a      	str	r2, [r3, #40]	; 0x28
	while (!(PMC->PMC_SR & PMC_SR_LOCKA)) {
20070054:	461a      	mov	r2, r3
20070056:	6e93      	ldr	r3, [r2, #104]	; 0x68
20070058:	f013 0f02 	tst.w	r3, #2
2007005c:	d0fb      	beq.n	20070056 <SystemInit+0x56>
	}

	/* Switch to main clock */
	PMC->PMC_MCKR = (SYS_BOARD_MCKR & ~PMC_MCKR_CSS_Msk) | PMC_MCKR_CSS_MAIN_CLK;
2007005e:	2211      	movs	r2, #17
20070060:	4b0a      	ldr	r3, [pc, #40]	; (2007008c <SystemInit+0x8c>)
20070062:	631a      	str	r2, [r3, #48]	; 0x30
	while (!(PMC->PMC_SR & PMC_SR_MCKRDY)) {
20070064:	461a      	mov	r2, r3
20070066:	6e93      	ldr	r3, [r2, #104]	; 0x68
20070068:	f013 0f08 	tst.w	r3, #8
2007006c:	d0fb      	beq.n	20070066 <SystemInit+0x66>
	}

	/* Switch to PLLA */
	PMC->PMC_MCKR = SYS_BOARD_MCKR;
2007006e:	2212      	movs	r2, #18
20070070:	4b06      	ldr	r3, [pc, #24]	; (2007008c <SystemInit+0x8c>)
20070072:	631a      	str	r2, [r3, #48]	; 0x30
	while (!(PMC->PMC_SR & PMC_SR_MCKRDY)) {
20070074:	461a      	mov	r2, r3
20070076:	6e93      	ldr	r3, [r2, #104]	; 0x68
20070078:	f013 0f08 	tst.w	r3, #8
2007007c:	d0fb      	beq.n	20070076 <SystemInit+0x76>
	}

	SystemCoreClock = CHIP_FREQ_CPU_MAX;
2007007e:	4a07      	ldr	r2, [pc, #28]	; (2007009c <SystemInit+0x9c>)
20070080:	4b07      	ldr	r3, [pc, #28]	; (200700a0 <SystemInit+0xa0>)
20070082:	601a      	str	r2, [r3, #0]
20070084:	4770      	bx	lr
20070086:	bf00      	nop
20070088:	400e0a00 	.word	0x400e0a00
2007008c:	400e0600 	.word	0x400e0600
20070090:	00370809 	.word	0x00370809
20070094:	01370809 	.word	0x01370809
20070098:	200d3f01 	.word	0x200d3f01
2007009c:	0501bd00 	.word	0x0501bd00
200700a0:	2007012c 	.word	0x2007012c

200700a4 <system_init_flash>:
__no_inline
RAMFUNC
void system_init_flash(uint32_t ul_clk)
{
	/* Set FWS for embedded Flash access according to operating frequency */
	if (ul_clk < CHIP_FREQ_FWS_0) {
200700a4:	4b1b      	ldr	r3, [pc, #108]	; (20070114 <system_init_flash+0x70>)
200700a6:	4298      	cmp	r0, r3
200700a8:	d806      	bhi.n	200700b8 <system_init_flash+0x14>
		EFC0->EEFC_FMR = EEFC_FMR_FWS(0);
200700aa:	2300      	movs	r3, #0
200700ac:	4a1a      	ldr	r2, [pc, #104]	; (20070118 <system_init_flash+0x74>)
200700ae:	6013      	str	r3, [r2, #0]
		EFC1->EEFC_FMR = EEFC_FMR_FWS(0);
200700b0:	f502 7200 	add.w	r2, r2, #512	; 0x200
200700b4:	6013      	str	r3, [r2, #0]
200700b6:	4770      	bx	lr
	} else if (ul_clk < CHIP_FREQ_FWS_1) {
200700b8:	4b18      	ldr	r3, [pc, #96]	; (2007011c <system_init_flash+0x78>)
200700ba:	4298      	cmp	r0, r3
200700bc:	d807      	bhi.n	200700ce <system_init_flash+0x2a>
		EFC0->EEFC_FMR = EEFC_FMR_FWS(1);
200700be:	f44f 7380 	mov.w	r3, #256	; 0x100
200700c2:	4a15      	ldr	r2, [pc, #84]	; (20070118 <system_init_flash+0x74>)
200700c4:	6013      	str	r3, [r2, #0]
		EFC1->EEFC_FMR = EEFC_FMR_FWS(1);
200700c6:	f502 7200 	add.w	r2, r2, #512	; 0x200
200700ca:	6013      	str	r3, [r2, #0]
200700cc:	4770      	bx	lr
	} else if (ul_clk < CHIP_FREQ_FWS_2) {
200700ce:	4b14      	ldr	r3, [pc, #80]	; (20070120 <system_init_flash+0x7c>)
200700d0:	4298      	cmp	r0, r3
200700d2:	d807      	bhi.n	200700e4 <system_init_flash+0x40>
		EFC0->EEFC_FMR = EEFC_FMR_FWS(2);
200700d4:	f44f 7300 	mov.w	r3, #512	; 0x200
200700d8:	4a0f      	ldr	r2, [pc, #60]	; (20070118 <system_init_flash+0x74>)
200700da:	6013      	str	r3, [r2, #0]
		EFC1->EEFC_FMR = EEFC_FMR_FWS(2);
200700dc:	f502 7200 	add.w	r2, r2, #512	; 0x200
200700e0:	6013      	str	r3, [r2, #0]
200700e2:	4770      	bx	lr
	} else if (ul_clk < CHIP_FREQ_FWS_3) {
200700e4:	4b0f      	ldr	r3, [pc, #60]	; (20070124 <system_init_flash+0x80>)
200700e6:	4298      	cmp	r0, r3
200700e8:	d807      	bhi.n	200700fa <system_init_flash+0x56>
		EFC0->EEFC_FMR = EEFC_FMR_FWS(3);
200700ea:	f44f 7340 	mov.w	r3, #768	; 0x300
200700ee:	4a0a      	ldr	r2, [pc, #40]	; (20070118 <system_init_flash+0x74>)
200700f0:	6013      	str	r3, [r2, #0]
		EFC1->EEFC_FMR = EEFC_FMR_FWS(3);
200700f2:	f502 7200 	add.w	r2, r2, #512	; 0x200
200700f6:	6013      	str	r3, [r2, #0]
200700f8:	4770      	bx	lr
	} else if (ul_clk < CHIP_FREQ_FWS_4) {
200700fa:	4b0b      	ldr	r3, [pc, #44]	; (20070128 <system_init_flash+0x84>)
200700fc:	4298      	cmp	r0, r3
		EFC0->EEFC_FMR = EEFC_FMR_FWS(4);
200700fe:	bf94      	ite	ls
20070100:	f44f 6380 	movls.w	r3, #1024	; 0x400
		EFC1->EEFC_FMR = EEFC_FMR_FWS(4);	
	} else {
		EFC0->EEFC_FMR = EEFC_FMR_FWS(5);
20070104:	f44f 63a0 	movhi.w	r3, #1280	; 0x500
20070108:	4a03      	ldr	r2, [pc, #12]	; (20070118 <system_init_flash+0x74>)
2007010a:	6013      	str	r3, [r2, #0]
		EFC1->EEFC_FMR = EEFC_FMR_FWS(5);
2007010c:	f502 7200 	add.w	r2, r2, #512	; 0x200
20070110:	6013      	str	r3, [r2, #0]
20070112:	4770      	bx	lr
20070114:	0121eabf 	.word	0x0121eabf
20070118:	400e0a00 	.word	0x400e0a00
2007011c:	02faf07f 	.word	0x02faf07f
20070120:	03d08fff 	.word	0x03d08fff
20070124:	04c4b3ff 	.word	0x04c4b3ff
20070128:	055d4a7f 	.word	0x055d4a7f

2007012c <SystemCoreClock>:
2007012c:	003d0900                                ..=.

20070130 <impure_data>:
20070130:	00000000 2007041c 20070484 200704ec     ....... ... ... 
	...
20070164:	000839a8 00000000 00000000 00000000     .9..............
	...
200701d8:	00000001 00000000 abcd330e e66d1234     .........3..4.m.
200701e8:	0005deec 0000000b 00000000 00000000     ................
	...

20070558 <_impure_ptr>:
20070558:	20070130                                0.. 

2007055c <__malloc_av_>:
	...
20070564:	2007055c 2007055c 20070564 20070564     \.. \.. d.. d.. 
20070574:	2007056c 2007056c 20070574 20070574     l.. l.. t.. t.. 
20070584:	2007057c 2007057c 20070584 20070584     |.. |.. ... ... 
20070594:	2007058c 2007058c 20070594 20070594     ... ... ... ... 
200705a4:	2007059c 2007059c 200705a4 200705a4     ... ... ... ... 
200705b4:	200705ac 200705ac 200705b4 200705b4     ... ... ... ... 
200705c4:	200705bc 200705bc 200705c4 200705c4     ... ... ... ... 
200705d4:	200705cc 200705cc 200705d4 200705d4     ... ... ... ... 
200705e4:	200705dc 200705dc 200705e4 200705e4     ... ... ... ... 
200705f4:	200705ec 200705ec 200705f4 200705f4     ... ... ... ... 
20070604:	200705fc 200705fc 20070604 20070604     ... ... ... ... 
20070614:	2007060c 2007060c 20070614 20070614     ... ... ... ... 
20070624:	2007061c 2007061c 20070624 20070624     ... ... $.. $.. 
20070634:	2007062c 2007062c 20070634 20070634     ,.. ,.. 4.. 4.. 
20070644:	2007063c 2007063c 20070644 20070644     <.. <.. D.. D.. 
20070654:	2007064c 2007064c 20070654 20070654     L.. L.. T.. T.. 
20070664:	2007065c 2007065c 20070664 20070664     \.. \.. d.. d.. 
20070674:	2007066c 2007066c 20070674 20070674     l.. l.. t.. t.. 
20070684:	2007067c 2007067c 20070684 20070684     |.. |.. ... ... 
20070694:	2007068c 2007068c 20070694 20070694     ... ... ... ... 
200706a4:	2007069c 2007069c 200706a4 200706a4     ... ... ... ... 
200706b4:	200706ac 200706ac 200706b4 200706b4     ... ... ... ... 
200706c4:	200706bc 200706bc 200706c4 200706c4     ... ... ... ... 
200706d4:	200706cc 200706cc 200706d4 200706d4     ... ... ... ... 
200706e4:	200706dc 200706dc 200706e4 200706e4     ... ... ... ... 
200706f4:	200706ec 200706ec 200706f4 200706f4     ... ... ... ... 
20070704:	200706fc 200706fc 20070704 20070704     ... ... ... ... 
20070714:	2007070c 2007070c 20070714 20070714     ... ... ... ... 
20070724:	2007071c 2007071c 20070724 20070724     ... ... $.. $.. 
20070734:	2007072c 2007072c 20070734 20070734     ,.. ,.. 4.. 4.. 
20070744:	2007073c 2007073c 20070744 20070744     <.. <.. D.. D.. 
20070754:	2007074c 2007074c 20070754 20070754     L.. L.. T.. T.. 
20070764:	2007075c 2007075c 20070764 20070764     \.. \.. d.. d.. 
20070774:	2007076c 2007076c 20070774 20070774     l.. l.. t.. t.. 
20070784:	2007077c 2007077c 20070784 20070784     |.. |.. ... ... 
20070794:	2007078c 2007078c 20070794 20070794     ... ... ... ... 
200707a4:	2007079c 2007079c 200707a4 200707a4     ... ... ... ... 
200707b4:	200707ac 200707ac 200707b4 200707b4     ... ... ... ... 
200707c4:	200707bc 200707bc 200707c4 200707c4     ... ... ... ... 
200707d4:	200707cc 200707cc 200707d4 200707d4     ... ... ... ... 
200707e4:	200707dc 200707dc 200707e4 200707e4     ... ... ... ... 
200707f4:	200707ec 200707ec 200707f4 200707f4     ... ... ... ... 
20070804:	200707fc 200707fc 20070804 20070804     ... ... ... ... 
20070814:	2007080c 2007080c 20070814 20070814     ... ... ... ... 
20070824:	2007081c 2007081c 20070824 20070824     ... ... $.. $.. 
20070834:	2007082c 2007082c 20070834 20070834     ,.. ,.. 4.. 4.. 
20070844:	2007083c 2007083c 20070844 20070844     <.. <.. D.. D.. 
20070854:	2007084c 2007084c 20070854 20070854     L.. L.. T.. T.. 
20070864:	2007085c 2007085c 20070864 20070864     \.. \.. d.. d.. 
20070874:	2007086c 2007086c 20070874 20070874     l.. l.. t.. t.. 
20070884:	2007087c 2007087c 20070884 20070884     |.. |.. ... ... 
20070894:	2007088c 2007088c 20070894 20070894     ... ... ... ... 
200708a4:	2007089c 2007089c 200708a4 200708a4     ... ... ... ... 
200708b4:	200708ac 200708ac 200708b4 200708b4     ... ... ... ... 
200708c4:	200708bc 200708bc 200708c4 200708c4     ... ... ... ... 
200708d4:	200708cc 200708cc 200708d4 200708d4     ... ... ... ... 
200708e4:	200708dc 200708dc 200708e4 200708e4     ... ... ... ... 
200708f4:	200708ec 200708ec 200708f4 200708f4     ... ... ... ... 
20070904:	200708fc 200708fc 20070904 20070904     ... ... ... ... 
20070914:	2007090c 2007090c 20070914 20070914     ... ... ... ... 
20070924:	2007091c 2007091c 20070924 20070924     ... ... $.. $.. 
20070934:	2007092c 2007092c 20070934 20070934     ,.. ,.. 4.. 4.. 
20070944:	2007093c 2007093c 20070944 20070944     <.. <.. D.. D.. 
20070954:	2007094c 2007094c 20070954 20070954     L.. L.. T.. T.. 

20070964 <__malloc_trim_threshold>:
20070964:	00020000                                ....

20070968 <__malloc_sbrk_base>:
20070968:	ffffffff                                ....
